 PhysXCommon_64

 Timestamp is 682c4a9f (Tue May 20 18:25:51 2025)

 Preferred load address is 0000000180000000

 Start         Length     Name                   Class
 0001:00000000 00003770H .text$di                CODE
 0001:00003770 001f24f0H .text$mn                CODE
 0001:001f5c60 00000060H .text$mn$00             CODE
 0001:001f5cc0 00000b00H .text$mn$21             CODE
 0001:001f67c0 000006d0H .text$x                 CODE
 0001:001f6e90 0000000fH .text$yd                CODE
 0002:00000000 00000288H .idata$5                DATA
 0002:00000288 00000038H .00cfg                  DATA
 0002:000002c0 00000008H .CRT$XCA                DATA
 0002:000002c8 00001af0H .CRT$XCU                DATA
 0002:00001db8 00000008H .CRT$XCZ                DATA
 0002:00001dc0 00000008H .CRT$XIA                DATA
 0002:00001dc8 00000018H .CRT$XIC                DATA
 0002:00001de0 00000008H .CRT$XIZ                DATA
 0002:00001de8 00000008H .CRT$XPA                DATA
 0002:00001df0 00000010H .CRT$XPX                DATA
 0002:00001e00 00000008H .CRT$XPXA               DATA
 0002:00001e08 00000008H .CRT$XPZ                DATA
 0002:00001e10 00000008H .CRT$XTA                DATA
 0002:00001e18 00000008H .CRT$XTZ                DATA
 0002:00001e20 00000000H .gehcont$y              DATA
 0002:00001e20 00000000H .gfids$y                DATA
 0002:00001e20 000113d0H .rdata                  DATA
 0002:000131f0 00000190H .rdata$00               DATA
 0002:00013380 00000000H .rdata$CastGuardVftablesA DATA
 0002:00013380 00000000H .rdata$CastGuardVftablesC DATA
 0002:00013380 00000464H .rdata$r                DATA
 0002:000137e4 00000258H .rdata$voltmd           DATA
 0002:00013a3c 00000484H .rdata$zzzdbg           DATA
 0002:00013ec0 00000008H .rtc$IAA                DATA
 0002:00013ec8 00000008H .rtc$IZZ                DATA
 0002:00013ed0 00000008H .rtc$TAA                DATA
 0002:00013ed8 00000008H .rtc$TZZ                DATA
 0002:00013ee0 000168e8H .xdata                  DATA
 0002:0002a7c8 00000084H .xdata$x                DATA
 0002:0002a84c 00000020H .didat$2                DATA
 0002:0002a86c 00000024H .didat$3                DATA
 0002:0002a890 000000c8H .didat$4                DATA
 0002:0002a958 00000418H .didat$6                DATA
 0002:0002ad70 000001e0H .didat$7                DATA
 0002:0002af50 0000c638H .edata                  DATA
 0002:00037588 00000014H .idata$2                DATA
 0002:0003759c 00000014H .idata$3                DATA
 0002:000375b0 00000288H .idata$4                DATA
 0002:00037838 000005dcH .idata$6                DATA
 0003:00000000 00001cb0H .data                   DATA
 0003:00001cb0 00001278H .data$r                 DATA
 0003:00002f28 000000f0H .data$rs                DATA
 0003:00003018 000000c8H .didat$5                DATA
 0003:000030e0 0000473cH .bss                    DATA
 0004:00000000 0000d248H .pdata                  DATA
 0005:00000000 00002208H _RDATA                  DATA
 0006:00000000 00000100H .fptable                DATA
 0007:00000000 000000a0H .rsrc$01                DATA
 0007:000000a0 000004b0H .rsrc$02                DATA

  Address         Publics by Value              Rva+Base               Lib:Object

 0000:00000000       __AbsoluteZero             0000000000000000     <absolute>
 0000:00000000       ___safe_se_handler_count   0000000000000000     <absolute>
 0000:00000000       ___safe_se_handler_table   0000000000000000     <absolute>
 0000:00000000       __arm64x_extra_rfe_table   0000000000000000     <absolute>
 0000:00000000       __arm64x_extra_rfe_table_size 0000000000000000     <absolute>
 0000:00000000       __arm64x_native_entrypoint 0000000000000000     <absolute>
 0000:00000000       __arm64x_redirection_metadata 0000000000000000     <absolute>
 0000:00000000       __arm64x_redirection_metadata_count 0000000000000000     <absolute>
 0000:00000000       __dynamic_value_reloc_table 0000000000000000     <absolute>
 0000:00000000       __enclave_config           0000000000000000     <absolute>
 0000:00000000       __guard_check_icall_a64n_fptr 0000000000000000     <absolute>
 0000:00000000       __guard_eh_cont_count      0000000000000000     <absolute>
 0000:00000000       __guard_eh_cont_table      0000000000000000     <absolute>
 0000:00000000       __guard_fids_count         0000000000000000     <absolute>
 0000:00000000       __guard_fids_table         0000000000000000     <absolute>
 0000:00000000       __guard_iat_count          0000000000000000     <absolute>
 0000:00000000       __guard_iat_table          0000000000000000     <absolute>
 0000:00000000       __guard_longjmp_count      0000000000000000     <absolute>
 0000:00000000       __guard_longjmp_table      0000000000000000     <absolute>
 0000:00000000       __hybrid_auxiliary_delayload_iat 0000000000000000     <absolute>
 0000:00000000       __hybrid_auxiliary_delayload_iat_copy 0000000000000000     <absolute>
 0000:00000000       __hybrid_auxiliary_iat     0000000000000000     <absolute>
 0000:00000000       __hybrid_auxiliary_iat_copy 0000000000000000     <absolute>
 0000:00000000       __hybrid_code_map          0000000000000000     <absolute>
 0000:00000000       __hybrid_code_map_count    0000000000000000     <absolute>
 0000:00000000       __hybrid_image_info_bitfield 0000000000000000     <absolute>
 0000:00000000       __x64_code_ranges_to_entry_points 0000000000000000     <absolute>
 0000:00000000       __x64_code_ranges_to_entry_points_count 0000000000000000     <absolute>
 0000:00000100       __guard_flags              0000000000000100     <absolute>
 0000:00000000       __ImageBase                0000000180000000     <linker-defined>
 0001:00003770       ??0PtrTable@Cm@physx@@QEAA@W4PxEMPTY@2@@Z 0000000180004770 f i CmPtrTable.obj
 0001:00003790       ??0PtrTable@Cm@physx@@QEAA@XZ 0000000180004790 f   CmPtrTable.obj
 0001:000037a0       ??1AABBTreeBuildNode@Gu@physx@@QEAA@XZ 00000001800047a0 f   GuMeshFactory.obj
 0001:000037a0       ??1BigConvexDataBuilder@physx@@QEAA@XZ 00000001800047a0 f   GuCookingBigConvexDataBuilder.obj
 0001:000037a0       ??1Box@Gu@physx@@QEAA@XZ   00000001800047a0 f   GuBox.obj
 0001:000037a0       ??1HeightFieldData@Gu@physx@@QEAA@XZ 00000001800047a0 f   GuCCTSweepTests.obj
 0001:000037a0       ??1PtrTable@Cm@physx@@QEAA@XZ 00000001800047a0 f   CmPtrTable.obj
 0001:000037a0       ?build@CompanionPrunerIncremental@@UEAAXXZ 00000001800047a0 f   GuSecondaryPruner.obj
 0001:000037a0       ?checkTreeLeaf@IncrementalAABBTree@Gu@physx@@QEAAXPEAVIncrementalAABBTreeNode@23@I@Z 00000001800047a0 f   GuIncrementalAABBTree.obj
 0001:000037a0       ?execute@?$PxThreadT@V?$PxReflectionAllocator@VPxThreadImpl@physx@@@physx@@@physx@@UEAAXXZ 00000001800047a0 f   GuSDF.obj
 0001:000037a0       ?execute@PxRunnable@physx@@UEAAXXZ 00000001800047a0 f   GuSDF.obj
 0001:000037a0       ?merge@BucketPruner@Gu@physx@@UEAAXPEBX@Z 00000001800047a0 f   GuBucketPruner.obj
 0001:000037a0       ?merge@IncrementalAABBPruner@Gu@physx@@UEAAXPEBX@Z 00000001800047a0 f   GuIncrementalAABBPruner.obj
 0001:000037a0       ?onMeshIndexFormatChange@TriangleMeshBuilder@physx@@UEAAXXZ 00000001800047a0 f   GuCookingTriangleMesh.obj
 0001:000037a0       ?profile@Callback@RTree@Gu@physx@@UEAAXXZ 00000001800047a0 f   GuMidphaseRTree.obj
 0001:000037a0       ?purge@BucketPruner@Gu@physx@@UEAAXXZ 00000001800047a0 f   GuBucketPruner.obj
 0001:000037a0       ?requiresObjects@ConvexMesh@Gu@physx@@UEAAXAEAVPxProcessPxBaseCallback@3@@Z 00000001800047a0 f   GuConvexMesh.obj
 0001:000037a0       ?requiresObjects@DeformableVolumeMesh@Gu@physx@@UEAAXAEAVPxProcessPxBaseCallback@3@@Z 00000001800047a0 f   GuTetrahedronMesh.obj
 0001:000037a0       ?requiresObjects@HeightField@Gu@physx@@UEAAXAEAVPxProcessPxBaseCallback@3@@Z 00000001800047a0 f   GuHeightField.obj
 0001:000037a0       ?requiresObjects@TriangleMesh@Gu@physx@@UEAAXAEAVPxProcessPxBaseCallback@3@@Z 00000001800047a0 f   GuTriangleMesh.obj
 0001:000037a0       ?swapIndex@CompanionPrunerAABBTree@@UEAAXII@Z 00000001800047a0 f   GuSecondaryPruner.obj
 0001:000037a0       ?swapIndex@CompanionPrunerBucket@@UEAAXII@Z 00000001800047a0 f   GuSecondaryPruner.obj
 0001:000037a0       ?timeStampChange@CompanionPrunerAABBTree@@UEAAXXZ 00000001800047a0 f   GuSecondaryPruner.obj
 0001:000037a0       ?timeStampChange@CompanionPrunerBucket@@UEAAXXZ 00000001800047a0 f   GuSecondaryPruner.obj
 0001:000037a0       ?visualize@BasePruner@Gu@physx@@UEBAXAEAVPxRenderOutput@3@II@Z 00000001800047a0 f   GuIncrementalAABBPruner.obj
 0001:000037a0       _guard_check_icall_nop     00000001800047a0 f   LIBCMT:guard_support.obj
 0001:000037b0       ??4AABBTreeBounds@Gu@physx@@QEAAAEAV012@AEBV012@@Z 00000001800047b0 f i GuMeshFactory.obj
 0001:000037b0       ??4CmModuleUpdateLoader@Cm@physx@@QEAAAEAV012@AEBV012@@Z 00000001800047b0 f i CmWindowsModuleUpdateLoader.obj
 0001:000037b0       ??4PtrTable@Cm@physx@@QEAAAEAU012@AEBU012@@Z 00000001800047b0 f i CmPtrTable.obj
 0001:000037c0       ?add@PtrTable@Cm@physx@@QEAAXPEAXAEAVPtrTableStorageManager@23@@Z 00000001800047c0 f   CmPtrTable.obj
 0001:00003880       ?clear@PtrTable@Cm@physx@@QEAAXAEAVPtrTableStorageManager@23@@Z 0000000180004880 f   CmPtrTable.obj
 0001:000038f0       ?exportExtraData@PtrTable@Cm@physx@@QEAAXAEAVPxSerializationContext@3@@Z 00000001800048f0 f   CmPtrTable.obj
 0001:00003940       ?find@PtrTable@Cm@physx@@QEBAIPEBX@Z 0000000180004940 f   CmPtrTable.obj
 0001:00003970       ?getCount@PtrTable@Cm@physx@@QEBAIXZ 0000000180004970 f i CmPtrTable.obj
 0001:00003980       ?getPtrs@PtrTable@Cm@physx@@QEAAPEAPEAXXZ 0000000180004980 f i CmPtrTable.obj
 0001:00003980       ?getPtrs@PtrTable@Cm@physx@@QEBAPEBQEAXXZ 0000000180004980 f i CmPtrTable.obj
 0001:00003990       ?importExtraData@PtrTable@Cm@physx@@QEAAXAEAVPxDeserializationContext@3@@Z 0000000180004990 f   CmPtrTable.obj
 0001:000039c0       ?realloc@PtrTable@Cm@physx@@AEAAXIIAEAVPtrTableStorageManager@23@@Z 00000001800049c0 f   CmPtrTable.obj
 0001:00003a70       ?replaceWithLast@PtrTable@Cm@physx@@QEAAXIAEAVPtrTableStorageManager@23@@Z 0000000180004a70 f   CmPtrTable.obj
 0001:00003b70       ??_ECollection@Cm@physx@@UEAAPEAXI@Z 0000000180004b70 f i CmCollection.obj
 0001:00003b70       ??_GCollection@Cm@physx@@UEAAPEAXI@Z 0000000180004b70 f i CmCollection.obj
 0001:00003c30       ??_EPxCollection@physx@@MEAAPEAXI@Z 0000000180004c30 f i CmCollection.obj
 0001:00003c30       ??_GPxCollection@physx@@MEAAPEAXI@Z 0000000180004c30 f i CmCollection.obj
 0001:00003c60       ?add@Collection@Cm@physx@@UEAAXAEAVPxBase@3@_K@Z 0000000180004c60 f   CmCollection.obj
 0001:00003d60       ?add@Collection@Cm@physx@@UEAAXAEAVPxCollection@3@@Z 0000000180004d60 f   CmCollection.obj
 0001:00003f20       ?addId@Collection@Cm@physx@@UEAAXAEAVPxBase@3@_K@Z 0000000180004f20 f   CmCollection.obj
 0001:00004050       ?contains@Collection@Cm@physx@@UEBA_NAEAVPxBase@3@@Z 0000000180005050 f   CmCollection.obj
 0001:00004100       ?create@?$PxHashBase@V?$PxPair@$$CB_KPEAVPxBase@physx@@@physx@@_KU?$PxHash@_K@2@UGetKey@?$PxHashMapBase@_KPEAVPxBase@physx@@U?$PxHash@_K@2@VPxAllocator@2@@2@VPxAllocator@2@$00@physx@@QEAAPEAV?$PxPair@$$CB_KPEAVPxBase@physx@@@2@AEB_KAEA_N@Z 0000000180005100 f i CmCollection.obj
 0001:00004100       ?create@?$PxHashBase@V?$PxPair@QEAVPxBase@physx@@_K@physx@@PEAVPxBase@2@U?$PxHash@PEAVPxBase@physx@@@2@UGetKey@?$PxHashMapBase@PEAVPxBase@physx@@_KU?$PxHash@PEAVPxBase@physx@@@2@VPxAllocator@2@@2@VPxAllocator@2@$00@physx@@QEAAPEAV?$PxPair@QEAVPxBase@physx@@_K@2@AEBQEAVPxBase@2@AEA_N@Z 0000000180005100 f i CmCollection.obj
 0001:00004290       ?erase@?$PxHashBase@V?$PxPair@$$CB_KPEAVPxBase@physx@@@physx@@_KU?$PxHash@_K@2@UGetKey@?$PxHashMapBase@_KPEAVPxBase@physx@@U?$PxHash@_K@2@VPxAllocator@2@@2@VPxAllocator@2@$00@physx@@QEAA_NAEB_K@Z 0000000180005290 f i CmCollection.obj
 0001:00004290       ?erase@?$PxHashBase@V?$PxPair@QEAVPxBase@physx@@_K@physx@@PEAVPxBase@2@U?$PxHash@PEAVPxBase@physx@@@2@UGetKey@?$PxHashMapBase@PEAVPxBase@physx@@_KU?$PxHash@PEAVPxBase@physx@@@2@VPxAllocator@2@@2@VPxAllocator@2@$00@physx@@QEAA_NAEBQEAVPxBase@2@@Z 0000000180005290 f i CmCollection.obj
 0001:00004440       ?find@?$PxHashMapBase@_KPEAVPxBase@physx@@U?$PxHash@_K@2@VPxAllocator@2@@physx@@QEBAPEBV?$PxPair@$$CB_KPEAVPxBase@physx@@@2@AEB_K@Z 0000000180005440 f i CmCollection.obj
 0001:000044e0       ?find@Collection@Cm@physx@@UEBAPEAVPxBase@3@_K@Z 00000001800054e0 f   CmCollection.obj
 0001:00004510       ?getId@Collection@Cm@physx@@UEBA_KAEBVPxBase@3@@Z 0000000180005510 f   CmCollection.obj
 0001:000045c0       ?getIds@Collection@Cm@physx@@UEBAIPEA_KII@Z 00000001800055c0 f   CmCollection.obj
 0001:000046a0       ?getNbIds@Collection@Cm@physx@@UEBAIXZ 00000001800056a0 f   CmCollection.obj
 0001:000046b0       ?getNbObjects@Collection@Cm@physx@@UEBAIXZ 00000001800056b0 f   CmCollection.obj
 0001:000046c0       ?getObject@Collection@Cm@physx@@UEBAAEAVPxBase@3@I@Z 00000001800056c0 f   CmCollection.obj
 0001:000046d0       ?getObjects@Collection@Cm@physx@@UEBAIPEAPEAVPxBase@3@II@Z 00000001800056d0 f   CmCollection.obj
 0001:00004710       ?release@Collection@Cm@physx@@UEAAXXZ 0000000180005710 f i CmCollection.obj
 0001:00004730       ?remove@Collection@Cm@physx@@UEAAXAEAVPxBase@3@@Z 0000000180005730 f   CmCollection.obj
 0001:00004820       ?remove@Collection@Cm@physx@@UEAAXAEAVPxCollection@3@@Z 0000000180005820 f   CmCollection.obj
 0001:00004940       ?removeId@Collection@Cm@physx@@UEAAX_K@Z 0000000180005940 f   CmCollection.obj
 0001:000049c0       ?reserveInternal@?$PxHashBase@V?$PxPair@$$CB_KPEAVPxBase@physx@@@physx@@_KU?$PxHash@_K@2@UGetKey@?$PxHashMapBase@_KPEAVPxBase@physx@@U?$PxHash@_K@2@VPxAllocator@2@@2@VPxAllocator@2@$00@physx@@AEAAXI@Z 00000001800059c0 f i CmCollection.obj
 0001:000049c0       ?reserveInternal@?$PxHashBase@V?$PxPair@QEAVPxBase@physx@@_K@physx@@PEAVPxBase@2@U?$PxHash@PEAVPxBase@physx@@@2@UGetKey@?$PxHashMapBase@PEAVPxBase@physx@@_KU?$PxHash@PEAVPxBase@physx@@@2@VPxAllocator@2@@2@VPxAllocator@2@$00@physx@@AEAAXI@Z 00000001800059c0 f i CmCollection.obj
 0001:00004bb0       PxCreateCollection         0000000180005bb0 f   CmCollection.obj
 0001:00004cb0       ??0RadixSort@Cm@physx@@QEAA@XZ 0000000180005cb0 f   CmRadixSort.obj
 0001:00004ce0       ??0RadixSortBuffered@Cm@physx@@QEAA@XZ 0000000180005ce0 f   CmRadixSort.obj
 0001:00004d10       ??1RadixSort@Cm@physx@@UEAA@XZ 0000000180005d10 f   CmRadixSort.obj
 0001:00004d20       ??1RadixSortBuffered@Cm@physx@@UEAA@XZ 0000000180005d20 f   CmRadixSort.obj
 0001:00004d50       ??_ERadixSort@Cm@physx@@UEAAPEAXI@Z 0000000180005d50 f i CmRadixSort.obj
 0001:00004de0       ??_ERadixSortBuffered@Cm@physx@@UEAAPEAXI@Z 0000000180005de0 f i CmRadixSort.obj
 0001:00004ed0       ?CheckResize@RadixSortBuffered@Cm@physx@@AEAAXI@Z 0000000180005ed0 f i CmRadixSort.obj
 0001:00004f10       ?GetNbHits@RadixSort@Cm@physx@@QEBAIXZ 0000000180005f10 f i CmRadixSort.obj
 0001:00004f20       ?GetNbTotalCalls@RadixSort@Cm@physx@@QEBAIXZ 0000000180005f20 f i CmRadixSort.obj
 0001:00004f30       ?GetRanks@RadixSort@Cm@physx@@QEBAPEBIXZ 0000000180005f30 f i CmRadixSort.obj
 0001:00004f30       ?getGridModelInvMass@DeformableVolumeAuxData@Gu@physx@@UEAAPEAMXZ 0000000180005f30 f i GuTetrahedronMesh.obj
 0001:00004f30       ?getHeightField@HeightFieldUtil@Gu@physx@@QEBAAEBVHeightField@23@XZ 0000000180005f30 f i GuCCTSweepTests.obj
 0001:00004f30       ?getSimulationMesh@DeformableVolumeMesh@Gu@physx@@UEAAPEAVPxTetrahedronMesh@3@XZ 0000000180005f30 f i GuTetrahedronMesh.obj
 0001:00004f30       ?getSimulationMesh@DeformableVolumeMesh@Gu@physx@@UEBAPEBVPxTetrahedronMesh@3@XZ 0000000180005f30 f i GuTetrahedronMesh.obj
 0001:00004f40       ?GetRecyclable@RadixSort@Cm@physx@@QEBAPEAIXZ 0000000180005f40 f i CmRadixSort.obj
 0001:00004f40       ?GetValencies@BigConvexData@physx@@QEBAPEBUValency@Gu@2@XZ 0000000180005f40 f i GuBigConvexData.obj
 0001:00004f40       ?getCollisionMesh@DeformableVolumeMesh@Gu@physx@@UEAAPEAVPxTetrahedronMesh@3@XZ 0000000180005f40 f i GuTetrahedronMesh.obj
 0001:00004f40       ?getCollisionMesh@DeformableVolumeMesh@Gu@physx@@UEBAPEBVPxTetrahedronMesh@3@XZ 0000000180005f40 f i GuTetrahedronMesh.obj
 0001:00004f40       ?getHeightFieldGeometry@HeightFieldUtil@Gu@physx@@QEBAAEBVPxHeightFieldGeometry@3@XZ 0000000180005f40 f i GuCCTSweepTests.obj
 0001:00004f40       ?getObjects@PruningPool@Gu@physx@@QEBAPEAUPrunerPayload@23@XZ 0000000180005f40 f i GuIncrementalAABBPrunerCore.obj
 0001:00004f40       ?getPos@AABBTreeBuildNode@Gu@physx@@QEBAPEBV123@XZ 0000000180005f40 f i GuMeshFactory.obj
 0001:00004f40       ?getVertices@TetrahedronMesh@Gu@physx@@UEBAPEBV?$PxVec3T@M@3@XZ 0000000180005f40 f i GuTetrahedronMesh.obj
 0001:00004f40       ?getVertices@TriangleMesh@Gu@physx@@UEBAPEBV?$PxVec3T@M@3@XZ 0000000180005f40 f i GuTriangleMesh.obj
 0001:00004f50       ?Resize@RadixSortBuffered@Cm@physx@@AEAA_NI@Z 0000000180005f50 f   CmRadixSort.obj
 0001:00005050       ?SetBuffers@RadixSort@Cm@physx@@QEAA_NPEAI00PEAPEAI@Z 0000000180006050 f   CmRadixSort.obj
 0001:00005090       ?Sort@RadixSort@Cm@physx@@QEAAAEAV123@PEBIIW4RadixHint@23@@Z 0000000180006090 f   CmRadixSort.obj
 0001:00005740       ?Sort@RadixSort@Cm@physx@@QEAAAEAV123@PEBMI@Z 0000000180006740 f   CmRadixSort.obj
 0001:00005ed0       ?Sort@RadixSortBuffered@Cm@physx@@QEAAAEAV123@PEBIIW4RadixHint@23@@Z 0000000180006ed0 f   CmRadixSort.obj
 0001:00005f70       ?Sort@RadixSortBuffered@Cm@physx@@QEAAAEAV123@PEBMI@Z 0000000180006f70 f   CmRadixSort.obj
 0001:00006000       ?invalidateRanks@RadixSort@Cm@physx@@QEAAXXZ 0000000180007000 f i CmRadixSort.obj
 0001:00006010       ?reset@RadixSortBuffered@Cm@physx@@QEAAXXZ 0000000180007010 f   CmRadixSort.obj
 0001:000060a0       ?ReadHeader@Cm@physx@@YA_NEEEEAEAIAEA_NAEAVPxInputStream@2@@Z 00000001800070a0 f   CmSerialize.obj
 0001:00006200       ?ReadIndices@Cm@physx@@YAXGIPEAGAEAVPxInputStream@2@_N@Z 0000000180007200 f   CmSerialize.obj
 0001:000063b0       ?StoreIndices@Cm@physx@@YAXGIPEBGAEAVPxOutputStream@2@_N@Z 00000001800073b0 f   CmSerialize.obj
 0001:000064a0       ?WriteHeader@Cm@physx@@YA_NEEEEI_NAEAVPxOutputStream@2@@Z 00000001800074a0 f   CmSerialize.obj
 0001:000065d0       ?computeMaxIndex@physx@@YAGPEBGI@Z 00000001800075d0 f   CmSerialize.obj
 0001:00006600       ?computeMaxIndex@physx@@YAIPEBII@Z 0000000180007600 f   CmSerialize.obj
 0001:00006630       ?readByteBuffer@physx@@YAXPEAEIAEAVPxInputStream@1@@Z 0000000180007630 f   CmSerialize.obj
 0001:00006630       ?writeByteBuffer@physx@@YAXPEBEIAEAVPxOutputStream@1@@Z 0000000180007630 f   CmSerialize.obj
 0001:00006650       ?readChunk@physx@@YAXAEAC000AEAVPxInputStream@1@@Z 0000000180007650 f   CmSerialize.obj
 0001:000066d0       ?readDword@physx@@YAI_NAEAVPxInputStream@1@@Z 00000001800076d0 f   CmSerialize.obj
 0001:00006730       ?readFloat@physx@@YAM_NAEAVPxInputStream@1@@Z 0000000180007730 f   CmSerialize.obj
 0001:00006790       ?readFloatBuffer@physx@@YA_NPEAMI_NAEAVPxInputStream@1@@Z 0000000180007790 f   CmSerialize.obj
 0001:00006810       ?readHeader@physx@@YA_NCCCCAEAIAEA_NAEAVPxInputStream@1@@Z 0000000180007810 f   CmSerialize.obj
 0001:00006960       ?readIndices@physx@@YAXIIPEAIAEAVPxInputStream@1@_N@Z 0000000180007960 f   CmSerialize.obj
 0001:00006a90       ?readWord@physx@@YAG_NAEAVPxInputStream@1@@Z 0000000180007a90 f   CmSerialize.obj
 0001:00006ad0       ?readWordBuffer@physx@@YAXPEAGI_NAEAVPxInputStream@1@@Z 0000000180007ad0 f   CmSerialize.obj
 0001:00006b40       ?storeIndices@physx@@YAXIIPEBIAEAVPxOutputStream@1@_N@Z 0000000180007b40 f   CmSerialize.obj
 0001:00006cd0       ?writeDword@physx@@YAXI_NAEAVPxOutputStream@1@@Z 0000000180007cd0 f   CmSerialize.obj
 0001:00006d20       ?writeFloat@physx@@YAXM_NAEAVPxOutputStream@1@@Z 0000000180007d20 f   CmSerialize.obj
 0001:00006d70       ?writeFloatBuffer@physx@@YAXPEBMI_NAEAVPxOutputStream@1@@Z 0000000180007d70 f   CmSerialize.obj
 0001:00006e10       ?writeHeader@physx@@YA_NCCCCI_NAEAVPxOutputStream@1@@Z 0000000180007e10 f   CmSerialize.obj
 0001:00006f40       ?writeWord@physx@@YAXG_NAEAVPxOutputStream@1@@Z 0000000180007f40 f   CmSerialize.obj
 0001:00006f80       ?writeWordBuffer@physx@@YAXPEBGI_NAEAVPxOutputStream@1@@Z 0000000180007f80 f   CmSerialize.obj
 0001:00007000       ??6PxRenderOutput@physx@@QEAAAEAV01@AEBV?$PxTransformT@M@1@@Z 0000000180008000 f i CmVisualization.obj
 0001:00007180       ??6PxRenderOutput@physx@@QEAAAEAV01@AEBV?$PxVec3T@M@1@@Z 0000000180008180 f i CmVisualization.obj
 0001:00007470       ?renderOutputDebugArrow@Cm@physx@@YAXAEAVPxRenderOutput@2@AEBUPxDebugArrow@2@@Z 0000000180008470 f   CmVisualization.obj
 0001:00007820       ?renderOutputDebugBasis@Cm@physx@@YAXAEAVPxRenderOutput@2@AEBUPxDebugBasis@2@@Z 0000000180008820 f   CmVisualization.obj
 0001:00007d80       ?renderOutputDebugBox@Cm@physx@@YAXAEAVPxRenderOutput@2@AEBVPxBounds3@2@@Z 0000000180008d80 f   CmVisualization.obj
 0001:00007ff0       ?renderOutputDebugCircle@Cm@physx@@YAXAEAVPxRenderOutput@2@IM@Z 0000000180008ff0 f   CmVisualization.obj
 0001:000080d0       ?visualizeAngularLimit@Cm@physx@@YAXAEAVPxRenderOutput@2@MAEBV?$PxTransformT@M@2@MM@Z 00000001800090d0 f   CmVisualization.obj
 0001:00008260       ?visualizeDoubleCone@Cm@physx@@YAXAEAVPxRenderOutput@2@MAEBV?$PxTransformT@M@2@M@Z 0000000180009260 f   CmVisualization.obj
 0001:00008480       ?visualizeJointFrames@Cm@physx@@YAXAEAVPxRenderOutput@2@MAEBV?$PxTransformT@M@2@1@Z 0000000180009480 f   CmVisualization.obj
 0001:00009170       ?visualizeLimitCone@Cm@physx@@YAXAEAVPxRenderOutput@2@MAEBV?$PxTransformT@M@2@MM@Z 000000018000a170 f   CmVisualization.obj
 0001:000093a0       ?visualizeLinearLimit@Cm@physx@@YAXAEAVPxRenderOutput@2@MAEBV?$PxTransformT@M@2@1M@Z 000000018000a3a0 f   CmVisualization.obj
 0001:000099a0       ??0CmModuleUpdateLoader@Cm@physx@@QEAA@PEBD@Z 000000018000a9a0 f   CmWindowsModuleUpdateLoader.obj
 0001:000099e0       ??1CmModuleUpdateLoader@Cm@physx@@QEAA@XZ 000000018000a9e0 f   CmWindowsModuleUpdateLoader.obj
 0001:00009a10       ?LoadModule@CmModuleUpdateLoader@Cm@physx@@QEAAPEAUHINSTANCE__@@PEBD0@Z 000000018000aa10 f   CmWindowsModuleUpdateLoader.obj
 0001:00009a80       __local_stdio_printf_options 000000018000aa80 f i CmWindowsModuleUpdateLoader.obj
 0001:00009a90       printf                     000000018000aa90 f i CmWindowsModuleUpdateLoader.obj
 0001:00009af0       ?commonDelayHook@@YAP6A_JXZIPEAUDelayLoadInfo@@@Z 000000018000aaf0 f   CmWindowsDelayLoadHook.obj
 0001:00009bd0       PxSetPhysXCommonDelayLoadHook 000000018000abd0 f   CmWindowsDelayLoadHook.obj
 0001:00009be0       ??0?$PxQuatT@M@physx@@QEAA@AEBV?$PxMat33T@M@1@@Z 000000018000abe0 f i GuBox.obj
 0001:00009dd0       ??0Box@Gu@physx@@QEAA@AEBV012@@Z 000000018000add0 f i GuBox.obj
 0001:00009dd0       ??4Box@Gu@physx@@QEAAAEBV012@AEBV012@@Z 000000018000add0 f i GuBox.obj
 0001:00009e30       ??0Box@Gu@physx@@QEAA@AEBV?$PxVec3T@M@2@0AEBV?$PxMat33T@M@2@@Z 000000018000ae30 f i GuBox.obj
 0001:00009ea0       ??0AABBTreeBuildNode@Gu@physx@@QEAA@XZ 000000018000aea0 f i GuMeshFactory.obj
 0001:00009ea0       ??0BigConvexData@physx@@QEAA@W4PxEMPTY@1@@Z 000000018000aea0 f i GuBigConvexData.obj
 0001:00009ea0       ??0Box@Gu@physx@@QEAA@XZ   000000018000aea0 f i GuBox.obj
 0001:00009ea0       ??0HeightFieldData@Gu@physx@@QEAA@W4PxEMPTY@2@@Z 000000018000aea0 f i GuCCTSweepTests.obj
 0001:00009ea0       ?getAABB@AABBTreeBuildNode@Gu@physx@@QEBAAEBVPxBounds3@3@XZ 000000018000aea0 f i GuMeshFactory.obj
 0001:00009ea0       ?getPaddedBounds@HeightFieldData@Gu@physx@@QEBAAEBVCenterExtentsPadded@23@XZ 000000018000aea0 f i GuCCTSweepTests.obj
 0001:00009eb0       ?computeAABBExtent@Box@Gu@physx@@QEBA?AV?$PxVec3T@M@3@XZ 000000018000aeb0 f i GuBox.obj
 0001:00009f70       ?computeBoxPoints@Box@Gu@physx@@QEBAXPEIAV?$PxVec3T@M@3@@Z 000000018000af70 f i GuBox.obj
 0001:00009fb0       ?computeOBBPoints@Gu@physx@@YAXPEIAV?$PxVec3T@M@2@AEBV32@1111@Z 000000018000afb0 f   GuBox.obj
 0001:0000a240       ?create@Box@Gu@physx@@QEAAXAEBVCapsule@23@@Z 000000018000b240 f   GuBox.obj
 0001:0000a480       ?getBoxEdges@Gu@physx@@YAPEBEXZ 000000018000b480 f   GuBox.obj
 0001:0000a490       ?getTransform@Box@Gu@physx@@QEBA?AV?$PxTransformT@M@3@XZ 000000018000b490 f i GuBox.obj
 0001:0000a4f0       ?isValid@Box@Gu@physx@@QEBA_NXZ 000000018000b4f0 f i GuBox.obj
 0001:0000a510       ??D?$PxMat33T@M@physx@@QEBA?BV?$PxVec3T@M@1@AEBV21@@Z 000000018000b510 f i GuSweepMTD.obj
 0001:0000a510       ?rotate@Box@Gu@physx@@QEBA?AV?$PxVec3T@M@3@AEBV43@@Z 000000018000b510 f i GuBox.obj
 0001:0000a5a0       ?rotateInv@Box@Gu@physx@@QEBA?AV?$PxVec3T@M@3@AEBV43@@Z 000000018000b5a0 f i GuBox.obj
 0001:0000a630       ?setAxes@Box@Gu@physx@@QEAAXAEBV?$PxVec3T@M@3@00@Z 000000018000b630 f i GuBox.obj
 0001:0000a670       ?setEmpty@Box@Gu@physx@@QEAAXXZ 000000018000b670 f i GuBox.obj
 0001:0000a6b0       ?transform@Box@Gu@physx@@QEBA?AV?$PxVec3T@M@3@AEBV43@@Z 000000018000b6b0 f i GuBox.obj
 0001:0000a750       ?computeBoxAroundCapsule@Gu@physx@@YAXAEBVCapsule@12@AEAVBox@12@@Z 000000018000b750 f   GuCapsule.obj
 0001:0000aa20       ??0HeightFieldData@Gu@physx@@QEAA@$$QEAU012@@Z 000000018000ba20 f i GuCCTSweepTests.obj
 0001:0000aa20       ??0HeightFieldData@Gu@physx@@QEAA@AEBU012@@Z 000000018000ba20 f i GuCCTSweepTests.obj
 0001:0000aa20       ??4HeightFieldData@Gu@physx@@QEAAAEAU012@$$QEAU012@@Z 000000018000ba20 f i GuCCTSweepTests.obj
 0001:0000aa20       ??4HeightFieldData@Gu@physx@@QEAAAEAU012@AEBU012@@Z 000000018000ba20 f i GuCCTSweepTests.obj
 0001:0000aa80       ??0HeightFieldData@Gu@physx@@QEAA@XZ 000000018000ba80 f i GuCCTSweepTests.obj
 0001:0000aa90       ??0HeightFieldTraceUtil@Gu@physx@@QEAA@AEBVPxHeightFieldGeometry@2@@Z 000000018000ba90 f i GuCCTSweepTests.obj
 0001:0000aa90       ??0HeightFieldUtil@Gu@physx@@QEAA@AEBVPxHeightFieldGeometry@2@@Z 000000018000ba90 f i GuCCTSweepTests.obj
 0001:0000aad0       ??4AABBTreeBuildParams@Gu@physx@@QEAAAEAV012@AEBV012@@Z 000000018000bad0 f i GuMeshFactory.obj
 0001:0000aad0       ??4HeightFieldTraceUtil@Gu@physx@@QEAAAEAV012@$$QEAV012@@Z 000000018000bad0 f i GuCCTSweepTests.obj
 0001:0000aad0       ??4HeightFieldTraceUtil@Gu@physx@@QEAAAEAV012@AEBV012@@Z 000000018000bad0 f i GuCCTSweepTests.obj
 0001:0000aad0       ??4HeightFieldUtil@Gu@physx@@QEAAAEAV012@AEBV012@@Z 000000018000bad0 f i GuCCTSweepTests.obj
 0001:0000aaf0       ??4HeightFieldUtil@Gu@physx@@QEAAAEAV012@$$QEAV012@@Z 000000018000baf0 f i GuCCTSweepTests.obj
 0001:0000ab50       ??_EEntityReport@Gu@physx@@UEAAPEAXI@Z 000000018000bb50 f i GuSweepsHF.obj
 0001:0000ab50       ??_EOverlapCallback@PxBVH@physx@@UEAAPEAXI@Z 000000018000bb50 f i GuQuerySystem.obj
 0001:0000ab50       ??_EOverlapReport@Gu@physx@@UEAAPEAXI@Z 000000018000bb50 f i GuCCTSweepTests.obj
 0001:0000ab50       ??_ERaycastCallback@PxBVH@physx@@UEAAPEAXI@Z 000000018000bb50 f i GuQuerySystem.obj
 0001:0000ab50       ??_ERemapCallback@RTreeCooker@physx@@UEAAPEAXI@Z 000000018000bb50 f i GuCookingTriangleMesh.obj
 0001:0000ab50       ??_GEntityReport@Gu@physx@@UEAAPEAXI@Z 000000018000bb50 f i GuSweepsHF.obj
 0001:0000ab50       ??_GOverlapCallback@PxBVH@physx@@UEAAPEAXI@Z 000000018000bb50 f i GuQuerySystem.obj
 0001:0000ab50       ??_GOverlapReport@Gu@physx@@UEAAPEAXI@Z 000000018000bb50 f i GuCCTSweepTests.obj
 0001:0000ab50       ??_GRaycastCallback@PxBVH@physx@@UEAAPEAXI@Z 000000018000bb50 f i GuQuerySystem.obj
 0001:0000ab50       ??_GRemapCallback@RTreeCooker@physx@@UEAAPEAXI@Z 000000018000bb50 f i GuCookingTriangleMesh.obj
 0001:0000ab80       ??_H@YAXPEAX_K1P6APEAX0@Z@Z 000000018000bb80 f i GuCCTSweepTests.obj
 0001:0000abd0       ?ceilUp@HeightFieldTraceUtil@Gu@physx@@SAMM@Z 000000018000bbd0 f i GuCCTSweepTests.obj
 0001:0000ac10       ?floorDown@HeightFieldTraceUtil@Gu@physx@@SAMM@Z 000000018000bc10 f i GuCCTSweepTests.obj
 0001:0000ac50       ?getHeightAtShapePoint@HeightFieldUtil@Gu@physx@@QEBAMMM@Z 000000018000bc50 f i GuCCTSweepTests.obj
 0001:0000acb0       ?getHeightInternal2@HeightField@Gu@physx@@QEBAMIMM@Z 000000018000bcb0 f i GuCCTSweepTests.obj
 0001:0000ae20       ?getNormalAtShapePoint@HeightFieldUtil@Gu@physx@@QEBA?AV?$PxVec3T@M@3@MM@Z 000000018000be20 f i GuCCTSweepTests.obj
 0001:0000aee0       ?getNormal_2@HeightField@Gu@physx@@QEBA?AV?$PxVec3T@M@3@IMMMMM@Z 000000018000bee0 f i GuCCTSweepTests.obj
 0001:0000aff0       ?getOneOverColumnScale@HeightFieldUtil@Gu@physx@@QEBAMXZ 000000018000bff0 f i GuCCTSweepTests.obj
 0001:0000b000       ?getOneOverHeightScale@HeightFieldUtil@Gu@physx@@QEBAMXZ 000000018000c000 f i GuCCTSweepTests.obj
 0001:0000b010       ?getOneOverRowScale@HeightFieldUtil@Gu@physx@@QEBAMXZ 000000018000c010 f i GuCCTSweepTests.obj
 0001:0000b020       ?hf2shapen@HeightFieldUtil@Gu@physx@@QEBA?AV?$PxVec3T@M@3@AEBV43@@Z 000000018000c020 f i GuCCTSweepTests.obj
 0001:0000b020       ?shape2hfp@HeightFieldUtil@Gu@physx@@QEBA?AV?$PxVec3T@M@3@AEBV43@@Z 000000018000c020 f i GuCCTSweepTests.obj
 0001:0000b060       ?hf2shapep@HeightFieldUtil@Gu@physx@@QEBA?AV?$PxVec3T@M@3@AEBV43@@Z 000000018000c060 f i GuCCTSweepTests.obj
 0001:0000b0a0       ?hf2worldn@HeightFieldUtil@Gu@physx@@QEBA?AV?$PxVec3T@M@3@AEBV?$PxTransformT@M@3@AEBV43@@Z 000000018000c0a0 f i GuCCTSweepTests.obj
 0001:0000b210       ?hf2worldp@HeightFieldUtil@Gu@physx@@QEBA?AV?$PxVec3T@M@3@AEBV?$PxTransformT@M@3@AEBV43@@Z 000000018000c210 f i GuCCTSweepTests.obj
 0001:0000b390       ?overlapAABBTriangles0to1@HeightFieldUtil@Gu@physx@@QEBAXAEBV?$PxTransformT@M@3@AEBVPxBounds3@3@AEAVOverlapReport@23@I@Z 000000018000c390 f i GuCCTSweepTests.obj
 0001:0000b6e0       ?overlapAABBTriangles@HeightFieldUtil@Gu@physx@@QEBAXAEBV?$PxTransformT@M@3@0AEBVPxBounds3@3@AEAVOverlapReport@23@I@Z 000000018000c6e0 f i GuCCTSweepTests.obj
 0001:0000bcd0       ?overlapAABBTriangles@HeightFieldUtil@Gu@physx@@QEBAXAEBV?$PxTransformT@M@3@AEBVPxBounds3@3@AEAVOverlapReport@23@I@Z 000000018000ccd0 f i GuCCTSweepTests.obj
 0001:0000c320       ?sweepBoxTriangles_Precise@Gu@physx@@YA_NIPEBVPxTriangle@2@_NAEBVPxBoxGeometry@2@AEBV?$PxTransformT@M@2@AEBV?$PxVec3T@M@2@MAEAUPxGeomSweepHit@2@PEBIMV?$PxFlags@W4Enum@PxHitFlag@physx@@G@2@@Z 000000018000d320 f   GuCCTSweepTests.obj
 0001:0000d0b0       ?sweepBox_BoxGeom_Precise@@YA_NAEBVPxGeometry@physx@@AEBV?$PxTransformT@M@2@AEBVPxBoxGeometry@2@1AEBVBox@Gu@2@AEBV?$PxVec3T@M@2@MAEAUPxGeomSweepHit@2@V?$PxFlags@W4Enum@PxHitFlag@physx@@G@2@MPEAUPxQueryThreadContext@2@@Z 000000018000e0b0 f   GuCCTSweepTests.obj
 0001:0000d270       ?sweepBox_CapsuleGeom_Precise@@YA_NAEBVPxGeometry@physx@@AEBV?$PxTransformT@M@2@AEBVPxBoxGeometry@2@1AEBVBox@Gu@2@AEBV?$PxVec3T@M@2@MAEAUPxGeomSweepHit@2@V?$PxFlags@W4Enum@PxHitFlag@physx@@G@2@MPEAUPxQueryThreadContext@2@@Z 000000018000e270 f   GuCCTSweepTests.obj
 0001:0000d640       ?sweepBox_HeightFieldGeom_Precise@@YA_NAEBVPxGeometry@physx@@AEBV?$PxTransformT@M@2@AEBVPxBoxGeometry@2@1AEBVBox@Gu@2@AEBV?$PxVec3T@M@2@MAEAUPxGeomSweepHit@2@V?$PxFlags@W4Enum@PxHitFlag@physx@@G@2@MPEAUPxQueryThreadContext@2@@Z 000000018000e640 f   GuCCTSweepTests.obj
 0001:0000de30       ?sweepBox_SphereGeom_Precise@@YA_NAEBVPxGeometry@physx@@AEBV?$PxTransformT@M@2@AEBVPxBoxGeometry@2@1AEBVBox@Gu@2@AEBV?$PxVec3T@M@2@MAEAUPxGeomSweepHit@2@V?$PxFlags@W4Enum@PxHitFlag@physx@@G@2@MPEAUPxQueryThreadContext@2@@Z 000000018000ee30 f   GuCCTSweepTests.obj
 0001:0000e100       ?sweepCapsule_BoxGeom_Precise@@YA_NAEBVPxGeometry@physx@@AEBV?$PxTransformT@M@2@AEBVPxCapsuleGeometry@2@1AEBVCapsule@Gu@2@AEBV?$PxVec3T@M@2@MAEAUPxGeomSweepHit@2@V?$PxFlags@W4Enum@PxHitFlag@physx@@G@2@MPEAUPxQueryThreadContext@2@@Z 000000018000f100 f   GuCCTSweepTests.obj
 0001:0000e770       ??0?$CacheMap@UCachedEdge@Gu@physx@@$0IA@@Gu@physx@@QEAA@XZ 000000018000f770 f i GuGeometryQuery.obj
 0001:0000e830       ??0?$CacheMap@UCachedVertex@Gu@physx@@$0IA@@Gu@physx@@QEAA@XZ 000000018000f830 f i GuGeometryQuery.obj
 0001:0000e8f0       ??0MultiplePersistentContactManifold@Gu@physx@@QEAA@XZ 000000018000f8f0 f i GuGeometryQuery.obj
 0001:0000e950       ??0PCMMeshContactGeneration@Gu@physx@@QEAA@AEBT__m128@@0AEBVPxTransformV@aos@2@1AEAVMultiplePersistentContactManifold@12@AEAVPxContactBuffer@2@PEAV?$PxInlineArray@I$0DMA@V?$PxReflectionAllocator@I@physx@@@2@PEAVPxRenderOutput@2@@Z 000000018000f950 f i GuGeometryQuery.obj
 0001:0000f280       ??4MultiplePersistentContactManifold@Gu@physx@@QEAAAEAV012@$$QEAV012@@Z 0000000180010280 f i GuGeometryQuery.obj
 0001:0000f590       ??4MultiplePersistentContactManifold@Gu@physx@@QEAAAEAV012@AEBV012@@Z 0000000180010590 f i GuGeometryQuery.obj
 0001:0000f5b0       ??_E?$SupportLocalImpl@VBoxV@Gu@physx@@@Gu@physx@@UEAAPEAXI@Z 00000001800105b0 f i GuGeometryQuery.obj
 0001:0000f5b0       ??_E?$SupportLocalImpl@VConvexHullNoScaleV@Gu@physx@@@Gu@physx@@UEAAPEAXI@Z 00000001800105b0 f i GuMTD.obj
 0001:0000f5b0       ??_E?$SupportLocalImpl@VConvexHullV@Gu@physx@@@Gu@physx@@UEAAPEAXI@Z 00000001800105b0 f i GuGeometryQuery.obj
 0001:0000f5b0       ??_E?$SupportLocalImpl@VTriangleV@Gu@physx@@@Gu@physx@@UEAAPEAXI@Z 00000001800105b0 f i GuPCMContactConvexCommon.obj
 0001:0000f5b0       ??_G?$SupportLocalImpl@VBoxV@Gu@physx@@@Gu@physx@@UEAAPEAXI@Z 00000001800105b0 f i GuGeometryQuery.obj
 0001:0000f5b0       ??_G?$SupportLocalImpl@VConvexHullNoScaleV@Gu@physx@@@Gu@physx@@UEAAPEAXI@Z 00000001800105b0 f i GuMTD.obj
 0001:0000f5b0       ??_G?$SupportLocalImpl@VConvexHullV@Gu@physx@@@Gu@physx@@UEAAPEAXI@Z 00000001800105b0 f i GuGeometryQuery.obj
 0001:0000f5b0       ??_G?$SupportLocalImpl@VTriangleV@Gu@physx@@@Gu@physx@@UEAAPEAXI@Z 00000001800105b0 f i GuPCMContactConvexCommon.obj
 0001:0000f5e0       ??_ESupportLocal@Gu@physx@@UEAAPEAXI@Z 00000001800105e0 f i GuGeometryQuery.obj
 0001:0000f5e0       ??_GSupportLocal@Gu@physx@@UEAAPEAXI@Z 00000001800105e0 f i GuGeometryQuery.obj
 0001:0000f610       ?clearManifold@MultiplePersistentContactManifold@Gu@physx@@QEAAXXZ 0000000180010610 f i GuGeometryQuery.obj
 0001:0000f670       ?computeGeomBounds@PxGeometryQuery@physx@@SAXAEAVPxBounds3@2@AEBVPxGeometry@2@AEBV?$PxTransformT@M@2@MMV?$PxFlags@W4Enum@PxGeometryQueryFlag@physx@@I@2@@Z 0000000180010670 f   GuGeometryQuery.obj
 0001:0000f6e0       ?computePenetration@PxGeometryQuery@physx@@SA_NAEAV?$PxVec3T@M@2@AEAMAEBVPxGeometry@2@AEBV?$PxTransformT@M@2@23V?$PxFlags@W4Enum@PxGeometryQueryFlag@physx@@I@2@@Z 00000001800106e0 f   GuGeometryQuery.obj
 0001:0000f850       ?doSupport@?$SupportLocalImpl@VBoxV@Gu@physx@@@Gu@physx@@UEBA?AT__m128@@AEBT4@@Z 0000000180010850 f i GuGeometryQuery.obj
 0001:0000f880       ?doSupport@?$SupportLocalImpl@VBoxV@Gu@physx@@@Gu@physx@@UEBAXAEBT__m128@@AEAT4@1@Z 0000000180010880 f i GuGeometryQuery.obj
 0001:0000f8d0       ?doSupport@?$SupportLocalImpl@VConvexHullV@Gu@physx@@@Gu@physx@@UEBA?AT__m128@@AEBT4@@Z 00000001800108d0 f i GuGeometryQuery.obj
 0001:0000f9b0       ?doSupport@?$SupportLocalImpl@VConvexHullV@Gu@physx@@@Gu@physx@@UEBAXAEBT__m128@@AEAT4@1@Z 00000001800109b0 f i GuGeometryQuery.obj
 0001:0000fd10       ?generateTriangleContacts@PxGeometryQuery@physx@@SA_NAEBVPxGeometry@2@AEBV?$PxTransformT@M@2@QEBV?$PxVec3T@M@2@IMMMAEAVPxContactBuffer@2@@Z 0000000180010d10 f   GuGeometryQuery.obj
 0001:000116c0       ?getEmptyManifold@MultiplePersistentContactManifold@Gu@physx@@QEAAPEAVSinglePersistentContactManifold@23@XZ 00000001800126c0 f i GuGeometryQuery.obj
 0001:000116e0       ?getManifold@MultiplePersistentContactManifold@Gu@physx@@QEAAPEAVSinglePersistentContactManifold@23@I@Z 00000001800126e0 f i GuGeometryQuery.obj
 0001:000116e0       ?getManifold@MultiplePersistentContactManifold@Gu@physx@@QEBAPEBVSinglePersistentContactManifold@23@I@Z 00000001800126e0 f i GuGeometryQuery.obj
 0001:00011700       ?getUniqueID@PxCustomGeometry@physx@@SAIXZ 0000000180012700 f   GuGeometryQuery.obj
 0001:00011720       ?hillClimbing@ConvexHullV@Gu@physx@@QEBAIAEBT__m128@@@Z 0000000180012720 f i GuGeometryQuery.obj
 0001:00011950       ?initialize@MultiplePersistentContactManifold@Gu@physx@@QEAAXXZ 0000000180012950 f i GuGeometryQuery.obj
 0001:000119b0       ?invalidate@MultiplePersistentContactManifold@Gu@physx@@QEBAIAEBVPxTransformV@aos@3@AEBT__m128@@1@Z 00000001800129b0 f i GuGeometryQuery.obj
 0001:00011a20       ?invalidate@MultiplePersistentContactManifold@Gu@physx@@QEBAIAEBVPxTransformV@aos@3@AEBT__m128@@@Z 0000000180012a20 f i GuGeometryQuery.obj
 0001:00011a90       ?isUnit@?$PxQuatT@M@physx@@QEBA_NXZ 0000000180012a90 f i GuGeometryQuery.obj
 0001:00011b50       ?isValid@PxGeometryQuery@physx@@SA_NAEBVPxGeometry@2@@Z 0000000180012b50 f   GuGeometryQuery.obj
 0001:00011e60       ?maxTransformPositionDelta@MultiplePersistentContactManifold@Gu@physx@@QEBA?AT__m128@@AEBT4@@Z 0000000180012e60 f i GuGeometryQuery.obj
 0001:00011ea0       ?overlap@PxGeometryQuery@physx@@SA_NAEBVPxGeometry@2@AEBV?$PxTransformT@M@2@01V?$PxFlags@W4Enum@PxGeometryQueryFlag@physx@@I@2@PEAUPxQueryThreadContext@2@@Z 0000000180012ea0 f   GuGeometryQuery.obj
 0001:00011f70       ?pointDistance@PxGeometryQuery@physx@@SAMAEBV?$PxVec3T@M@2@AEBVPxGeometry@2@AEBV?$PxTransformT@M@2@PEAV32@PEAIV?$PxFlags@W4Enum@PxGeometryQueryFlag@physx@@I@2@@Z 0000000180012f70 f   GuGeometryQuery.obj
 0001:00012700       ?populateVerts@?$SupportLocalImpl@VBoxV@Gu@physx@@@Gu@physx@@UEBAXPEBEIPEBV?$PxVec3T@M@3@PEAT__m128@@@Z 0000000180013700 f i GuGeometryQuery.obj
 0001:00012740       ?populateVerts@?$SupportLocalImpl@VConvexHullV@Gu@physx@@@Gu@physx@@UEBAXPEBEIPEBV?$PxVec3T@M@3@PEAT__m128@@@Z 0000000180013740 f i GuGeometryQuery.obj
 0001:000127a0       ?raycast@PxGeometryQuery@physx@@SAIAEBV?$PxVec3T@M@2@0AEBVPxGeometry@2@AEBV?$PxTransformT@M@2@MV?$PxFlags@W4Enum@PxHitFlag@physx@@G@2@IPEIAUPxGeomRaycastHit@2@IV?$PxFlags@W4Enum@PxGeometryQueryFlag@physx@@I@2@PEAUPxQueryThreadContext@2@@Z 00000001800137a0 f   GuGeometryQuery.obj
 0001:000128a0       ?reduceManifoldContactsInDifferentPatches@MultiplePersistentContactManifold@Gu@physx@@QEBAIPEAPEAUPCMContactPatch@23@IPEAVMeshPersistentContact@23@IAEBT__m128@@@Z 00000001800138a0 f i GuGeometryQuery.obj
 0001:00012a10       ?refineContactPatchConnective@MultiplePersistentContactManifold@Gu@physx@@QEBAXPEAPEAUPCMContactPatch@23@IPEAVMeshPersistentContact@23@AEBT__m128@@@Z 0000000180013a10 f i GuGeometryQuery.obj
 0001:00012b00       ?refreshManifold@MultiplePersistentContactManifold@Gu@physx@@QEAAXAEBVPxMatTransformV@aos@3@AEBT__m128@@1@Z 0000000180013b00 f i GuGeometryQuery.obj
 0001:00012c00       ?setRelativeTransform@MultiplePersistentContactManifold@Gu@physx@@QEAAXAEBVPxTransformV@aos@3@@Z 0000000180013c00 f i GuGeometryQuery.obj
 0001:00012c10       ?supportVertexIndex@ConvexHullV@Gu@physx@@QEBAIAEBT__m128@@@Z 0000000180013c10 f i GuGeometryQuery.obj
 0001:00012e70       ?sweep@PxGeometryQuery@physx@@SA_NAEBV?$PxVec3T@M@2@MAEBVPxGeometry@2@AEBV?$PxTransformT@M@2@12AEAUPxGeomSweepHit@2@V?$PxFlags@W4Enum@PxHitFlag@physx@@G@2@MV?$PxFlags@W4Enum@PxGeometryQueryFlag@physx@@I@2@PEAUPxQueryThreadContext@2@@Z 0000000180013e70 f   GuGeometryQuery.obj
 0001:00013290       ?computeBoxPoints@Gu@physx@@YAXAEBVPxBounds3@2@PEIAV?$PxVec3T@M@2@@Z 0000000180014290 f   GuInternal.obj
 0001:00013330       ?computeSweptBox@Gu@physx@@YAXAEAVBox@12@AEBV?$PxVec3T@M@2@1AEBV?$PxMat33T@M@2@1M@Z 0000000180014330 f   GuInternal.obj
 0001:00013870       ?getPlane@Gu@physx@@YA?AVPxPlane@2@AEBV?$PxTransformT@M@2@@Z 0000000180014870 f   GuInternal.obj
 0001:00013cc0       ??_ECallbackRaycast@RTree@Gu@physx@@UEAAPEAXI@Z 0000000180014cc0 f i GuMidphaseRTree.obj
 0001:00013cc0       ??_ECallbackRefit@RTree@Gu@physx@@UEAAPEAXI@Z 0000000180014cc0 f i GuTriangleMeshRTree.obj
 0001:00013cc0       ??_EPxInsertionCallback@physx@@MEAAPEAXI@Z 0000000180014cc0 f i GuMeshFactory.obj
 0001:00013cc0       ??_GCallbackRaycast@RTree@Gu@physx@@UEAAPEAXI@Z 0000000180014cc0 f i GuMidphaseRTree.obj
 0001:00013cc0       ??_GCallbackRefit@RTree@Gu@physx@@UEAAPEAXI@Z 0000000180014cc0 f i GuTriangleMeshRTree.obj
 0001:00013cc0       ??_GPxInsertionCallback@physx@@MEAAPEAXI@Z 0000000180014cc0 f i GuMeshFactory.obj
 0001:00013cf0       ??$copy@V?$PxReflectionAllocator@USlab@NodeAllocator@Gu@physx@@@physx@@@?$PxArray@USlab@NodeAllocator@Gu@physx@@V?$PxReflectionAllocator@USlab@NodeAllocator@Gu@physx@@@4@@physx@@IEAAXAEBV01@@Z 0000000180014cf0 f i GuMeshFactory.obj
 0001:00013dc0       ??0AABBTreeBounds@Gu@physx@@QEAA@XZ 0000000180014dc0 f i GuMeshFactory.obj
 0001:00013dd0       ??0AABBTreeBuildNode@Gu@physx@@QEAA@AEBV012@@Z 0000000180014dd0 f i GuMeshFactory.obj
 0001:00013dd0       ??4AABBTreeBuildNode@Gu@physx@@QEAAAEAV012@AEBV012@@Z 0000000180014dd0 f i GuMeshFactory.obj
 0001:00013e10       ??0AABBTreeBuildParams@Gu@physx@@QEAA@IIPEBVAABBTreeBounds@12@W4BVHBuildStrategy@12@@Z 0000000180014e10 f i GuMeshFactory.obj
 0001:00013e30       ??0MeshFactory@Gu@physx@@QEAA@XZ 0000000180014e30 f   GuMeshFactory.obj
 0001:00014030       ??0NodeAllocator@Gu@physx@@QEAA@AEBV012@@Z 0000000180015030 f i GuMeshFactory.obj
 0001:00014070       ??0TriangleMeshData@Gu@physx@@QEAA@XZ 0000000180015070 f i GuMeshFactory.obj
 0001:00014190       ??1AABBTreeBounds@Gu@physx@@QEAA@XZ 0000000180015190 f i GuMeshFactory.obj
 0001:000141a0       ??1AABBTreeBuildParams@Gu@physx@@QEAA@XZ 00000001800151a0 f i GuMeshFactory.obj
 0001:000141a0       ?reset@AABBTreeBuildParams@Gu@physx@@QEAAXXZ 00000001800151a0 f i GuMeshFactory.obj
 0001:000141f0       ??1CollisionMeshMappingData@Gu@physx@@UEAA@XZ 00000001800151f0 f i GuMeshFactory.obj
 0001:00014350       ??1DeformableVolumeCollisionData@Gu@physx@@UEAA@XZ 0000000180015350 f i GuMeshFactory.obj
 0001:000144a0       ??1DeformableVolumeSimulationData@Gu@physx@@UEAA@XZ 00000001800154a0 f i GuMeshFactory.obj
 0001:000145e0       ??1MeshDataBase@Gu@physx@@UEAA@XZ 00000001800155e0 f i GuMeshFactory.obj
 0001:00014740       ??1MeshFactory@Gu@physx@@MEAA@XZ 0000000180015740 f   GuMeshFactory.obj
 0001:000148a0       ??1RTreeTriangleData@Gu@physx@@UEAA@XZ 00000001800158a0 f i GuMeshFactory.obj
 0001:00014910       ??1TetrahedronMeshData@Gu@physx@@QEAA@XZ 0000000180015910 f i GuMeshFactory.obj
 0001:000149a0       ??1TriangleMeshData@Gu@physx@@UEAA@XZ 00000001800159a0 f i GuMeshFactory.obj
 0001:00014ae0       ??4NodeAllocator@Gu@physx@@QEAAAEAV012@AEBV012@@Z 0000000180015ae0 f i GuMeshFactory.obj
 0001:00014b90       ??_EMeshFactory@Gu@physx@@MEAAPEAXI@Z 0000000180015b90 f i GuMeshFactory.obj
 0001:00014cb0       ??_FAABBTreeBuildParams@Gu@physx@@QEAAXXZ 0000000180015cb0 f i GuMeshFactory.obj
 0001:00014cd0       ??_EBV4TriangleData@Gu@physx@@UEAAPEAXI@Z 0000000180015cd0 f i GuMeshFactory.obj
 0001:00014cd0       ??_GBV4TriangleData@Gu@physx@@UEAAPEAXI@Z 0000000180015cd0 f i GuMeshFactory.obj
 0001:00014d60       ??_ECollisionMeshMappingData@Gu@physx@@UEAAPEAXI@Z 0000000180015d60 f i GuMeshFactory.obj
 0001:00014d60       ??_GCollisionMeshMappingData@Gu@physx@@UEAAPEAXI@Z 0000000180015d60 f i GuMeshFactory.obj
 0001:00014dd0       ??_EDeformableVolumeCollisionData@Gu@physx@@UEAAPEAXI@Z 0000000180015dd0 f i GuMeshFactory.obj
 0001:00014dd0       ??_GDeformableVolumeCollisionData@Gu@physx@@UEAAPEAXI@Z 0000000180015dd0 f i GuMeshFactory.obj
 0001:00014e40       ??_EDeformableVolumeSimulationData@Gu@physx@@UEAAPEAXI@Z 0000000180015e40 f i GuMeshFactory.obj
 0001:00014e40       ??_GDeformableVolumeSimulationData@Gu@physx@@UEAAPEAXI@Z 0000000180015e40 f i GuMeshFactory.obj
 0001:00014eb0       ??_EMeshDataBase@Gu@physx@@UEAAPEAXI@Z 0000000180015eb0 f i GuMeshFactory.obj
 0001:00014eb0       ??_GMeshDataBase@Gu@physx@@UEAAPEAXI@Z 0000000180015eb0 f i GuMeshFactory.obj
 0001:00014f20       ??_EPxCollisionMeshMappingData@physx@@UEAAPEAXI@Z 0000000180015f20 f i GuMeshFactory.obj
 0001:00014f20       ??_GPxCollisionMeshMappingData@physx@@UEAAPEAXI@Z 0000000180015f20 f i GuMeshFactory.obj
 0001:00014f80       ??_ERTreeTriangleData@Gu@physx@@UEAAPEAXI@Z 0000000180015f80 f i GuMeshFactory.obj
 0001:00014f80       ??_GRTreeTriangleData@Gu@physx@@UEAAPEAXI@Z 0000000180015f80 f i GuMeshFactory.obj
 0001:00015040       ??_ETriangleMeshData@Gu@physx@@UEAAPEAXI@Z 0000000180016040 f i GuMeshFactory.obj
 0001:00015040       ??_GTriangleMeshData@Gu@physx@@UEAAPEAXI@Z 0000000180016040 f i GuMeshFactory.obj
 0001:000150b0       ??_V@YAXPEAX_K@Z           00000001800160b0 f i LIBCMT:delete_array_size.obj
 0001:000150b0       ?__global_delete@@YAXPEAX_K@Z 00000001800160b0 f i GuMeshFactory.obj
 0001:000150c0       ?addBVH@MeshFactory@Gu@physx@@QEAAXPEAVBVH@23@_N@Z 00000001800160c0 f   GuMeshFactory.obj
 0001:00015140       ?addConvexMesh@MeshFactory@Gu@physx@@QEAAXPEAVConvexMesh@23@_N@Z 0000000180016140 f   GuMeshFactory.obj
 0001:000151c0       ?addDeformableVolumeMesh@MeshFactory@Gu@physx@@QEAAXPEAVDeformableVolumeMesh@23@_N@Z 00000001800161c0 f   GuMeshFactory.obj
 0001:00015240       ?addFactoryListener@MeshFactory@Gu@physx@@QEAAXAEAVMeshFactoryListener@23@@Z 0000000180016240 f   GuMeshFactory.obj
 0001:000152b0       ?addHeightField@MeshFactory@Gu@physx@@QEAAXPEAVHeightField@23@_N@Z 00000001800162b0 f   GuMeshFactory.obj
 0001:00015330       ?addTetrahedronMesh@MeshFactory@Gu@physx@@QEAAXPEAVTetrahedronMesh@23@_N@Z 0000000180016330 f   GuMeshFactory.obj
 0001:000153b0       ?addTriangleMesh@MeshFactory@Gu@physx@@QEAAXPEAVTriangleMesh@23@_N@Z 00000001800163b0 f   GuMeshFactory.obj
 0001:00015430       ?allocate@?$PxArray@USlab@NodeAllocator@Gu@physx@@V?$PxReflectionAllocator@USlab@NodeAllocator@Gu@physx@@@4@@physx@@IEAAPEAUSlab@NodeAllocator@Gu@2@IPEAI@Z 0000000180016430 f i GuMeshFactory.obj
 0001:000154c0       ?allocateAdjacencies@TriangleMeshData@Gu@physx@@QEAAPEAIXZ 00000001800164c0 f i GuMeshFactory.obj
 0001:00015530       ?allocateExtraTrigData@TriangleMeshData@Gu@physx@@QEAAPEAEXZ 0000000180016530 f i GuMeshFactory.obj
 0001:000155a0       ?allocateFaceRemap@TriangleMeshData@Gu@physx@@QEAAPEAIXZ 00000001800165a0 f i GuMeshFactory.obj
 0001:00015610       ?allocateGridModelData@DeformableVolumeSimulationData@Gu@physx@@QEAAXIIIIIII@Z 0000000180016610 f i GuMeshFactory.obj
 0001:00015890       ?allocateMaterials@TetrahedronMeshData@Gu@physx@@QEAAPEAGXZ 0000000180016890 f i GuMeshFactory.obj
 0001:00015900       ?allocateMaterials@TriangleMeshData@Gu@physx@@QEAAPEAGXZ 0000000180016900 f i GuMeshFactory.obj
 0001:00015970       ?allocateTetrahedrons@TetrahedronMeshData@Gu@physx@@QEAAXII@Z 0000000180016970 f i GuMeshFactory.obj
 0001:00015a00       ?allocateTriangles@TriangleMeshData@Gu@physx@@QEAAPEAXI_NI@Z 0000000180016a00 f i GuMeshFactory.obj
 0001:00015af0       ?allocateVertices@MeshDataBase@Gu@physx@@QEAAPEAV?$PxVec3T@M@3@I@Z 0000000180016af0 f i GuMeshFactory.obj
 0001:00015b60       ?allocateVertices@TetrahedronMeshData@Gu@physx@@QEAAPEAV?$PxVec3T@M@3@II@Z 0000000180016b60 f i GuMeshFactory.obj
 0001:00015c00       ?allocatemappingData@CollisionMeshMappingData@Gu@physx@@QEAAXIIII@Z 0000000180016c00 f i GuMeshFactory.obj
 0001:00015df0       ?create@?$PxHashBase@PEAVBVH@Gu@physx@@PEAV123@U?$PxHash@PEAVBVH@Gu@physx@@@3@UGetKey@?$PxHashSetBase@PEAVBVH@Gu@physx@@U?$PxHash@PEAVBVH@Gu@physx@@@3@VPxAllocator@3@$00@3@VPxAllocator@3@$00@physx@@QEAAPEAPEAVBVH@Gu@2@AEBQEAV342@AEA_N@Z 0000000180016df0 f i GuMeshFactory.obj
 0001:00015df0       ?create@?$PxHashBase@PEAVConvexMesh@Gu@physx@@PEAV123@U?$PxHash@PEAVConvexMesh@Gu@physx@@@3@UGetKey@?$PxHashSetBase@PEAVConvexMesh@Gu@physx@@U?$PxHash@PEAVConvexMesh@Gu@physx@@@3@VPxAllocator@3@$00@3@VPxAllocator@3@$00@physx@@QEAAPEAPEAVConvexMesh@Gu@2@AEBQEAV342@AEA_N@Z 0000000180016df0 f i GuMeshFactory.obj
 0001:00015df0       ?create@?$PxHashBase@PEAVDeformableVolumeMesh@Gu@physx@@PEAV123@U?$PxHash@PEAVDeformableVolumeMesh@Gu@physx@@@3@UGetKey@?$PxHashSetBase@PEAVDeformableVolumeMesh@Gu@physx@@U?$PxHash@PEAVDeformableVolumeMesh@Gu@physx@@@3@VPxAllocator@3@$00@3@VPxAllocator@3@$00@physx@@QEAAPEAPEAVDeformableVolumeMesh@Gu@2@AEBQEAV342@AEA_N@Z 0000000180016df0 f i GuMeshFactory.obj
 0001:00015df0       ?create@?$PxHashBase@PEAVHeightField@Gu@physx@@PEAV123@U?$PxHash@PEAVHeightField@Gu@physx@@@3@UGetKey@?$PxHashSetBase@PEAVHeightField@Gu@physx@@U?$PxHash@PEAVHeightField@Gu@physx@@@3@VPxAllocator@3@$00@3@VPxAllocator@3@$00@physx@@QEAAPEAPEAVHeightField@Gu@2@AEBQEAV342@AEA_N@Z 0000000180016df0 f i GuMeshFactory.obj
 0001:00015df0       ?create@?$PxHashBase@PEAVTetrahedronMesh@Gu@physx@@PEAV123@U?$PxHash@PEAVTetrahedronMesh@Gu@physx@@@3@UGetKey@?$PxHashSetBase@PEAVTetrahedronMesh@Gu@physx@@U?$PxHash@PEAVTetrahedronMesh@Gu@physx@@@3@VPxAllocator@3@$00@3@VPxAllocator@3@$00@physx@@QEAAPEAPEAVTetrahedronMesh@Gu@2@AEBQEAV342@AEA_N@Z 0000000180016df0 f i GuMeshFactory.obj
 0001:00015df0       ?create@?$PxHashBase@PEAVTriangleMesh@Gu@physx@@PEAV123@U?$PxHash@PEAVTriangleMesh@Gu@physx@@@3@UGetKey@?$PxHashSetBase@PEAVTriangleMesh@Gu@physx@@U?$PxHash@PEAVTriangleMesh@Gu@physx@@@3@VPxAllocator@3@$00@3@VPxAllocator@3@$00@physx@@QEAAPEAPEAVTriangleMesh@Gu@2@AEBQEAV342@AEA_N@Z 0000000180016df0 f i GuMeshFactory.obj
 0001:00015f80       ?createBVH@MeshFactory@Gu@physx@@IEAAPEAVPxBVH@3@AEAVBVHData@23@@Z 0000000180016f80 f   GuMeshFactory.obj
 0001:00016070       ?createBVH@MeshFactory@Gu@physx@@QEAAPEAVPxBVH@3@AEAVPxInputStream@3@@Z 0000000180017070 f   GuMeshFactory.obj
 0001:00016190       ?createBVH@MeshFactory@Gu@physx@@QEAAPEAVPxBVH@3@PEAX@Z 0000000180017190 f   GuMeshFactory.obj
 0001:000161a0       ?createConvexMesh@MeshFactory@Gu@physx@@IEAAPEAVPxConvexMesh@3@AEAUConvexHullInitData@23@@Z 00000001800171a0 f   GuMeshFactory.obj
 0001:00016290       ?createConvexMesh@MeshFactory@Gu@physx@@QEAAPEAVPxConvexMesh@3@AEAVPxInputStream@3@@Z 0000000180017290 f   GuMeshFactory.obj
 0001:000163b0       ?createConvexMesh@MeshFactory@Gu@physx@@QEAAPEAVPxConvexMesh@3@PEAX@Z 00000001800173b0 f   GuMeshFactory.obj
 0001:000163c0       ?createDeformableVolumeMesh@MeshFactory@Gu@physx@@IEAAPEAVPxDeformableVolumeMesh@3@AEAVDeformableVolumeMeshData@23@@Z 00000001800173c0 f   GuMeshFactory.obj
 0001:000164b0       ?createDeformableVolumeMesh@MeshFactory@Gu@physx@@QEAAPEAVPxDeformableVolumeMesh@3@AEAVPxInputStream@3@@Z 00000001800174b0 f   GuMeshFactory.obj
 0001:00016b00       ?createDeformableVolumeMesh@MeshFactory@Gu@physx@@QEAAPEAVPxDeformableVolumeMesh@3@PEAX@Z 0000000180017b00 f   GuMeshFactory.obj
 0001:00016b10       ?createHeightField@MeshFactory@Gu@physx@@QEAAPEAVPxHeightField@3@AEAVPxInputStream@3@@Z 0000000180017b10 f   GuMeshFactory.obj
 0001:00016c30       ?createHeightField@MeshFactory@Gu@physx@@QEAAPEAVPxHeightField@3@PEAX@Z 0000000180017c30 f   GuMeshFactory.obj
 0001:00016d20       ?createTetrahedronMesh@MeshFactory@Gu@physx@@IEAAPEAVPxTetrahedronMesh@3@AEAVTetrahedronMeshData@23@@Z 0000000180017d20 f   GuMeshFactory.obj
 0001:00016e10       ?createTetrahedronMesh@MeshFactory@Gu@physx@@QEAAPEAVPxTetrahedronMesh@3@AEAVPxInputStream@3@@Z 0000000180017e10 f   GuMeshFactory.obj
 0001:00016e80       ?createTetrahedronMesh@MeshFactory@Gu@physx@@QEAAPEAVPxTetrahedronMesh@3@PEAX@Z 0000000180017e80 f   GuMeshFactory.obj
 0001:00016e90       ?createTriangleMesh@MeshFactory@Gu@physx@@IEAAPEAVPxTriangleMesh@3@AEAVTriangleMeshData@23@@Z 0000000180017e90 f   GuMeshFactory.obj
 0001:00017010       ?createTriangleMesh@MeshFactory@Gu@physx@@QEAAPEAVPxTriangleMesh@3@AEAVPxInputStream@3@@Z 0000000180018010 f   GuMeshFactory.obj
 0001:00017070       ?createTriangleMesh@MeshFactory@Gu@physx@@QEAAPEAVPxTriangleMesh@3@PEAX@Z 0000000180018070 f   GuMeshFactory.obj
 0001:00017080       ?erase@?$PxHashBase@PEAVBVH@Gu@physx@@PEAV123@U?$PxHash@PEAVBVH@Gu@physx@@@3@UGetKey@?$PxHashSetBase@PEAVBVH@Gu@physx@@U?$PxHash@PEAVBVH@Gu@physx@@@3@VPxAllocator@3@$00@3@VPxAllocator@3@$00@physx@@QEAA_NAEBQEAVBVH@Gu@2@@Z 0000000180018080 f i GuMeshFactory.obj
 0001:00017080       ?erase@?$PxHashBase@PEAVConvexMesh@Gu@physx@@PEAV123@U?$PxHash@PEAVConvexMesh@Gu@physx@@@3@UGetKey@?$PxHashSetBase@PEAVConvexMesh@Gu@physx@@U?$PxHash@PEAVConvexMesh@Gu@physx@@@3@VPxAllocator@3@$00@3@VPxAllocator@3@$00@physx@@QEAA_NAEBQEAVConvexMesh@Gu@2@@Z 0000000180018080 f i GuMeshFactory.obj
 0001:00017080       ?erase@?$PxHashBase@PEAVDeformableVolumeMesh@Gu@physx@@PEAV123@U?$PxHash@PEAVDeformableVolumeMesh@Gu@physx@@@3@UGetKey@?$PxHashSetBase@PEAVDeformableVolumeMesh@Gu@physx@@U?$PxHash@PEAVDeformableVolumeMesh@Gu@physx@@@3@VPxAllocator@3@$00@3@VPxAllocator@3@$00@physx@@QEAA_NAEBQEAVDeformableVolumeMesh@Gu@2@@Z 0000000180018080 f i GuMeshFactory.obj
 0001:00017080       ?erase@?$PxHashBase@PEAVHeightField@Gu@physx@@PEAV123@U?$PxHash@PEAVHeightField@Gu@physx@@@3@UGetKey@?$PxHashSetBase@PEAVHeightField@Gu@physx@@U?$PxHash@PEAVHeightField@Gu@physx@@@3@VPxAllocator@3@$00@3@VPxAllocator@3@$00@physx@@QEAA_NAEBQEAVHeightField@Gu@2@@Z 0000000180018080 f i GuMeshFactory.obj
 0001:00017080       ?erase@?$PxHashBase@PEAVTetrahedronMesh@Gu@physx@@PEAV123@U?$PxHash@PEAVTetrahedronMesh@Gu@physx@@@3@UGetKey@?$PxHashSetBase@PEAVTetrahedronMesh@Gu@physx@@U?$PxHash@PEAVTetrahedronMesh@Gu@physx@@@3@VPxAllocator@3@$00@3@VPxAllocator@3@$00@physx@@QEAA_NAEBQEAVTetrahedronMesh@Gu@2@@Z 0000000180018080 f i GuMeshFactory.obj
 0001:00017080       ?erase@?$PxHashBase@PEAVTriangleMesh@Gu@physx@@PEAV123@U?$PxHash@PEAVTriangleMesh@Gu@physx@@@3@UGetKey@?$PxHashSetBase@PEAVTriangleMesh@Gu@physx@@U?$PxHash@PEAVTriangleMesh@Gu@physx@@@3@VPxAllocator@3@$00@3@VPxAllocator@3@$00@physx@@QEAA_NAEBQEAVTriangleMesh@Gu@2@@Z 0000000180018080 f i GuMeshFactory.obj
 0001:00017200       ?getBVHs@MeshFactory@Gu@physx@@QEBAIPEAPEAVPxBVH@3@II@Z 0000000180018200 f   GuMeshFactory.obj
 0001:000172d0       ?getBounds@AABBTreeBounds@Gu@physx@@QEAAPEAVPxBounds3@3@XZ 00000001800182d0 f i GuMeshFactory.obj
 0001:000172d0       ?getBounds@AABBTreeBounds@Gu@physx@@QEBAPEBVPxBounds3@3@XZ 00000001800182d0 f i GuMeshFactory.obj
 0001:000172e0       ?getConvexMeshes@MeshFactory@Gu@physx@@QEBAIPEAPEAVPxConvexMesh@3@II@Z 00000001800182e0 f   GuMeshFactory.obj
 0001:000173b0       ?getDeformableVolumeMeshes@MeshFactory@Gu@physx@@QEBAIPEAPEAVPxDeformableVolumeMesh@3@II@Z 00000001800183b0 f   GuMeshFactory.obj
 0001:00017480       ?getHeightFields@MeshFactory@Gu@physx@@QEBAIPEAPEAVPxHeightField@3@II@Z 0000000180018480 f   GuMeshFactory.obj
 0001:00017550       ?getNbBVHs@MeshFactory@Gu@physx@@QEBAIXZ 0000000180018550 f   GuMeshFactory.obj
 0001:00017590       ?getNbConvexMeshes@MeshFactory@Gu@physx@@QEBAIXZ 0000000180018590 f   GuMeshFactory.obj
 0001:000175d0       ?getNbDeformableVolumeMeshes@MeshFactory@Gu@physx@@QEBAIXZ 00000001800185d0 f   GuMeshFactory.obj
 0001:00017610       ?getNbHeightFields@MeshFactory@Gu@physx@@QEBAIXZ 0000000180018610 f   GuMeshFactory.obj
 0001:00017650       ?getNbPrimitives@AABBTreeBuildNode@Gu@physx@@QEBAIXZ 0000000180018650 f i GuMeshFactory.obj
 0001:00017650       ?getNbRuntimePrimitives@AABBTreeBuildNode@Gu@physx@@QEBAIXZ 0000000180018650 f i GuMeshFactory.obj
 0001:00017660       ?getNbTetrahedronMeshes@MeshFactory@Gu@physx@@QEBAIXZ 0000000180018660 f   GuMeshFactory.obj
 0001:000176a0       ?getNbTriangleMeshes@MeshFactory@Gu@physx@@QEBAIXZ 00000001800186a0 f   GuMeshFactory.obj
 0001:000176e0       ?getNeg@AABBTreeBuildNode@Gu@physx@@QEBAPEBV123@XZ 00000001800186e0 f i GuMeshFactory.obj
 0001:00017700       ?getPrimitives@AABBTreeBuildNode@Gu@physx@@QEAAPEAIPEAI@Z 0000000180018700 f i GuMeshFactory.obj
 0001:00017700       ?getPrimitives@AABBTreeBuildNode@Gu@physx@@QEBAPEBIPEBI@Z 0000000180018700 f i GuMeshFactory.obj
 0001:00017710       ?getTetrahedronMeshes@MeshFactory@Gu@physx@@QEBAIPEAPEAVPxTetrahedronMesh@3@II@Z 0000000180018710 f   GuMeshFactory.obj
 0001:000177e0       ?getTriangleMeshes@MeshFactory@Gu@physx@@QEBAIPEAPEAVPxTriangleMesh@3@II@Z 00000001800187e0 f   GuMeshFactory.obj
 0001:000178b0       ?growAndPushBack@?$PxArray@PEAVMeshFactoryListener@Gu@physx@@V?$PxReflectionAllocator@PEAVMeshFactoryListener@Gu@physx@@@3@@physx@@IEAAAEAPEAVMeshFactoryListener@Gu@2@AEBQEAV342@@Z 00000001800188b0 f i GuMeshFactory.obj
 0001:000179d0       ?isLeaf@AABBTreeBuildNode@Gu@physx@@QEBA_NXZ 00000001800189d0 f i GuMeshFactory.obj
 0001:000194f0       ?moveFrom@AABBTreeBounds@Gu@physx@@QEAAXAEAV123@@Z 000000018001a4f0 f i GuMeshFactory.obj
 0001:00019500       ?notifyFactoryListener@MeshFactory@Gu@physx@@QEAAXPEBVPxBase@3@G@Z 000000018001a500 f   GuMeshFactory.obj
 0001:00019570       ?ownsMemory@AABBTreeBounds@Gu@physx@@QEBA_NXZ 000000018001a570 f i GuMeshFactory.obj
 0001:00019850       ?recreate@?$PxArray@USlab@NodeAllocator@Gu@physx@@V?$PxReflectionAllocator@USlab@NodeAllocator@Gu@physx@@@4@@physx@@IEAAXI@Z 000000018001a850 f i GuMeshFactory.obj
 0001:00019950       ?release@CollisionMeshMappingData@Gu@physx@@UEAAXXZ 000000018001a950 f i GuMeshFactory.obj
 0001:00019970       ?release@MeshFactory@Gu@physx@@QEAAXXZ 000000018001a970 f   GuMeshFactory.obj
 0001:00019a70       ?remove@MeshFactory@Gu@physx@@QEAA_NAEAVPxBase@3@@Z 000000018001aa70 f   GuMeshFactory.obj
 0001:00019b70       ?removeBVH@MeshFactory@Gu@physx@@QEAA_NAEAVPxBVH@3@@Z 000000018001ab70 f   GuMeshFactory.obj
 0001:00019bc0       ?removeConvexMesh@MeshFactory@Gu@physx@@QEAA_NAEAVPxConvexMesh@3@@Z 000000018001abc0 f   GuMeshFactory.obj
 0001:00019c10       ?removeDeformableVolumeMesh@MeshFactory@Gu@physx@@QEAA_NAEAVPxDeformableVolumeMesh@3@@Z 000000018001ac10 f   GuMeshFactory.obj
 0001:00019c60       ?removeFactoryListener@MeshFactory@Gu@physx@@QEAAXAEAVMeshFactoryListener@23@@Z 000000018001ac60 f   GuMeshFactory.obj
 0001:00019ce0       ?removeHeightField@MeshFactory@Gu@physx@@QEAA_NAEAVPxHeightField@3@@Z 000000018001ace0 f   GuMeshFactory.obj
 0001:00019d30       ?removeTetrahedronMesh@MeshFactory@Gu@physx@@QEAA_NAEAVPxTetrahedronMesh@3@@Z 000000018001ad30 f   GuMeshFactory.obj
 0001:00019d80       ?removeTriangleMesh@MeshFactory@Gu@physx@@QEAA_NAEAVPxTriangleMesh@3@@Z 000000018001ad80 f   GuMeshFactory.obj
 0001:00019dd0       ?reserveInternal@?$PxHashBase@PEAVBVH@Gu@physx@@PEAV123@U?$PxHash@PEAVBVH@Gu@physx@@@3@UGetKey@?$PxHashSetBase@PEAVBVH@Gu@physx@@U?$PxHash@PEAVBVH@Gu@physx@@@3@VPxAllocator@3@$00@3@VPxAllocator@3@$00@physx@@AEAAXI@Z 000000018001add0 f i GuMeshFactory.obj
 0001:00019dd0       ?reserveInternal@?$PxHashBase@PEAVConvexMesh@Gu@physx@@PEAV123@U?$PxHash@PEAVConvexMesh@Gu@physx@@@3@UGetKey@?$PxHashSetBase@PEAVConvexMesh@Gu@physx@@U?$PxHash@PEAVConvexMesh@Gu@physx@@@3@VPxAllocator@3@$00@3@VPxAllocator@3@$00@physx@@AEAAXI@Z 000000018001add0 f i GuMeshFactory.obj
 0001:00019dd0       ?reserveInternal@?$PxHashBase@PEAVDeformableVolumeMesh@Gu@physx@@PEAV123@U?$PxHash@PEAVDeformableVolumeMesh@Gu@physx@@@3@UGetKey@?$PxHashSetBase@PEAVDeformableVolumeMesh@Gu@physx@@U?$PxHash@PEAVDeformableVolumeMesh@Gu@physx@@@3@VPxAllocator@3@$00@3@VPxAllocator@3@$00@physx@@AEAAXI@Z 000000018001add0 f i GuMeshFactory.obj
 0001:00019dd0       ?reserveInternal@?$PxHashBase@PEAVHeightField@Gu@physx@@PEAV123@U?$PxHash@PEAVHeightField@Gu@physx@@@3@UGetKey@?$PxHashSetBase@PEAVHeightField@Gu@physx@@U?$PxHash@PEAVHeightField@Gu@physx@@@3@VPxAllocator@3@$00@3@VPxAllocator@3@$00@physx@@AEAAXI@Z 000000018001add0 f i GuMeshFactory.obj
 0001:00019dd0       ?reserveInternal@?$PxHashBase@PEAVTetrahedronMesh@Gu@physx@@PEAV123@U?$PxHash@PEAVTetrahedronMesh@Gu@physx@@@3@UGetKey@?$PxHashSetBase@PEAVTetrahedronMesh@Gu@physx@@U?$PxHash@PEAVTetrahedronMesh@Gu@physx@@@3@VPxAllocator@3@$00@3@VPxAllocator@3@$00@physx@@AEAAXI@Z 000000018001add0 f i GuMeshFactory.obj
 0001:00019dd0       ?reserveInternal@?$PxHashBase@PEAVTriangleMesh@Gu@physx@@PEAV123@U?$PxHash@PEAVTriangleMesh@Gu@physx@@@3@UGetKey@?$PxHashSetBase@PEAVTriangleMesh@Gu@physx@@U?$PxHash@PEAVTriangleMesh@Gu@physx@@@3@VPxAllocator@3@$00@3@VPxAllocator@3@$00@physx@@AEAAXI@Z 000000018001add0 f i GuMeshFactory.obj
 0001:00019fa0       ?setBounds@AABBTreeBounds@Gu@physx@@QEAAXPEAVPxBounds3@3@@Z 000000018001afa0 f i GuMeshFactory.obj
 0001:00019fb0       ?setNbRunTimePrimitives@AABBTreeBuildNode@Gu@physx@@QEAAXI@Z 000000018001afb0 f i GuMeshFactory.obj
 0001:00019fc0       ?takeOwnership@AABBTreeBounds@Gu@physx@@QEAAXXZ 000000018001afc0 f i GuMeshFactory.obj
 0001:00019fd0       getInsertionCallback       000000018001afd0 f   GuMeshFactory.obj
 0001:00019fe0       ?doSupport@?$SupportLocalImpl@VConvexHullNoScaleV@Gu@physx@@@Gu@physx@@UEBA?AT__m128@@AEBT4@@Z 000000018001afe0 f i GuMTD.obj
 0001:0001a030       ?doSupport@?$SupportLocalImpl@VConvexHullNoScaleV@Gu@physx@@@Gu@physx@@UEBAXAEBT__m128@@AEAT4@1@Z 000000018001b030 f i GuMTD.obj
 0001:0001a1c0       ?populateVerts@?$SupportLocalImpl@VConvexHullNoScaleV@Gu@physx@@@Gu@physx@@UEBAXPEBEIPEBV?$PxVec3T@M@3@PEAT__m128@@@Z 000000018001b1c0 f i GuMTD.obj
 0001:0001a200       ?getInternalData@TriangleMesh@Gu@physx@@UEBA_NAEAUPxTriangleMeshInternalData@3@_N@Z 000000018001b200 f   GuTriangleMesh.obj
 0001:0001a200       ?isDynamic@Pruner@Gu@physx@@UEBA_NXZ 000000018001b200 f   GuIncrementalAABBPruner.obj
 0001:0001bb80       ??$gjk@U?$LocalConvex@VCapsuleV@Gu@physx@@@Gu@physx@@U?$LocalConvex@VConvexHullV@Gu@physx@@@23@@Gu@physx@@YA?AW4GjkStatus@01@AEBU?$LocalConvex@VCapsuleV@Gu@physx@@@01@AEBU?$LocalConvex@VConvexHullV@Gu@physx@@@01@AEBT__m128@@2AEAT5@333@Z 000000018001cb80 f i GuMTD.obj
 0001:0001c7e0       ??_E?$LocalConvex@UCustomConvexV@@@Gu@physx@@UEAAPEAXI@Z 000000018001d7e0 f i GuGjkQuery.obj
 0001:0001c7e0       ??_E?$LocalConvex@UPointConvexV@@@Gu@physx@@UEAAPEAXI@Z 000000018001d7e0 f i GuGjkQuery.obj
 0001:0001c7e0       ??_E?$LocalConvex@VBoxV@Gu@physx@@@Gu@physx@@UEAAPEAXI@Z 000000018001d7e0 f i GuSweepTests.obj
 0001:0001c7e0       ??_E?$LocalConvex@VCapsuleV@Gu@physx@@@Gu@physx@@UEAAPEAXI@Z 000000018001d7e0 f i GuMTD.obj
 0001:0001c7e0       ??_E?$LocalConvex@VConvexHullNoScaleV@Gu@physx@@@Gu@physx@@UEAAPEAXI@Z 000000018001d7e0 f i GuPCMContactBoxConvex.obj
 0001:0001c7e0       ??_E?$LocalConvex@VConvexHullV@Gu@physx@@@Gu@physx@@UEAAPEAXI@Z 000000018001d7e0 f i GuMTD.obj
 0001:0001c7e0       ??_E?$LocalConvex@VTetrahedronV@Gu@physx@@@Gu@physx@@UEAAPEAXI@Z 000000018001d7e0 f i GuCookingTetrahedronMesh.obj
 0001:0001c7e0       ??_E?$LocalConvex@VTriangleV@Gu@physx@@@Gu@physx@@UEAAPEAXI@Z 000000018001d7e0 f i GuSweepTests.obj
 0001:0001c7e0       ??_EGjkConvex@Gu@physx@@UEAAPEAXI@Z 000000018001d7e0 f i GuMTD.obj
 0001:0001c7e0       ??_G?$LocalConvex@UCustomConvexV@@@Gu@physx@@UEAAPEAXI@Z 000000018001d7e0 f i GuGjkQuery.obj
 0001:0001c7e0       ??_G?$LocalConvex@UPointConvexV@@@Gu@physx@@UEAAPEAXI@Z 000000018001d7e0 f i GuGjkQuery.obj
 0001:0001c7e0       ??_G?$LocalConvex@VBoxV@Gu@physx@@@Gu@physx@@UEAAPEAXI@Z 000000018001d7e0 f i GuSweepTests.obj
 0001:0001c7e0       ??_G?$LocalConvex@VCapsuleV@Gu@physx@@@Gu@physx@@UEAAPEAXI@Z 000000018001d7e0 f i GuMTD.obj
 0001:0001c7e0       ??_G?$LocalConvex@VConvexHullNoScaleV@Gu@physx@@@Gu@physx@@UEAAPEAXI@Z 000000018001d7e0 f i GuPCMContactBoxConvex.obj
 0001:0001c7e0       ??_G?$LocalConvex@VConvexHullV@Gu@physx@@@Gu@physx@@UEAAPEAXI@Z 000000018001d7e0 f i GuMTD.obj
 0001:0001c7e0       ??_G?$LocalConvex@VTetrahedronV@Gu@physx@@@Gu@physx@@UEAAPEAXI@Z 000000018001d7e0 f i GuCookingTetrahedronMesh.obj
 0001:0001c7e0       ??_G?$LocalConvex@VTriangleV@Gu@physx@@@Gu@physx@@UEAAPEAXI@Z 000000018001d7e0 f i GuSweepTests.obj
 0001:0001c7e0       ??_GGjkConvex@Gu@physx@@UEAAPEAXI@Z 000000018001d7e0 f i GuMTD.obj
 0001:00020e20       ?getCenter@?$LocalConvex@UCustomConvexV@@@Gu@physx@@UEBA?AT__m128@@XZ 0000000180021e20 f i GuGjkQuery.obj
 0001:00020e20       ?getCenter@?$LocalConvex@UPointConvexV@@@Gu@physx@@UEBA?AT__m128@@XZ 0000000180021e20 f i GuGjkQuery.obj
 0001:00020e20       ?getCenter@?$LocalConvex@VBoxV@Gu@physx@@@Gu@physx@@UEBA?AT__m128@@XZ 0000000180021e20 f i GuSweepTests.obj
 0001:00020e20       ?getCenter@?$LocalConvex@VCapsuleV@Gu@physx@@@Gu@physx@@UEBA?AT__m128@@XZ 0000000180021e20 f i GuMTD.obj
 0001:00020e20       ?getCenter@?$LocalConvex@VConvexHullNoScaleV@Gu@physx@@@Gu@physx@@UEBA?AT__m128@@XZ 0000000180021e20 f i GuPCMContactBoxConvex.obj
 0001:00020e20       ?getCenter@?$LocalConvex@VConvexHullV@Gu@physx@@@Gu@physx@@UEBA?AT__m128@@XZ 0000000180021e20 f i GuMTD.obj
 0001:00020e20       ?getCenter@?$LocalConvex@VTetrahedronV@Gu@physx@@@Gu@physx@@UEBA?AT__m128@@XZ 0000000180021e20 f i GuCookingTetrahedronMesh.obj
 0001:00020e20       ?getCenter@?$LocalConvex@VTriangleV@Gu@physx@@@Gu@physx@@UEBA?AT__m128@@XZ 0000000180021e20 f i GuSweepTests.obj
 0001:00020e30       ?getSweepMargin@?$LocalConvex@VCapsuleV@Gu@physx@@@Gu@physx@@UEBA?AT__m128@@XZ 0000000180021e30 f i GuMTD.obj
 0001:00020e30       ?getSweepMargin@?$RelativeConvex@VCapsuleV@Gu@physx@@@Gu@physx@@UEBA?AT__m128@@XZ 0000000180021e30 f i GuCCDSweepPrimitives.obj
 0001:00020e40       ?getSweepMargin@?$LocalConvex@UCustomConvexV@@@Gu@physx@@UEBA?AT__m128@@XZ 0000000180021e40 f i GuGjkQuery.obj
 0001:00020e40       ?getSweepMargin@?$LocalConvex@UPointConvexV@@@Gu@physx@@UEBA?AT__m128@@XZ 0000000180021e40 f i GuGjkQuery.obj
 0001:00020e40       ?getSweepMargin@?$LocalConvex@VBoxV@Gu@physx@@@Gu@physx@@UEBA?AT__m128@@XZ 0000000180021e40 f i GuSweepTests.obj
 0001:00020e40       ?getSweepMargin@?$LocalConvex@VConvexHullNoScaleV@Gu@physx@@@Gu@physx@@UEBA?AT__m128@@XZ 0000000180021e40 f i GuPCMContactBoxConvex.obj
 0001:00020e40       ?getSweepMargin@?$LocalConvex@VConvexHullV@Gu@physx@@@Gu@physx@@UEBA?AT__m128@@XZ 0000000180021e40 f i GuMTD.obj
 0001:00020e40       ?getSweepMargin@?$RelativeConvex@UCustomConvexV@@@Gu@physx@@UEBA?AT__m128@@XZ 0000000180021e40 f i GuGjkQuery.obj
 0001:00020e40       ?getSweepMargin@?$RelativeConvex@VBoxV@Gu@physx@@@Gu@physx@@UEBA?AT__m128@@XZ 0000000180021e40 f i GuOverlapTests.obj
 0001:00020e40       ?getSweepMargin@?$RelativeConvex@VConvexHullNoScaleV@Gu@physx@@@Gu@physx@@UEBA?AT__m128@@XZ 0000000180021e40 f i GuPCMContactConvexConvex.obj
 0001:00020e40       ?getSweepMargin@?$RelativeConvex@VConvexHullV@Gu@physx@@@Gu@physx@@UEBA?AT__m128@@XZ 0000000180021e40 f i GuOverlapTests.obj
 0001:00020e60       ?getSweepMargin@GjkConvex@Gu@physx@@UEBA?AT__m128@@XZ 0000000180021e60 f i GuMTD.obj
 0001:00020e80       ?pointConvexDistance@@YA_NAEAV?$PxVec3T@M@physx@@0AEAMAEBV12@PEBVConvexMesh@Gu@2@AEBVPxMeshScale@2@AEBUPxTransformPadded@2@@Z 0000000180021e80 f   GuMTD.obj
 0001:00021c20       ?support@?$LocalConvex@VCapsuleV@Gu@physx@@@Gu@physx@@UEBA?AT__m128@@AEBT4@@Z 0000000180022c20 f i GuMTD.obj
 0001:00021c80       ?support@?$LocalConvex@VCapsuleV@Gu@physx@@@Gu@physx@@UEBA?AT__m128@@AEBT4@AEAH@Z 0000000180022c80 f i GuMTD.obj
 0001:00021cf0       ?support@?$LocalConvex@VConvexHullV@Gu@physx@@@Gu@physx@@UEBA?AT__m128@@AEBT4@@Z 0000000180022cf0 f i GuMTD.obj
 0001:00021dd0       ?support@?$LocalConvex@VConvexHullV@Gu@physx@@@Gu@physx@@UEBA?AT__m128@@AEBT4@AEAH@Z 0000000180022dd0 f i GuMTD.obj
 0001:00021ea0       ?support@GjkConvex@Gu@physx@@UEBA?AT__m128@@AEBT4@@Z 0000000180022ea0 f i GuMTD.obj
 0001:00021ec0       ?support@GjkConvex@Gu@physx@@UEBA?AT__m128@@AEBT4@AEAH@Z 0000000180022ec0 f i GuMTD.obj
 0001:00021ee0       ?supportPoint@?$LocalConvex@VCapsuleV@Gu@physx@@@Gu@physx@@UEBA?AT__m128@@H@Z 0000000180022ee0 f i GuMTD.obj
 0001:00021f10       ?supportPoint@?$LocalConvex@VConvexHullV@Gu@physx@@@Gu@physx@@UEBA?AT__m128@@H@Z 0000000180022f10 f i GuMTD.obj
 0001:00021f60       ?supportPoint@GjkConvex@Gu@physx@@UEBA?AT__m128@@H@Z 0000000180022f60 f i GuMTD.obj
 0001:00021f80       ?supportPoint@?$RelativeConvex@VBoxV@Gu@physx@@@Gu@physx@@UEBA?AT__m128@@H@Z 0000000180022f80 f i GuOverlapTests.obj
 0001:00021ff0       ?support@?$RelativeConvex@VBoxV@Gu@physx@@@Gu@physx@@UEBA?AT__m128@@AEBT4@@Z 0000000180022ff0 f i GuOverlapTests.obj
 0001:00022070       ?support@?$RelativeConvex@VBoxV@Gu@physx@@@Gu@physx@@UEBA?AT__m128@@AEBT4@AEAH@Z 0000000180023070 f i GuOverlapTests.obj
 0001:00022100       ?getCenter@?$RelativeConvex@UCustomConvexV@@@Gu@physx@@UEBA?AT__m128@@XZ 0000000180023100 f i GuGjkQuery.obj
 0001:00022100       ?getCenter@?$RelativeConvex@VBoxV@Gu@physx@@@Gu@physx@@UEBA?AT__m128@@XZ 0000000180023100 f i GuOverlapTests.obj
 0001:00022100       ?getCenter@?$RelativeConvex@VCapsuleV@Gu@physx@@@Gu@physx@@UEBA?AT__m128@@XZ 0000000180023100 f i GuCCDSweepPrimitives.obj
 0001:00022100       ?getCenter@?$RelativeConvex@VConvexHullNoScaleV@Gu@physx@@@Gu@physx@@UEBA?AT__m128@@XZ 0000000180023100 f i GuPCMContactConvexConvex.obj
 0001:00022100       ?getCenter@?$RelativeConvex@VConvexHullV@Gu@physx@@@Gu@physx@@UEBA?AT__m128@@XZ 0000000180023100 f i GuOverlapTests.obj
 0001:00022100       ?getCenter@?$RelativeConvex@VTriangleV@Gu@physx@@@Gu@physx@@UEBA?AT__m128@@XZ 0000000180023100 f i GuCCDSweepPrimitives.obj
 0001:00022140       ??_E?$RelativeConvex@UCustomConvexV@@@Gu@physx@@UEAAPEAXI@Z 0000000180023140 f i GuGjkQuery.obj
 0001:00022140       ??_E?$RelativeConvex@VBoxV@Gu@physx@@@Gu@physx@@UEAAPEAXI@Z 0000000180023140 f i GuOverlapTests.obj
 0001:00022140       ??_E?$RelativeConvex@VCapsuleV@Gu@physx@@@Gu@physx@@UEAAPEAXI@Z 0000000180023140 f i GuCCDSweepPrimitives.obj
 0001:00022140       ??_E?$RelativeConvex@VConvexHullNoScaleV@Gu@physx@@@Gu@physx@@UEAAPEAXI@Z 0000000180023140 f i GuPCMContactConvexConvex.obj
 0001:00022140       ??_E?$RelativeConvex@VConvexHullV@Gu@physx@@@Gu@physx@@UEAAPEAXI@Z 0000000180023140 f i GuOverlapTests.obj
 0001:00022140       ??_E?$RelativeConvex@VTriangleV@Gu@physx@@@Gu@physx@@UEAAPEAXI@Z 0000000180023140 f i GuCCDSweepPrimitives.obj
 0001:00022140       ??_G?$RelativeConvex@UCustomConvexV@@@Gu@physx@@UEAAPEAXI@Z 0000000180023140 f i GuGjkQuery.obj
 0001:00022140       ??_G?$RelativeConvex@VBoxV@Gu@physx@@@Gu@physx@@UEAAPEAXI@Z 0000000180023140 f i GuOverlapTests.obj
 0001:00022140       ??_G?$RelativeConvex@VCapsuleV@Gu@physx@@@Gu@physx@@UEAAPEAXI@Z 0000000180023140 f i GuCCDSweepPrimitives.obj
 0001:00022140       ??_G?$RelativeConvex@VConvexHullNoScaleV@Gu@physx@@@Gu@physx@@UEAAPEAXI@Z 0000000180023140 f i GuPCMContactConvexConvex.obj
 0001:00022140       ??_G?$RelativeConvex@VConvexHullV@Gu@physx@@@Gu@physx@@UEAAPEAXI@Z 0000000180023140 f i GuOverlapTests.obj
 0001:00022140       ??_G?$RelativeConvex@VTriangleV@Gu@physx@@@Gu@physx@@UEAAPEAXI@Z 0000000180023140 f i GuCCDSweepPrimitives.obj
 0001:000242c0       ?supportPoint@?$RelativeConvex@VConvexHullV@Gu@physx@@@Gu@physx@@UEBA?AT__m128@@H@Z 00000001800252c0 f i GuOverlapTests.obj
 0001:00024340       ?support@?$RelativeConvex@VConvexHullV@Gu@physx@@@Gu@physx@@UEBA?AT__m128@@AEBT4@@Z 0000000180025340 f i GuOverlapTests.obj
 0001:00024470       ?support@?$RelativeConvex@VConvexHullV@Gu@physx@@@Gu@physx@@UEBA?AT__m128@@AEBT4@AEAH@Z 0000000180025470 f i GuOverlapTests.obj
 0001:00024db0       ??$gjk@U?$RelativeConvex@VBoxV@Gu@physx@@@Gu@physx@@U?$LocalConvex@VConvexHullV@Gu@physx@@@23@@Gu@physx@@YA?AW4GjkStatus@01@AEBU?$RelativeConvex@VBoxV@Gu@physx@@@01@AEBU?$LocalConvex@VConvexHullV@Gu@physx@@@01@AEBT__m128@@2AEAT5@333@Z 0000000180025db0 f i GuOverlapTests.obj
 0001:00025a50       ??$gjk@U?$RelativeConvex@VConvexHullV@Gu@physx@@@Gu@physx@@U?$LocalConvex@VConvexHullV@Gu@physx@@@23@@Gu@physx@@YA?AW4GjkStatus@01@AEBU?$RelativeConvex@VConvexHullV@Gu@physx@@@01@AEBU?$LocalConvex@VConvexHullV@Gu@physx@@@01@AEBT__m128@@2AEAT5@333@Z 0000000180026a50 f i GuOverlapTests.obj
 0001:00027200       ??0?$Convex@UConvexShape@Gu@physx@@@RefGjkEpa@Gu@physx@@QEAA@AEBUConvexShape@23@AEBV?$PxTransformT@M@3@@Z 0000000180028200 f i GuOverlapTests.obj
 0001:00027680       ?ComputeCubemapNearestOffset@physx@@YAIAEBV?$PxVec3T@M@1@I@Z 0000000180028680 f i GuOverlapTests.obj
 0001:00027790       ?computeClosest@?$GjkDistance@UConvexShape@Gu@physx@@@RefGjkEpa@Gu@physx@@QEAAXXZ 0000000180028790 f i GuOverlapTests.obj
 0001:00028e00       ?getBounds@?$Convex@UConvexShape@Gu@physx@@@RefGjkEpa@Gu@physx@@QEBA?AVPxBounds3@4@XZ 0000000180029e00 f i GuOverlapTests.obj
 0001:000296d0       ?getOverlapFuncTable@Gu@physx@@YAPEAY0L@Q6A_NAEBVPxGeometry@2@AEBV?$PxTransformT@M@2@01PEAUTriggerCache@12@PEAUPxQueryThreadContext@2@@ZXZ 000000018002a6d0 f   GuOverlapTests.obj
 0001:0002b200       ?supportIndex@?$Convex@UConvexShape@Gu@physx@@@RefGjkEpa@Gu@physx@@QEAAEAEBV?$PxVec3T@M@4@@Z 000000018002c200 f i GuOverlapTests.obj
 0001:0002b5c0       ??_ESupport@PxGjkQuery@physx@@UEAAPEAXI@Z 000000018002c5c0 f i GuRaycastTests.obj
 0001:0002b5c0       ??_GSupport@PxGjkQuery@physx@@UEAAPEAXI@Z 000000018002c5c0 f i GuRaycastTests.obj
 0001:0002b5f0       ?raycast_box@@YAIAEBVPxGeometry@physx@@AEBV?$PxTransformT@M@2@AEBV?$PxVec3T@M@2@2MV?$PxFlags@W4Enum@PxHitFlag@physx@@G@2@IPEIAUPxGeomRaycastHit@2@IPEAUPxQueryThreadContext@2@@Z 000000018002c5f0 f   GuRaycastTests.obj
 0001:0002bc40       ?raycast_sphere@@YAIAEBVPxGeometry@physx@@AEBV?$PxTransformT@M@2@AEBV?$PxVec3T@M@2@2MV?$PxFlags@W4Enum@PxHitFlag@physx@@G@2@IPEIAUPxGeomRaycastHit@2@IPEAUPxQueryThreadContext@2@@Z 000000018002cc40 f   GuRaycastTests.obj
 0001:0002bdc0       ?raycast_capsule@@YAIAEBVPxGeometry@physx@@AEBV?$PxTransformT@M@2@AEBV?$PxVec3T@M@2@2MV?$PxFlags@W4Enum@PxHitFlag@physx@@G@2@IPEIAUPxGeomRaycastHit@2@IPEAUPxQueryThreadContext@2@@Z 000000018002cdc0 f   GuRaycastTests.obj
 0001:0002c310       ?raycast_plane@@YAIAEBVPxGeometry@physx@@AEBV?$PxTransformT@M@2@AEBV?$PxVec3T@M@2@2MV?$PxFlags@W4Enum@PxHitFlag@physx@@G@2@IPEIAUPxGeomRaycastHit@2@IPEAUPxQueryThreadContext@2@@Z 000000018002d310 f   GuRaycastTests.obj
 0001:0002c480       ?raycast_convexMesh@@YAIAEBVPxGeometry@physx@@AEBV?$PxTransformT@M@2@AEBV?$PxVec3T@M@2@2MV?$PxFlags@W4Enum@PxHitFlag@physx@@G@2@IPEIAUPxGeomRaycastHit@2@IPEAUPxQueryThreadContext@2@@Z 000000018002d480 f   GuRaycastTests.obj
 0001:0002cf60       ?getMidphaseID@RTreeTriangleMesh@Gu@physx@@UEBA?AW4Enum@PxMeshMidPhase@3@XZ 000000018002df60 f   GuTriangleMeshRTree.obj
 0001:0002cf60       ?getMidphaseID@RTreeTriangleMeshBuilder@physx@@UEBA?AW4Enum@PxMeshMidPhase@2@XZ 000000018002df60 f   GuCookingTriangleMesh.obj
 0001:0002cf60       ?getTetrahedraRemap@TetrahedronMesh@Gu@physx@@UEBAPEBIXZ 000000018002df60 f   GuTetrahedronMesh.obj
 0001:0002cf60       ?raycast_particlesystem@@YAIAEBVPxGeometry@physx@@AEBV?$PxTransformT@M@2@AEBV?$PxVec3T@M@2@2MV?$PxFlags@W4Enum@PxHitFlag@physx@@G@2@IPEIAUPxGeomRaycastHit@2@IPEAUPxQueryThreadContext@2@@Z 000000018002df60 f   GuRaycastTests.obj
 0001:0002cf60       ?raycast_softbody@@YAIAEBVPxGeometry@physx@@AEBV?$PxTransformT@M@2@AEBV?$PxVec3T@M@2@2MV?$PxFlags@W4Enum@PxHitFlag@physx@@G@2@IPEIAUPxGeomRaycastHit@2@IPEAUPxQueryThreadContext@2@@Z 000000018002df60 f   GuRaycastTests.obj
 0001:0002cf70       ?raycast_triangleMesh@@YAIAEBVPxGeometry@physx@@AEBV?$PxTransformT@M@2@AEBV?$PxVec3T@M@2@2MV?$PxFlags@W4Enum@PxHitFlag@physx@@G@2@IPEIAUPxGeomRaycastHit@2@IPEAUPxQueryThreadContext@2@@Z 000000018002df70 f   GuRaycastTests.obj
 0001:0002d000       ?raycast_heightField@@YAIAEBVPxGeometry@physx@@AEBV?$PxTransformT@M@2@AEBV?$PxVec3T@M@2@2MV?$PxFlags@W4Enum@PxHitFlag@physx@@G@2@IPEIAUPxGeomRaycastHit@2@IPEAUPxQueryThreadContext@2@@Z 000000018002e000 f   GuRaycastTests.obj
 0001:0002ec80       ??Dphysx@@YA?AV?$PxMat34T@M@0@AEBVPxMeshScale@0@AEBV?$PxTransformT@M@0@@Z 000000018002fc80 f i GuRaycastTests.obj
 0001:0002f740       ?getRaycastFuncTable@Gu@physx@@YAAEAY0L@Q6AIAEBVPxGeometry@2@AEBV?$PxTransformT@M@2@AEBV?$PxVec3T@M@2@2MV?$PxFlags@W4Enum@PxHitFlag@physx@@G@2@IPEIAUPxGeomRaycastHit@2@IPEAUPxQueryThreadContext@2@@ZXZ 0000000180030740 f   GuRaycastTests.obj
 0001:0002f750       ?supportLocal@ConvexShape@Gu@physx@@QEBA?AV?$PxVec3T@M@3@AEBV43@@Z 0000000180030750 f i GuRaycastTests.obj
 0001:0002f800       ??Dphysx@@YA?AV?$PxMat34T@M@0@AEBV?$PxTransformT@M@0@AEBVPxMeshScale@0@@Z 0000000180030800 f i GuSweepMTD.obj
 0001:0002fd60       ??_E?$MeshHitCallback@UPxGeomRaycastHit@physx@@@Gu@physx@@UEAAPEAXI@Z 0000000180030d60 f i GuSweepMTD.obj
 0001:0002fd60       ??_G?$MeshHitCallback@UPxGeomRaycastHit@physx@@@Gu@physx@@UEAAPEAXI@Z 0000000180030d60 f i GuSweepMTD.obj
 0001:0002fd90       ??_EMeshMTDGenerationCallback@@UEAAPEAXI@Z 0000000180030d90 f i GuSweepMTD.obj
 0001:0002fd90       ??_GMeshMTDGenerationCallback@@UEAAPEAXI@Z 0000000180030d90 f i GuSweepMTD.obj
 0001:0002fdc0       ??_EMidPhaseQueryLocalReport@@UEAAPEAXI@Z 0000000180030dc0 f i GuSweepMTD.obj
 0001:0002fdc0       ??_ERTreeCookerRemap@@UEAAPEAXI@Z 0000000180030dc0 f i GuCookingTriangleMesh.obj
 0001:0002fdc0       ??_GMidPhaseQueryLocalReport@@UEAAPEAXI@Z 0000000180030dc0 f i GuSweepMTD.obj
 0001:0002fdc0       ??_GRTreeCookerRemap@@UEAAPEAXI@Z 0000000180030dc0 f i GuCookingTriangleMesh.obj
 0001:0002fdf0       ?computeBox_HeightFieldMTD@Gu@physx@@YA_NAEBVPxHeightFieldGeometry@2@AEBV?$PxTransformT@M@2@AEBVBox@12@1M_NAEAUPxGeomSweepHit@2@@Z 0000000180030df0 f   GuSweepMTD.obj
 0001:00030b10       ?computeBox_TriangleMeshMTD@Gu@physx@@YA_NAEBVPxTriangleMeshGeometry@2@AEBV?$PxTransformT@M@2@AEBVBox@12@1M_NAEAUPxGeomSweepHit@2@@Z 0000000180031b10 f   GuSweepMTD.obj
 0001:00031660       ?computeCapsule_CapsuleMTD@Gu@physx@@YA_NAEBVCapsule@12@0AEAUPxGeomSweepHit@2@@Z 0000000180032660 f   GuSweepMTD.obj
 0001:00031890       ?computeCapsule_HeightFieldMTD@Gu@physx@@YA_NAEBVPxHeightFieldGeometry@2@AEBV?$PxTransformT@M@2@AEAVCapsuleV@12@M_NAEAUPxGeomSweepHit@2@@Z 0000000180032890 f   GuSweepMTD.obj
 0001:000320d0       ?computeCapsule_TriangleMeshMTD@Gu@physx@@YA_NAEBVPxTriangleMeshGeometry@2@AEBV?$PxTransformT@M@2@AEAVCapsuleV@12@M_NAEAUPxGeomSweepHit@2@@Z 00000001800330d0 f   GuSweepMTD.obj
 0001:00032980       ?computeConvex_HeightFieldMTD@Gu@physx@@YA_NAEBVPxHeightFieldGeometry@2@AEBV?$PxTransformT@M@2@AEBVPxConvexMeshGeometry@2@1M_NAEAUPxGeomSweepHit@2@@Z 0000000180033980 f   GuSweepMTD.obj
 0001:00033bf0       ?computeConvex_TriangleMeshMTD@Gu@physx@@YA_NAEBVPxTriangleMeshGeometry@2@AEBV?$PxTransformT@M@2@AEBVPxConvexMeshGeometry@2@1M_NAEAUPxGeomSweepHit@2@@Z 0000000180034bf0 f   GuSweepMTD.obj
 0001:00034e20       ?computePlane_BoxMTD@Gu@physx@@YA_NAEBVPxPlane@2@AEBVBox@12@AEAUPxGeomSweepHit@2@@Z 0000000180035e20 f   GuSweepMTD.obj
 0001:000350b0       ?computePlane_CapsuleMTD@Gu@physx@@YA_NAEBVPxPlane@2@AEBVCapsule@12@AEAUPxGeomSweepHit@2@@Z 00000001800360b0 f   GuSweepMTD.obj
 0001:000351f0       ?computePlane_ConvexMTD@Gu@physx@@YA_NAEBVPxPlane@2@AEBVPxConvexMeshGeometry@2@AEBV?$PxTransformT@M@2@AEAUPxGeomSweepHit@2@@Z 00000001800361f0 f   GuSweepMTD.obj
 0001:00035710       ?computeSphere_CapsuleMTD@Gu@physx@@YA_NAEBVSphere@12@AEBVCapsule@12@AEAUPxGeomSweepHit@2@@Z 0000000180036710 f   GuSweepMTD.obj
 0001:000358c0       ?computeSphere_SphereMTD@Gu@physx@@YA_NAEBVSphere@12@0AEAUPxGeomSweepHit@2@@Z 00000001800368c0 f   GuSweepMTD.obj
 0001:000359b0       ?getInverse@?$PxMat33T@M@physx@@QEBA?BV12@XZ 00000001800369b0 f i GuSweepMTD.obj
 0001:00035c00       ?growAndPushBack@?$PxArray@IV?$PxReflectionAllocator@I@physx@@@physx@@IEAAAEAIAEBI@Z 0000000180036c00 f i GuSweepMTD.obj
 0001:00035d20       ?init@FastVertex2ShapeScaling@Cm@physx@@QEAAXAEBV?$PxVec3T@M@3@AEBV?$PxQuatT@M@3@@Z 0000000180036d20 f i GuSweepMTD.obj
 0001:000365a0       ?processHit@MeshMTDGenerationCallback@@UEAA_NAEBUPxGeomRaycastHit@physx@@AEBV?$PxVec3T@M@3@11AEAMPEBI@Z 00000001800375a0 f i GuSweepMTD.obj
 0001:000365f0       ?recreate@?$PxArray@IV?$PxReflectionAllocator@I@physx@@@physx@@IEAAXI@Z 00000001800375f0 f i GuSweepMTD.obj
 0001:000366f0       ?reportTouchedTris@MidPhaseQueryLocalReport@@UEAA_NIPEBI@Z 00000001800376f0 f i GuSweepMTD.obj
 0001:00036760       ??$gjkPenetration@U?$LocalConvex@VCapsuleV@Gu@physx@@@Gu@physx@@U?$LocalConvex@VConvexHullV@Gu@physx@@@23@@Gu@physx@@YA?AW4GjkStatus@01@AEBU?$LocalConvex@VCapsuleV@Gu@physx@@@01@AEBU?$LocalConvex@VConvexHullV@Gu@physx@@@01@AEBT__m128@@2_NPEIAE4AEAEAEAUGjkOutput@01@@Z 0000000180037760 f i GuSweepSharedTests.obj
 0001:000367d0       ??$gjkPenetration@U?$LocalConvex@VCapsuleV@Gu@physx@@@Gu@physx@@U?$LocalConvex@VConvexHullV@Gu@physx@@@23@@Gu@physx@@YA?AW4GjkStatus@01@AEBU?$LocalConvex@VCapsuleV@Gu@physx@@@01@AEBU?$LocalConvex@VConvexHullV@Gu@physx@@@01@AEBT__m128@@2_NPEIAE4PEIAT5@5AEAEAEAUGjkOutput@01@@Z 00000001800377d0 f i GuSweepSharedTests.obj
 0001:000382a0       ??$gjkPenetration@U?$RelativeConvex@VBoxV@Gu@physx@@@Gu@physx@@U?$LocalConvex@VConvexHullV@Gu@physx@@@23@@Gu@physx@@YA?AW4GjkStatus@01@AEBU?$RelativeConvex@VBoxV@Gu@physx@@@01@AEBU?$LocalConvex@VConvexHullV@Gu@physx@@@01@AEBT__m128@@2_NPEIAE4AEAEAEAUGjkOutput@01@@Z 00000001800392a0 f i GuSweepSharedTests.obj
 0001:00038310       ??$gjkPenetration@U?$RelativeConvex@VBoxV@Gu@physx@@@Gu@physx@@U?$LocalConvex@VConvexHullV@Gu@physx@@@23@@Gu@physx@@YA?AW4GjkStatus@01@AEBU?$RelativeConvex@VBoxV@Gu@physx@@@01@AEBU?$LocalConvex@VConvexHullV@Gu@physx@@@01@AEBT__m128@@2_NPEIAE4PEIAT5@5AEAEAEAUGjkOutput@01@@Z 0000000180039310 f i GuSweepSharedTests.obj
 0001:00039e30       ??$gjkPenetration@U?$RelativeConvex@VConvexHullV@Gu@physx@@@Gu@physx@@U?$LocalConvex@VConvexHullV@Gu@physx@@@23@@Gu@physx@@YA?AW4GjkStatus@01@AEBU?$RelativeConvex@VConvexHullV@Gu@physx@@@01@AEBU?$LocalConvex@VConvexHullV@Gu@physx@@@01@AEBT__m128@@2_NPEIAE4AEAEAEAUGjkOutput@01@@Z 000000018003ae30 f i GuSweepSharedTests.obj
 0001:00039ea0       ??$gjkPenetration@U?$RelativeConvex@VConvexHullV@Gu@physx@@@Gu@physx@@U?$LocalConvex@VConvexHullV@Gu@physx@@@23@@Gu@physx@@YA?AW4GjkStatus@01@AEBU?$RelativeConvex@VConvexHullV@Gu@physx@@@01@AEBU?$LocalConvex@VConvexHullV@Gu@physx@@@01@AEBT__m128@@2_NPEIAE4PEIAT5@5AEAEAEAUGjkOutput@01@@Z 000000018003aea0 f i GuSweepSharedTests.obj
 0001:0003ba70       ??$gjkRaycast@U?$LocalConvex@VCapsuleV@Gu@physx@@@Gu@physx@@U?$LocalConvex@VConvexHullV@Gu@physx@@@23@@Gu@physx@@YA_NAEBU?$LocalConvex@VCapsuleV@Gu@physx@@@01@AEBU?$LocalConvex@VConvexHullV@Gu@physx@@@01@AEBT__m128@@222AEAT4@33M@Z 000000018003ca70 f i GuSweepSharedTests.obj
 0001:0003c7e0       ??$gjkRaycast@U?$RelativeConvex@VBoxV@Gu@physx@@@Gu@physx@@U?$LocalConvex@VConvexHullV@Gu@physx@@@23@@Gu@physx@@YA_NAEBU?$RelativeConvex@VBoxV@Gu@physx@@@01@AEBU?$LocalConvex@VConvexHullV@Gu@physx@@@01@AEBT__m128@@222AEAT4@33M@Z 000000018003d7e0 f i GuSweepSharedTests.obj
 0001:0003d5b0       ??$gjkRaycast@U?$RelativeConvex@VConvexHullV@Gu@physx@@@Gu@physx@@U?$LocalConvex@VConvexHullV@Gu@physx@@@23@@Gu@physx@@YA_NAEBU?$RelativeConvex@VConvexHullV@Gu@physx@@@01@AEBU?$LocalConvex@VConvexHullV@Gu@physx@@@01@AEBT__m128@@222AEAT4@33M@Z 000000018003e5b0 f i GuSweepSharedTests.obj
 0001:0003e3b0       ??$gjkRaycastPenetration@U?$LocalConvex@VCapsuleV@Gu@physx@@@Gu@physx@@U?$LocalConvex@VConvexHullV@Gu@physx@@@23@@Gu@physx@@YA_NAEBU?$LocalConvex@VCapsuleV@Gu@physx@@@01@AEBU?$LocalConvex@VConvexHullV@Gu@physx@@@01@AEBT__m128@@222AEAT4@33M_N@Z 000000018003f3b0 f i GuSweepSharedTests.obj
 0001:0003e5e0       ??$gjkRaycastPenetration@U?$RelativeConvex@VBoxV@Gu@physx@@@Gu@physx@@U?$LocalConvex@VConvexHullV@Gu@physx@@@23@@Gu@physx@@YA_NAEBU?$RelativeConvex@VBoxV@Gu@physx@@@01@AEBU?$LocalConvex@VConvexHullV@Gu@physx@@@01@AEBT__m128@@222AEAT4@33M_N@Z 000000018003f5e0 f i GuSweepSharedTests.obj
 0001:0003e870       ??$gjkRaycastPenetration@U?$RelativeConvex@VConvexHullV@Gu@physx@@@Gu@physx@@U?$LocalConvex@VConvexHullV@Gu@physx@@@23@@Gu@physx@@YA_NAEBU?$RelativeConvex@VConvexHullV@Gu@physx@@@01@AEBU?$LocalConvex@VConvexHullV@Gu@physx@@@01@AEBT__m128@@222AEAT4@33M_N@Z 000000018003f870 f i GuSweepSharedTests.obj
 0001:0003ef50       ?sweepBox_ConvexGeom@@YA_NAEBVPxGeometry@physx@@AEBV?$PxTransformT@M@2@AEBVPxBoxGeometry@2@1AEBVBox@Gu@2@AEBV?$PxVec3T@M@2@MAEAUPxGeomSweepHit@2@V?$PxFlags@W4Enum@PxHitFlag@physx@@G@2@MPEAUPxQueryThreadContext@2@@Z 000000018003ff50 f   GuSweepSharedTests.obj
 0001:0003fb20       ?sweepBox_PlaneGeom@@YA_NAEBVPxGeometry@physx@@AEBV?$PxTransformT@M@2@AEBVPxBoxGeometry@2@1AEBVBox@Gu@2@AEBV?$PxVec3T@M@2@MAEAUPxGeomSweepHit@2@V?$PxFlags@W4Enum@PxHitFlag@physx@@G@2@MPEAUPxQueryThreadContext@2@@Z 0000000180040b20 f   GuSweepSharedTests.obj
 0001:0003fef0       ?sweepCapsuleTriangles@Gu@physx@@YA_NIPEBVPxTriangle@2@_NAEBVPxCapsuleGeometry@2@AEBV?$PxTransformT@M@2@AEBV?$PxVec3T@M@2@MAEAUPxGeomSweepHit@2@PEBIMV?$PxFlags@W4Enum@PxHitFlag@physx@@G@2@@Z 0000000180040ef0 f   GuSweepSharedTests.obj
 0001:000400f0       ?sweepCapsule_CapsuleGeom@@YA_NAEBVPxGeometry@physx@@AEBV?$PxTransformT@M@2@AEBVPxCapsuleGeometry@2@1AEBVCapsule@Gu@2@AEBV?$PxVec3T@M@2@MAEAUPxGeomSweepHit@2@V?$PxFlags@W4Enum@PxHitFlag@physx@@G@2@MPEAUPxQueryThreadContext@2@@Z 00000001800410f0 f   GuSweepSharedTests.obj
 0001:000402e0       ?sweepCapsule_ConvexGeom@@YA_NAEBVPxGeometry@physx@@AEBV?$PxTransformT@M@2@AEBVPxCapsuleGeometry@2@1AEBVCapsule@Gu@2@AEBV?$PxVec3T@M@2@MAEAUPxGeomSweepHit@2@V?$PxFlags@W4Enum@PxHitFlag@physx@@G@2@MPEAUPxQueryThreadContext@2@@Z 00000001800412e0 f   GuSweepSharedTests.obj
 0001:00040e50       ?sweepCapsule_PlaneGeom@@YA_NAEBVPxGeometry@physx@@AEBV?$PxTransformT@M@2@AEBVPxCapsuleGeometry@2@1AEBVCapsule@Gu@2@AEBV?$PxVec3T@M@2@MAEAUPxGeomSweepHit@2@V?$PxFlags@W4Enum@PxHitFlag@physx@@G@2@MPEAUPxQueryThreadContext@2@@Z 0000000180041e50 f   GuSweepSharedTests.obj
 0001:00041130       ?sweepCapsule_SphereGeom@@YA_NAEBVPxGeometry@physx@@AEBV?$PxTransformT@M@2@AEBVPxCapsuleGeometry@2@1AEBVCapsule@Gu@2@AEBV?$PxVec3T@M@2@MAEAUPxGeomSweepHit@2@V?$PxFlags@W4Enum@PxHitFlag@physx@@G@2@MPEAUPxQueryThreadContext@2@@Z 0000000180042130 f   GuSweepSharedTests.obj
 0001:000412c0       ?sweepConvex_BoxGeom@@YA_NAEBVPxGeometry@physx@@AEBV?$PxTransformT@M@2@AEBVPxConvexMeshGeometry@2@1AEBV?$PxVec3T@M@2@MAEAUPxGeomSweepHit@2@V?$PxFlags@W4Enum@PxHitFlag@physx@@G@2@MPEAUPxQueryThreadContext@2@@Z 00000001800422c0 f   GuSweepSharedTests.obj
 0001:000414e0       ?sweepConvex_CapsuleGeom@@YA_NAEBVPxGeometry@physx@@AEBV?$PxTransformT@M@2@AEBVPxConvexMeshGeometry@2@1AEBV?$PxVec3T@M@2@MAEAUPxGeomSweepHit@2@V?$PxFlags@W4Enum@PxHitFlag@physx@@G@2@MPEAUPxQueryThreadContext@2@@Z 00000001800424e0 f   GuSweepSharedTests.obj
 0001:00041720       ?sweepConvex_ConvexGeom@@YA_NAEBVPxGeometry@physx@@AEBV?$PxTransformT@M@2@AEBVPxConvexMeshGeometry@2@1AEBV?$PxVec3T@M@2@MAEAUPxGeomSweepHit@2@V?$PxFlags@W4Enum@PxHitFlag@physx@@G@2@MPEAUPxQueryThreadContext@2@@Z 0000000180042720 f   GuSweepSharedTests.obj
 0001:000426b0       ?sweepConvex_PlaneGeom@@YA_NAEBVPxGeometry@physx@@AEBV?$PxTransformT@M@2@AEBVPxConvexMeshGeometry@2@1AEBV?$PxVec3T@M@2@MAEAUPxGeomSweepHit@2@V?$PxFlags@W4Enum@PxHitFlag@physx@@G@2@MPEAUPxQueryThreadContext@2@@Z 00000001800436b0 f   GuSweepSharedTests.obj
 0001:00042b40       ?sweepConvex_SphereGeom@@YA_NAEBVPxGeometry@physx@@AEBV?$PxTransformT@M@2@AEBVPxConvexMeshGeometry@2@1AEBV?$PxVec3T@M@2@MAEAUPxGeomSweepHit@2@V?$PxFlags@W4Enum@PxHitFlag@physx@@G@2@MPEAUPxQueryThreadContext@2@@Z 0000000180043b40 f   GuSweepSharedTests.obj
 0001:00043530       ?sweepCapsule_BoxGeom@@YA_NAEBVPxGeometry@physx@@AEBV?$PxTransformT@M@2@AEBVPxCapsuleGeometry@2@1AEBVCapsule@Gu@2@AEBV?$PxVec3T@M@2@MAEAUPxGeomSweepHit@2@V?$PxFlags@W4Enum@PxHitFlag@physx@@G@2@MPEAUPxQueryThreadContext@2@@Z 0000000180044530 f   GuSweepTests.obj
 0001:00043d90       ?sweepBox_SphereGeom@@YA_NAEBVPxGeometry@physx@@AEBV?$PxTransformT@M@2@AEBVPxBoxGeometry@2@1AEBVBox@Gu@2@AEBV?$PxVec3T@M@2@MAEAUPxGeomSweepHit@2@V?$PxFlags@W4Enum@PxHitFlag@physx@@G@2@MPEAUPxQueryThreadContext@2@@Z 0000000180044d90 f   GuSweepTests.obj
 0001:00044390       ?sweepBox_CapsuleGeom@@YA_NAEBVPxGeometry@physx@@AEBV?$PxTransformT@M@2@AEBVPxBoxGeometry@2@1AEBVBox@Gu@2@AEBV?$PxVec3T@M@2@MAEAUPxGeomSweepHit@2@V?$PxFlags@W4Enum@PxHitFlag@physx@@G@2@MPEAUPxQueryThreadContext@2@@Z 0000000180045390 f   GuSweepTests.obj
 0001:00044bf0       ?sweepBox_BoxGeom@@YA_NAEBVPxGeometry@physx@@AEBV?$PxTransformT@M@2@AEBVPxBoxGeometry@2@1AEBVBox@Gu@2@AEBV?$PxVec3T@M@2@MAEAUPxGeomSweepHit@2@V?$PxFlags@W4Enum@PxHitFlag@physx@@G@2@MPEAUPxQueryThreadContext@2@@Z 0000000180045bf0 f   GuSweepTests.obj
 0001:00046400       ??$gjkPenetration@U?$LocalConvex@VCapsuleV@Gu@physx@@@Gu@physx@@U?$LocalConvex@VBoxV@Gu@physx@@@23@@Gu@physx@@YA?AW4GjkStatus@01@AEBU?$LocalConvex@VCapsuleV@Gu@physx@@@01@AEBU?$LocalConvex@VBoxV@Gu@physx@@@01@AEBT__m128@@2_NPEIAE4AEAEAEAUGjkOutput@01@@Z 0000000180047400 f i GuSweepTests.obj
 0001:00046470       ??$gjkPenetration@U?$LocalConvex@VCapsuleV@Gu@physx@@@Gu@physx@@U?$LocalConvex@VBoxV@Gu@physx@@@23@@Gu@physx@@YA?AW4GjkStatus@01@AEBU?$LocalConvex@VCapsuleV@Gu@physx@@@01@AEBU?$LocalConvex@VBoxV@Gu@physx@@@01@AEBT__m128@@2_NPEIAE4PEIAT5@5AEAEAEAUGjkOutput@01@@Z 0000000180047470 f i GuSweepTests.obj
 0001:00047ec0       ??$gjkPenetration@U?$RelativeConvex@VBoxV@Gu@physx@@@Gu@physx@@U?$LocalConvex@VBoxV@Gu@physx@@@23@@Gu@physx@@YA?AW4GjkStatus@01@AEBU?$RelativeConvex@VBoxV@Gu@physx@@@01@AEBU?$LocalConvex@VBoxV@Gu@physx@@@01@AEBT__m128@@2_NPEIAE4AEAEAEAUGjkOutput@01@@Z 0000000180048ec0 f i GuSweepTests.obj
 0001:00047f30       ??$gjkPenetration@U?$RelativeConvex@VBoxV@Gu@physx@@@Gu@physx@@U?$LocalConvex@VBoxV@Gu@physx@@@23@@Gu@physx@@YA?AW4GjkStatus@01@AEBU?$RelativeConvex@VBoxV@Gu@physx@@@01@AEBU?$LocalConvex@VBoxV@Gu@physx@@@01@AEBT__m128@@2_NPEIAE4PEIAT5@5AEAEAEAUGjkOutput@01@@Z 0000000180048f30 f i GuSweepTests.obj
 0001:000499d0       ??$gjkRaycast@U?$LocalConvex@VCapsuleV@Gu@physx@@@Gu@physx@@U?$LocalConvex@VBoxV@Gu@physx@@@23@@Gu@physx@@YA_NAEBU?$LocalConvex@VCapsuleV@Gu@physx@@@01@AEBU?$LocalConvex@VBoxV@Gu@physx@@@01@AEBT__m128@@222AEAT4@33M@Z 000000018004a9d0 f i GuSweepTests.obj
 0001:0004a5b0       ??$gjkRaycast@U?$LocalConvex@VTriangleV@Gu@physx@@@Gu@physx@@U?$LocalConvex@VBoxV@Gu@physx@@@23@@Gu@physx@@YA_NAEBU?$LocalConvex@VTriangleV@Gu@physx@@@01@AEBU?$LocalConvex@VBoxV@Gu@physx@@@01@AEBT__m128@@222AEAT4@33M@Z 000000018004b5b0 f i GuSweepTests.obj
 0001:0004b230       ??$gjkRaycast@U?$RelativeConvex@VBoxV@Gu@physx@@@Gu@physx@@U?$LocalConvex@VBoxV@Gu@physx@@@23@@Gu@physx@@YA_NAEBU?$RelativeConvex@VBoxV@Gu@physx@@@01@AEBU?$LocalConvex@VBoxV@Gu@physx@@@01@AEBT__m128@@222AEAT4@33M@Z 000000018004c230 f i GuSweepTests.obj
 0001:0004be70       ?getSweepFuncTable@Gu@physx@@YAAEBUGeomSweepFuncs@12@XZ 000000018004ce70 f   GuSweepTests.obj
 0001:0004be80       ?getSweepMargin@?$LocalConvex@VTetrahedronV@Gu@physx@@@Gu@physx@@UEBA?AT__m128@@XZ 000000018004ce80 f i GuCookingTetrahedronMesh.obj
 0001:0004be80       ?getSweepMargin@?$LocalConvex@VTriangleV@Gu@physx@@@Gu@physx@@UEBA?AT__m128@@XZ 000000018004ce80 f i GuSweepTests.obj
 0001:0004be80       ?getSweepMargin@?$RelativeConvex@VTriangleV@Gu@physx@@@Gu@physx@@UEBA?AT__m128@@XZ 000000018004ce80 f i GuCCDSweepPrimitives.obj
 0001:0004be90       ?support@?$LocalConvex@VBoxV@Gu@physx@@@Gu@physx@@UEBA?AT__m128@@AEBT4@@Z 000000018004ce90 f i GuSweepTests.obj
 0001:0004bec0       ?support@?$LocalConvex@VBoxV@Gu@physx@@@Gu@physx@@UEBA?AT__m128@@AEBT4@AEAH@Z 000000018004cec0 f i GuSweepTests.obj
 0001:0004bf00       ?support@?$LocalConvex@VTriangleV@Gu@physx@@@Gu@physx@@UEBA?AT__m128@@AEBT4@@Z 000000018004cf00 f i GuSweepTests.obj
 0001:0004bf90       ?support@?$LocalConvex@VTriangleV@Gu@physx@@@Gu@physx@@UEBA?AT__m128@@AEBT4@AEAH@Z 000000018004cf90 f i GuSweepTests.obj
 0001:0004c070       ?supportPoint@?$LocalConvex@VBoxV@Gu@physx@@@Gu@physx@@UEBA?AT__m128@@H@Z 000000018004d070 f i GuSweepTests.obj
 0001:0004c0b0       ?supportPoint@?$LocalConvex@VTetrahedronV@Gu@physx@@@Gu@physx@@UEBA?AT__m128@@H@Z 000000018004d0b0 f i GuCookingTetrahedronMesh.obj
 0001:0004c0b0       ?supportPoint@?$LocalConvex@VTriangleV@Gu@physx@@@Gu@physx@@UEBA?AT__m128@@H@Z 000000018004d0b0 f i GuSweepTests.obj
 0001:0004c0d0       ?sweepBoxTriangles@Gu@physx@@YA_NIPEBVPxTriangle@2@_NAEBVPxBoxGeometry@2@AEBV?$PxTransformT@M@2@AEBV?$PxVec3T@M@2@MAEAUPxGeomSweepHit@2@PEBIMV?$PxFlags@W4Enum@PxHitFlag@physx@@G@2@@Z 000000018004d0d0 f   GuSweepTests.obj
 0001:0004cb10       ??$PxSort@HU?$Comparer@V?$PxVec3T@M@physx@@@MeshAnalyzer@Gu@physx@@V?$PxReflectionAllocator@H@4@@physx@@YAXPEAHIAEBU?$Comparer@V?$PxVec3T@M@physx@@@MeshAnalyzer@Gu@0@AEBV?$PxReflectionAllocator@H@0@I@Z 000000018004db10 f i GuSDF.obj
 0001:0004d180       ??$PxSort@HU?$PxLess@H@physx@@V?$PxReflectionAllocator@H@2@@physx@@YAXPEAHIAEBU?$PxLess@H@0@AEBV?$PxReflectionAllocator@H@0@I@Z 000000018004e180 f i GuSDF.obj
 0001:0004d600       ??$copy@V?$PxReflectionAllocator@I@physx@@@?$PxArray@IV?$PxReflectionAllocator@I@physx@@@physx@@IEAAXAEBV01@@Z 000000018004e600 f i GuSDF.obj
 0001:0004d670       ??$copy@V?$PxReflectionAllocator@M@physx@@@?$PxArray@MV?$PxReflectionAllocator@M@physx@@@physx@@IEAAXAEBV01@@Z 000000018004e670 f i GuSDF.obj
 0001:0004d6d0       ??$copy@V?$PxReflectionAllocator@V?$PxVec3T@M@physx@@@physx@@@?$PxArray@V?$PxVec3T@M@physx@@V?$PxReflectionAllocator@V?$PxVec3T@M@physx@@@2@@physx@@IEAAXAEBV01@@Z 000000018004e6d0 f i GuSDF.obj
 0001:0004d730       ??$mapDuplicatePoints@V?$PxVec3T@M@physx@@M@MeshAnalyzer@Gu@physx@@SAXPEBV?$PxVec3T@M@2@IAEAV?$PxArray@HV?$PxReflectionAllocator@H@physx@@@2@M@Z 000000018004e730 f i GuSDF.obj
 0001:0004dab0       ??$splitRanges@V?$PxVec3T@M@physx@@M@MeshAnalyzer@Gu@physx@@CAXAEAV?$PxArray@URange@MeshAnalyzer@Gu@physx@@V?$PxReflectionAllocator@URange@MeshAnalyzer@Gu@physx@@@4@@2@AEBV?$PxArray@HV?$PxReflectionAllocator@H@physx@@@2@PEBV?$PxVec3T@M@2@HM@Z 000000018004eab0 f i GuSDF.obj
 0001:0004dd20       ??$traverseBVH@VClosestDistanceToTrimeshTraversalController@Gu@physx@@@Gu@physx@@YAXPEBUBVHNode@01@AEAVClosestDistanceToTrimeshTraversalController@01@H@Z 000000018004ed20 f i GuSDF.obj
 0001:0004e120       ??$traverseBVH@VLineSegmentTrimeshIntersectionTraversalController@Gu@physx@@@Gu@physx@@YAXPEBUBVHNode@01@AEAVLineSegmentTrimeshIntersectionTraversalController@01@H@Z 000000018004f120 f i GuSDF.obj
 0001:0004e630       ??0?$PxThreadT@V?$PxReflectionAllocator@VPxThreadImpl@physx@@@physx@@@physx@@QEAA@P6APEAXPEAX@Z0PEBDAEBV?$PxReflectionAllocator@VPxThreadImpl@physx@@@1@@Z 000000018004f630 f i GuSDF.obj
 0001:0004e6f0       ??0CellToPoint@Gu@physx@@QEAA@I@Z 000000018004f6f0 f i GuSDF.obj
 0001:0004e7f0       ??0IsosurfaceThreadData@Gu@physx@@QEAA@AEBU012@@Z 000000018004f7f0 f i GuSDF.obj
 0001:0004e870       ??1CellToPoint@Gu@physx@@QEAA@XZ 000000018004f870 f i GuSDF.obj
 0001:0004e950       ??1IsosurfaceThreadData@Gu@physx@@QEAA@XZ 000000018004f950 f i GuSDF.obj
 0001:0004ea00       ??1SDF@Gu@physx@@QEAA@XZ   000000018004fa00 f   GuSDF.obj
 0001:0004eaa0       ??_E?$PxThreadT@V?$PxReflectionAllocator@VPxThreadImpl@physx@@@physx@@@physx@@UEAAPEAXI@Z 000000018004faa0 f i GuSDF.obj
 0001:0004eaa0       ??_G?$PxThreadT@V?$PxReflectionAllocator@VPxThreadImpl@physx@@@physx@@@physx@@UEAAPEAXI@Z 000000018004faa0 f i GuSDF.obj
 0001:0004eb50       ??_EPxRunnable@physx@@UEAAPEAXI@Z 000000018004fb50 f i GuSDF.obj
 0001:0004eb50       ??_GPxRunnable@physx@@UEAAPEAXI@Z 000000018004fb50 f i GuSDF.obj
 0001:0004eb80       ?PxCreatePointOntoTriangleMeshProjector@Gu@physx@@YAPEAVPxPointOntoTriangleMeshProjector@12@PEBV?$PxVec3T@M@2@PEBII@Z 000000018004fb80 f   GuSDF.obj
 0001:0004ec80       ?SDFUsingWindingNumbers@Gu@physx@@YAXAEAV?$PxArray@UBVHNode@Gu@physx@@V?$PxReflectionAllocator@UBVHNode@Gu@physx@@@3@@2@AEAV?$PxHashMap@IU?$ClusterApproximationT@MV?$PxVec3T@M@physx@@@Gu@physx@@U?$PxHash@I@3@VPxAllocator@3@@2@PEBV?$PxVec3T@M@2@PEBIIIIIPEAMAEAUGridQueryPointSampler@12@PEAV52@I_N7@Z 000000018004fc80 f   GuSDF.obj
 0001:0004f170       ?SDFUsingWindingNumbers@Gu@physx@@YAXPEBV?$PxVec3T@M@2@PEBIIIIIPEAMV32@3PEAV32@_NIPEAVPxSDFBuilder@2@@Z 0000000180050170 f   GuSDF.obj
 0001:0004f600       ?SDFUsingWindingNumbersSparse@Gu@physx@@YAXPEBV?$PxVec3T@M@2@PEBIIIIIAEBV32@2MIAEAV?$PxArray@MV?$PxReflectionAllocator@M@physx@@@2@AEAV?$PxArray@IV?$PxReflectionAllocator@I@physx@@@2@33AEAM5IPEAVPxSDFBuilder@2@@Z 0000000180050600 f   GuSDF.obj
 0001:00050050       ?allocate@?$PxArray@HV?$PxInlineAllocator@$0EAA@V?$PxReflectionAllocator@H@physx@@@physx@@@physx@@IEAAPEAHIPEAI@Z 0000000180051050 f i GuSDF.obj
 0001:00050110       ?allocate@?$PxArray@IV?$PxReflectionAllocator@I@physx@@@physx@@IEAAPEAIIPEAI@Z 0000000180051110 f i GuSDF.obj
 0001:000501a0       ?allocate@?$PxArray@MV?$PxReflectionAllocator@M@physx@@@physx@@IEAAPEAMIPEAI@Z 00000001800511a0 f i GuSDF.obj
 0001:00050230       ?allocate@?$PxArray@V?$PxVec3T@M@physx@@V?$PxReflectionAllocator@V?$PxVec3T@M@physx@@@2@@physx@@IEAAPEAV?$PxVec3T@M@2@IPEAI@Z 0000000180051230 f i GuSDF.obj
 0001:000502d0       ?allocateSdfs@SDF@Gu@physx@@QEAAPEAMAEBV?$PxVec3T@M@3@AEBMIIIIIIIMMI@Z 00000001800512d0 f   GuSDF.obj
 0001:000504e0       ?analyzeAndFixMesh@Gu@physx@@YAXPEBV?$PxVec3T@M@2@PEBIIAEAV?$PxArray@IV?$PxReflectionAllocator@I@physx@@@2@@Z 00000001800514e0 f   GuSDF.obj
 0001:00050da0       ?buildTree@Gu@physx@@YAXPEBIIPEBV?$PxVec3T@M@2@AEAV?$PxArray@UBVHNode@Gu@physx@@V?$PxReflectionAllocator@UBVHNode@Gu@physx@@@3@@2@M@Z 0000000180051da0 f   GuSDF.obj
 0001:00050fc0       ?computeIsosurfaceTrianglesThreadJob@Gu@physx@@YAPEAXPEAX@Z 0000000180051fc0 f   GuSDF.obj
 0001:000513b0       ?computeIsosurfaceVerticesThreadJob@Gu@physx@@YAPEAXPEAX@Z 00000001800523b0 f   GuSDF.obj
 0001:000518a0       ?computeSDFThreadJob@Gu@physx@@YAPEAXPEAX@Z 00000001800528a0 f   GuSDF.obj
 0001:00052370       ?convertSparseSDFTo3DTextureLayout@Gu@physx@@YAXIIIIPEAIPEBMIAEAV?$PxArray@MV?$PxReflectionAllocator@M@physx@@@2@AEAI33@Z 0000000180053370 f   GuSDF.obj
 0001:000526f0       ?copy@?$PxArray@MV?$PxReflectionAllocator@M@physx@@@physx@@KAXPEAM0PEBM@Z 00000001800536f0 f i GuSDF.obj
 0001:00052750       ?copy@?$PxArray@V?$PxVec3T@M@physx@@V?$PxReflectionAllocator@V?$PxVec3T@M@physx@@@2@@physx@@KAXPEAV?$PxVec3T@M@2@0PEBV32@@Z 0000000180053750 f i GuSDF.obj
 0001:00052810       ?create@?$PxHashBase@V?$PxPair@$$CBUSortedTriangle@Gu@physx@@H@physx@@USortedTriangle@Gu@2@UTriangleHash@42@UGetKey@?$PxHashMapBase@USortedTriangle@Gu@physx@@HUTriangleHash@23@VPxAllocator@3@@2@VPxAllocator@2@$00@physx@@QEAAPEAV?$PxPair@$$CBUSortedTriangle@Gu@physx@@H@2@AEBUSortedTriangle@Gu@2@AEA_N@Z 0000000180053810 f i GuSDF.obj
 0001:00052920       ?create@?$PxHashBase@V?$PxPair@$$CB_KH@physx@@_KU?$PxHash@_K@2@UGetKey@?$PxHashMapBase@_KHU?$PxHash@_K@physx@@VPxAllocator@2@@2@VPxAllocator@2@$00@physx@@QEAAPEAV?$PxPair@$$CB_KH@2@AEB_KAEA_N@Z 0000000180053920 f i GuMeshAnalysis.obj
 0001:00052920       ?create@?$PxHashBase@V?$PxPair@$$CB_KI@physx@@_KU?$PxHash@_K@2@UGetKey@?$PxHashMapBase@_KIU?$PxHash@_K@physx@@VPxAllocator@2@@2@VPxAllocator@2@$00@physx@@QEAAPEAV?$PxPair@$$CB_KI@2@AEB_KAEA_N@Z 0000000180053920 f i GuSDF.obj
 0001:00052ab0       ?createTriangles@Gu@physx@@YAXHHHMQEAMAEBUCellToPoint@12@AEBV?$PxArray@V?$PxVec3T@M@physx@@V?$PxReflectionAllocator@V?$PxVec3T@M@physx@@@2@@2@AEAV?$PxArray@IV?$PxReflectionAllocator@I@physx@@@2@@Z 0000000180053ab0 f i GuSDF.obj
 0001:00053320       ?decodeDense@SDF@Gu@physx@@QEBAMHHH@Z 0000000180054320 f   GuSDF.obj
 0001:00053620       ?decodeSparse@SDF@Gu@physx@@QEBAMHHH@Z 0000000180054620 f   GuSDF.obj
 0001:00053630       ?exportExtraData@SDF@Gu@physx@@QEAAXAEAVPxSerializationContext@3@@Z 0000000180054630 f   GuSDF.obj
 0001:000536d0       ?extractIsosurfaceFromSDF@Gu@physx@@YAXAEBVSDF@12@AEAV?$PxArray@V?$PxVec3T@M@physx@@V?$PxReflectionAllocator@V?$PxVec3T@M@physx@@@2@@2@AEAV?$PxArray@IV?$PxReflectionAllocator@I@physx@@@2@I@Z 00000001800546d0 f   GuSDF.obj
 0001:00053fc0       ?extractIsosurfaceFromSDFSerial@Gu@physx@@YAXAEBVSDF@12@AEAV?$PxArray@V?$PxVec3T@M@physx@@V?$PxReflectionAllocator@V?$PxVec3T@M@physx@@@2@@2@AEAV?$PxArray@IV?$PxReflectionAllocator@I@physx@@@2@@Z 0000000180054fc0 f   GuSDF.obj
 0001:00054d80       ?find@CellToPoint@Gu@physx@@QEBAPEBV?$PxPair@$$CB_KI@3@HHH@Z 0000000180055d80 f i GuSDF.obj
 0001:00054e90       ?fixSdfForNonClosedGeometry@Gu@physx@@YAXIIIPEAMAEBV?$PxVec3T@M@2@@Z 0000000180055e90 f   GuSDF.obj
 0001:00055ee0       ?generatePointInCell@Gu@physx@@YA_NAEBVSDF@12@HHHAEAV?$PxVec3T@M@2@QEAY111M@Z 0000000180056ee0 f   GuSDF.obj
 0001:00056330       ?growAndPushBack@?$PxArray@HV?$PxInlineAllocator@$0EAA@V?$PxReflectionAllocator@H@physx@@@physx@@@physx@@IEAAAEAHAEBH@Z 0000000180057330 f i GuSDF.obj
 0001:00056420       ?growAndPushBack@?$PxArray@MV?$PxReflectionAllocator@M@physx@@@physx@@IEAAAEAMAEBM@Z 0000000180057420 f i GuSDF.obj
 0001:00056560       ?growAndPushBack@?$PxArray@PEAV?$PxThreadT@V?$PxReflectionAllocator@VPxThreadImpl@physx@@@physx@@@physx@@V?$PxReflectionAllocator@PEAV?$PxThreadT@V?$PxReflectionAllocator@VPxThreadImpl@physx@@@physx@@@physx@@@2@@physx@@IEAAAEAPEAV?$PxThreadT@V?$PxReflectionAllocator@VPxThreadImpl@physx@@@physx@@@2@AEBQEAV32@@Z 0000000180057560 f i GuSDF.obj
 0001:00056680       ?growAndPushBack@?$PxArray@UIsosurfaceThreadData@Gu@physx@@V?$PxReflectionAllocator@UIsosurfaceThreadData@Gu@physx@@@3@@physx@@IEAAAEAUIsosurfaceThreadData@Gu@2@AEBU342@@Z 0000000180057680 f i GuSDF.obj
 0001:00056850       ?growAndPushBack@?$PxArray@UMutation@Gu@physx@@V?$PxReflectionAllocator@UMutation@Gu@physx@@@3@@physx@@IEAAAEAUMutation@Gu@2@AEBU342@@Z 0000000180057850 f i GuSDF.obj
 0001:00056970       ?growAndPushBack@?$PxArray@URange@Gu@physx@@V?$PxReflectionAllocator@URange@Gu@physx@@@3@@physx@@IEAAAEAURange@Gu@2@AEBU342@@Z 0000000180057970 f i GuSDF.obj
 0001:00056ab0       ?growAndPushBack@?$PxArray@URange@MeshAnalyzer@Gu@physx@@V?$PxReflectionAllocator@URange@MeshAnalyzer@Gu@physx@@@4@@physx@@IEAAAEAURange@MeshAnalyzer@Gu@2@AEBU3452@@Z 0000000180057ab0 f i GuSDF.obj
 0001:00056bd0       ?growAndPushBack@?$PxArray@USDFCalculationData@Gu@physx@@V?$PxReflectionAllocator@USDFCalculationData@Gu@physx@@@3@@physx@@IEAAAEAUSDFCalculationData@Gu@2@AEBU342@@Z 0000000180057bd0 f i GuSDF.obj
 0001:00056d60       ?growAndPushBack@?$PxArray@V?$PxVec3T@M@physx@@V?$PxReflectionAllocator@V?$PxVec3T@M@physx@@@2@@physx@@IEAAAEAV?$PxVec3T@M@2@AEBV32@@Z 0000000180057d60 f i GuSDF.obj
 0001:00056e90       ?importExtraData@SDF@Gu@physx@@QEAAXAEAVPxDeserializationContext@3@@Z 0000000180057e90 f   GuSDF.obj
 0001:00056f00       ?populateSubgridCache@Gu@physx@@YAXAEBVSDF@12@AEAV?$PxArray@MV?$PxReflectionAllocator@M@physx@@@2@HHH@Z 0000000180057f00 f i GuSDF.obj
 0001:000572b0       ?projectPoint@PointOntoTriangleMeshProjector@Gu@physx@@UEAA?AV?$PxVec3T@M@3@AEBV43@@Z 00000001800582b0 f i GuSDF.obj
 0001:00057320       ?projectPoint@PointOntoTriangleMeshProjector@Gu@physx@@UEAA?AV?$PxVec3T@M@3@AEBV43@AEAI@Z 0000000180058320 f i GuSDF.obj
 0001:000573a0       ?recreate@?$PxArray@HV?$PxReflectionAllocator@H@physx@@@physx@@IEAAXI@Z 00000001800583a0 f i GuSDF.obj
 0001:000574a0       ?recreate@?$PxArray@MV?$PxReflectionAllocator@M@physx@@@physx@@IEAAXI@Z 00000001800584a0 f i GuSDF.obj
 0001:000575d0       ?recreate@?$PxArray@PEAUMap@Gu@physx@@V?$PxReflectionAllocator@PEAUMap@Gu@physx@@@3@@physx@@IEAAXI@Z 00000001800585d0 f i GuSDF.obj
 0001:000576d0       ?recreate@?$PxArray@UBVHNode@Gu@physx@@V?$PxReflectionAllocator@UBVHNode@Gu@physx@@@3@@physx@@IEAAXI@Z 00000001800586d0 f i GuSDF.obj
 0001:00057900       ?recreate@?$PxArray@V?$PxVec3T@M@physx@@V?$PxReflectionAllocator@V?$PxVec3T@M@physx@@@2@@physx@@IEAAXI@Z 0000000180058900 f i GuSDF.obj
 0001:000579e0       ?release@PointOntoTriangleMeshProjector@Gu@physx@@UEAAXXZ 00000001800589e0 f i GuSDF.obj
 0001:00057a40       ?reserveInternal@?$PxHashBase@V?$PxPair@$$CBIU?$ClusterApproximationT@MV?$PxVec3T@M@physx@@@Gu@physx@@@physx@@IU?$PxHash@I@2@UGetKey@?$PxHashMapBase@IU?$ClusterApproximationT@MV?$PxVec3T@M@physx@@@Gu@physx@@U?$PxHash@I@3@VPxAllocator@3@@2@VPxAllocator@2@$00@physx@@AEAAXI@Z 0000000180058a40 f i GuSDF.obj
 0001:00057c40       ?reserveInternal@?$PxHashBase@V?$PxPair@$$CBUSortedTriangle@Gu@physx@@H@physx@@USortedTriangle@Gu@2@UTriangleHash@42@UGetKey@?$PxHashMapBase@USortedTriangle@Gu@physx@@HUTriangleHash@23@VPxAllocator@3@@2@VPxAllocator@2@$00@physx@@AEAAXI@Z 0000000180058c40 f i GuSDF.obj
 0001:00057de0       ?reserveInternal@?$PxHashBase@V?$PxPair@$$CB_KH@physx@@_KU?$PxHash@_K@2@UGetKey@?$PxHashMapBase@_KHU?$PxHash@_K@physx@@VPxAllocator@2@@2@VPxAllocator@2@$00@physx@@AEAAXI@Z 0000000180058de0 f i GuSDF.obj
 0001:00057de0       ?reserveInternal@?$PxHashBase@V?$PxPair@$$CB_KI@physx@@_KU?$PxHash@_K@2@UGetKey@?$PxHashMapBase@_KIU?$PxHash@_K@physx@@VPxAllocator@2@@2@VPxAllocator@2@$00@physx@@AEAAXI@Z 0000000180058de0 f i GuSDF.obj
 0001:00057fd0       ?resize@?$PxArray@IV?$PxReflectionAllocator@I@physx@@@physx@@QEAAXIAEBI@Z 0000000180058fd0 f i GuSDF.obj
 0001:00058090       ?resize@?$PxArray@MV?$PxReflectionAllocator@M@physx@@@physx@@QEAAXIAEBM@Z 0000000180059090 f i GuSDF.obj
 0001:00058190       ?resize@?$PxArray@PEAUMap@Gu@physx@@V?$PxReflectionAllocator@PEAUMap@Gu@physx@@@3@@physx@@QEAAXIAEBQEAUMap@Gu@2@@Z 0000000180059190 f i GuSDF.obj
 0001:00058250       ?resize@?$PxArray@UBVHNode@Gu@physx@@V?$PxReflectionAllocator@UBVHNode@Gu@physx@@@3@@physx@@QEAAXIAEBUBVHNode@Gu@2@@Z 0000000180059250 f i GuSDF.obj
 0001:000583c0       ?sampleSDFDirect@DenseSDF@Gu@physx@@QEAAMAEBV?$PxVec3T@M@3@@Z 00000001800593c0 f i GuSDF.obj
 0001:00058570       ?signedVolume@Gu@physx@@YAMPEBV?$PxVec3T@M@2@PEBII1I@Z 0000000180059570 f   GuSDF.obj
 0001:000589d0       ?windingNumbers@Gu@physx@@YAXPEBV?$PxVec3T@M@2@PEBIIIIIPEAMV32@3PEAV32@@Z 00000001800599d0 f   GuSDF.obj
 0001:00058e30       ?windingNumbersInsideCheck@Gu@physx@@YAXPEBV?$PxVec3T@M@2@PEBIIIIIPEA_NV32@3PEAV32@@Z 0000000180059e30 f   GuSDF.obj
 0001:00059810       ??$gjk@U?$RelativeConvex@UCustomConvexV@@@Gu@physx@@U?$LocalConvex@UCustomConvexV@@@23@@Gu@physx@@YA?AW4GjkStatus@01@AEBU?$RelativeConvex@UCustomConvexV@@@01@AEBU?$LocalConvex@UCustomConvexV@@@01@AEBT__m128@@2AEAT5@333@Z 000000018005a810 f i GuGjkQuery.obj
 0001:0005a4a0       ??$gjkPenetration@U?$RelativeConvex@UCustomConvexV@@@Gu@physx@@U?$LocalConvex@UCustomConvexV@@@23@@Gu@physx@@YA?AW4GjkStatus@01@AEBU?$RelativeConvex@UCustomConvexV@@@01@AEBU?$LocalConvex@UCustomConvexV@@@01@AEBT__m128@@2_NPEIAE4PEIAT5@5AEAEAEAUGjkOutput@01@@Z 000000018005b4a0 f i GuGjkQuery.obj
 0001:0005bfc0       ??$gjkPenetration@U?$RelativeConvex@UCustomConvexV@@@Gu@physx@@U?$LocalConvex@UCustomConvexV@@@23@@Gu@physx@@YA?AW4GjkStatus@01@AEBU?$RelativeConvex@UCustomConvexV@@@01@AEBU?$LocalConvex@UCustomConvexV@@@01@AEBT__m128@@2_NPEIAT5@4AEAEAEAUGjkOutput@01@@Z 000000018005cfc0 f i GuGjkQuery.obj
 0001:0005c020       ??$gjkRaycast@U?$RelativeConvex@UCustomConvexV@@@Gu@physx@@U?$LocalConvex@UCustomConvexV@@@23@@Gu@physx@@YA_NAEBU?$RelativeConvex@UCustomConvexV@@@01@AEBU?$LocalConvex@UCustomConvexV@@@01@AEBT__m128@@222AEAT4@33M@Z 000000018005d020 f i GuGjkQuery.obj
 0001:0005cda0       ??$gjkRaycast@U?$RelativeConvex@UCustomConvexV@@@Gu@physx@@U?$LocalConvex@UPointConvexV@@@23@@Gu@physx@@YA_NAEBU?$RelativeConvex@UCustomConvexV@@@01@AEBU?$LocalConvex@UPointConvexV@@@01@AEBT__m128@@222AEAT4@33M@Z 000000018005dda0 f i GuGjkQuery.obj
 0001:0005da10       ?overlap@PxGjkQuery@physx@@SA_NAEBUSupport@12@0AEBV?$PxTransformT@M@2@1@Z 000000018005ea10 f   GuGjkQuery.obj
 0001:0005ddb0       ?proximityInfo@PxGjkQuery@physx@@SA_NAEBUSupport@12@0AEBV?$PxTransformT@M@2@1MMAEAV?$PxVec3T@M@2@22AEAM@Z 000000018005edb0 f   GuGjkQuery.obj
 0001:0005eb20       ?raycast@PxGjkQuery@physx@@SA_NAEBUSupport@12@AEBV?$PxTransformT@M@2@AEBV?$PxVec3T@M@2@2MAEAMAEAV52@4@Z 000000018005fb20 f   GuGjkQuery.obj
 0001:0005f010       ?support@?$LocalConvex@UCustomConvexV@@@Gu@physx@@UEBA?AT__m128@@AEBT4@@Z 0000000180060010 f i GuGjkQuery.obj
 0001:0005f080       ?support@?$LocalConvex@UCustomConvexV@@@Gu@physx@@UEBA?AT__m128@@AEBT4@AEAH@Z 0000000180060080 f i GuGjkQuery.obj
 0001:0005f100       ?support@?$LocalConvex@UPointConvexV@@@Gu@physx@@UEBA?AT__m128@@AEBT4@@Z 0000000180060100 f i GuGjkQuery.obj
 0001:0005f100       ?supportPoint@?$LocalConvex@UPointConvexV@@@Gu@physx@@UEBA?AT__m128@@H@Z 0000000180060100 f i GuGjkQuery.obj
 0001:0005f110       ?support@?$LocalConvex@UPointConvexV@@@Gu@physx@@UEBA?AT__m128@@AEBT4@AEAH@Z 0000000180060110 f i GuGjkQuery.obj
 0001:0005f130       ?support@?$RelativeConvex@UCustomConvexV@@@Gu@physx@@UEBA?AT__m128@@AEBT4@@Z 0000000180060130 f i GuGjkQuery.obj
 0001:0005f200       ?support@?$RelativeConvex@UCustomConvexV@@@Gu@physx@@UEBA?AT__m128@@AEBT4@AEAH@Z 0000000180060200 f i GuGjkQuery.obj
 0001:0005f2d0       ?supportPoint@?$LocalConvex@UCustomConvexV@@@Gu@physx@@UEBA?AT__m128@@H@Z 00000001800602d0 f i GuGjkQuery.obj
 0001:0005f330       ?supportPoint@?$RelativeConvex@UCustomConvexV@@@Gu@physx@@UEBA?AT__m128@@H@Z 0000000180060330 f i GuGjkQuery.obj
 0001:0005f3d0       ?sweep@PxGjkQuery@physx@@SA_NAEBUSupport@12@0AEBV?$PxTransformT@M@2@1AEBV?$PxVec3T@M@2@MAEAMAEAV52@4@Z 00000001800603d0 f   GuGjkQuery.obj
 0001:0005fb90       ??$approximateCluster@MV?$PxVec3T@M@physx@@@Gu@physx@@YAXAEBV?$PxArray@HV?$PxReflectionAllocator@H@physx@@@1@IIPEBIPEBV?$PxVec3T@M@1@AEBV?$PxArray@MV?$PxReflectionAllocator@M@physx@@@1@AEBV?$PxArray@V?$PxVec3T@M@physx@@V?$PxReflectionAllocator@V?$PxVec3T@M@physx@@@2@@1@4AEAU?$ClusterApproximationT@MV?$PxVec3T@M@physx@@@01@@Z 0000000180060b90 f i GuWindingNumber.obj
 0001:00060230       ??$precomputeClusterInformation@MV?$PxVec3T@M@physx@@@Gu@physx@@YAXHPEBUBVHNode@01@PEBIIPEBV?$PxVec3T@M@1@AEAV?$PxHashMap@IU?$ClusterApproximationT@MV?$PxVec3T@M@physx@@@Gu@physx@@U?$PxHash@I@3@VPxAllocator@3@@1@V?$PxArray@MV?$PxReflectionAllocator@M@physx@@@1@AEBV?$PxArray@V?$PxVec3T@M@physx@@V?$PxReflectionAllocator@V?$PxVec3T@M@physx@@@2@@1@5@Z 0000000180061230 f i GuWindingNumber.obj
 0001:00060610       ??$precomputeClusterInformation@MV?$PxVec3T@M@physx@@@Gu@physx@@YAXPEBUBVHNode@01@PEBIIPEBV?$PxVec3T@M@1@AEAV?$PxHashMap@IU?$ClusterApproximationT@MV?$PxVec3T@M@physx@@@Gu@physx@@U?$PxHash@I@3@VPxAllocator@3@@1@H@Z 0000000180061610 f i GuWindingNumber.obj
 0001:00060a30       ??$traverseBVH@V?$WindingNumberTraversalController@MV?$PxVec3T@M@physx@@@Gu@physx@@@Gu@physx@@YAXPEBUBVHNode@01@AEAV?$WindingNumberTraversalController@MV?$PxVec3T@M@physx@@@01@H@Z 0000000180061a30 f i GuWindingNumber.obj
 0001:00060f80       ?computeWindingNumber@Gu@physx@@YAMAEBV?$PxVec3T@M@2@PEBIIPEBV32@@Z 0000000180061f80 f   GuWindingNumber.obj
 0001:000612b0       ?computeWindingNumber@Gu@physx@@YAMPEBUBVHNode@12@AEBV?$PxVec3T@M@2@AEBV?$PxHashMap@IU?$ClusterApproximationT@MV?$PxVec3T@M@physx@@@Gu@physx@@U?$PxHash@I@3@VPxAllocator@3@@2@PEBIPEBV42@@Z 00000001800622b0 f   GuWindingNumber.obj
 0001:00061320       ?computeWindingNumber@Gu@physx@@YAMPEBUBVHNode@12@AEBV?$PxVec3T@M@2@MAEBV?$PxHashMap@IU?$ClusterApproximationT@MV?$PxVec3T@M@physx@@@Gu@physx@@U?$PxHash@I@3@VPxAllocator@3@@2@PEBIPEBV42@@Z 0000000180062320 f   GuWindingNumber.obj
 0001:00061390       ?create@?$PxHashBase@V?$PxPair@$$CBIU?$ClusterApproximationT@MV?$PxVec3T@M@physx@@@Gu@physx@@@physx@@IU?$PxHash@I@2@UGetKey@?$PxHashMapBase@IU?$ClusterApproximationT@MV?$PxVec3T@M@physx@@@Gu@physx@@U?$PxHash@I@3@VPxAllocator@3@@2@VPxAllocator@2@$00@physx@@QEAAPEAV?$PxPair@$$CBIU?$ClusterApproximationT@MV?$PxVec3T@M@physx@@@Gu@physx@@@2@AEBIAEA_N@Z 0000000180062390 f i GuWindingNumber.obj
 0001:000614f0       ?growAndPushBack@?$PxArray@HV?$PxReflectionAllocator@H@physx@@@physx@@IEAAAEAHAEBH@Z 00000001800624f0 f i GuWindingNumber.obj
 0001:00061610       ?growAndPushBack@?$PxArray@USection@Gu@physx@@V?$PxReflectionAllocator@USection@Gu@physx@@@3@@physx@@IEAAAEAUSection@Gu@2@AEBU342@@Z 0000000180062610 f i GuWindingNumber.obj
 0001:00061730       ?precomputeClusterInformation@Gu@physx@@YAXPEBUBVHNode@12@PEBIIPEBV?$PxVec3T@M@2@AEAV?$PxHashMap@IU?$ClusterApproximationT@MV?$PxVec3T@M@physx@@@Gu@physx@@U?$PxHash@I@3@VPxAllocator@3@@2@H@Z 0000000180062730 f   GuWindingNumber.obj
 0001:00061740       ?resize@?$PxArray@V?$PxVec3T@M@physx@@V?$PxReflectionAllocator@V?$PxVec3T@M@physx@@@2@@physx@@QEAAXIAEBV?$PxVec3T@M@2@@Z 0000000180062740 f i GuWindingNumber.obj
 0001:00061830       ?computeMassInfo@Gu@physx@@YAXAEBVPxConvexCoreGeometry@2@AEAMAEAV?$PxMat33T@M@2@AEAV?$PxVec3T@M@2@@Z 0000000180062830 f   GuConvexGeometry.obj
 0001:00062170       ?coneRadiusAtHeight@aux@@YAMMMMM@Z 0000000180063170 f   GuConvexGeometry.obj
 0001:000646e0       ?isGPUCompatible@Gu@physx@@YA_NAEBVPxConvexCoreGeometry@2@@Z 00000001800656e0 f   GuConvexGeometry.obj
 0001:00064720       ?isValid@PxConvexCoreGeometry@physx@@QEBA_NXZ 0000000180065720 f   GuConvexGeometry.obj
 0001:00064820       ?makeConvexShape@Gu@physx@@YA_NAEBVPxGeometry@2@AEBV?$PxTransformT@M@2@AEAUConvexShape@12@@Z 0000000180065820 f   GuConvexGeometry.obj
 0001:000649b0       ?visualize@Gu@physx@@YAXAEBVPxConvexCoreGeometry@2@AEBV?$PxTransformT@M@2@_NAEBVPxBounds3@2@AEAVPxRenderOutput@2@@Z 00000001800659b0 f   GuConvexGeometry.obj
 0001:00064f80       ?SweepAnyShapeHeightfield@Gu@physx@@YAMAEBUCCDShape@12@0AEBUPxTransformPadded@2@111MAEAV?$PxVec3T@M@2@2MAEAIM@Z 0000000180065f80 f   GuCCDSweepConvexMesh.obj
 0001:000664d0       ?SweepAnyShapeMesh@Gu@physx@@YAMAEBUCCDShape@12@0AEBUPxTransformPadded@2@111MAEAV?$PxVec3T@M@2@2MAEAIM@Z 00000001800674d0 f   GuCCDSweepConvexMesh.obj
 0001:00067aa0       ?SweepEstimateAnyShapeHeightfield@Gu@physx@@YAMAEBUCCDShape@12@0MM@Z 0000000180068aa0 f   GuCCDSweepConvexMesh.obj
 0001:00068700       ?SweepEstimateAnyShapeMesh@Gu@physx@@YAMAEBUCCDShape@12@0MM@Z 0000000180069700 f   GuCCDSweepConvexMesh.obj
 0001:000689a0       ?allocate@?$PxArray@IV?$PxInlineAllocator@$0BAA@V?$PxReflectionAllocator@I@physx@@@physx@@@physx@@IEAAPEAIIPEAI@Z 00000001800699a0 f i GuCCDSweepConvexMesh.obj
 0001:000694d0       ?growAndPushBack@?$PxArray@IV?$PxInlineAllocator@$0BAA@V?$PxReflectionAllocator@I@physx@@@physx@@@physx@@IEAAAEAIAEBI@Z 000000018006a4d0 f i GuCCDSweepConvexMesh.obj
 0001:00069b20       ?recreate@?$PxArray@IV?$PxInlineAllocator@$0BAA@V?$PxReflectionAllocator@I@physx@@@physx@@@physx@@IEAAXI@Z 000000018006ab20 f i GuCCDSweepConvexMesh.obj
 0001:00069c60       ?resize@?$PxArray@IV?$PxInlineAllocator@$0BAA@V?$PxReflectionAllocator@I@physx@@@physx@@@physx@@QEAAXIAEBI@Z 000000018006ac60 f i GuCCDSweepConvexMesh.obj
 0001:00069d30       ?transformBoxOrthonormal@physx@@YA?AVBox@Gu@1@AEBV231@AEBV?$PxTransformT@M@1@@Z 000000018006ad30 f i GuCCDSweepConvexMesh.obj
 0001:0006a1c0       ?UnimplementedSweep@Gu@physx@@YAMAEBUCCDShape@12@0AEBUPxTransformPadded@2@111MAEAV?$PxVec3T@M@2@2MAEAIM@Z 000000018006b1c0 f   GuCCDSweepPrimitives.obj
 0001:0006d980       ?UnimplementedTriangleSweep@Gu@physx@@YAMAEBVPxGeometry@2@0AEBUPxTransformPadded@2@111MAEAV?$PxVec3T@M@2@2AEBVFastVertex2ShapeScaling@Cm@2@AEAVTriangleV@12@M@Z 000000018006e980 f   GuCCDSweepPrimitives.obj
 0001:0006d990       ??$SweepGeomTriangles@VCapsuleV@Gu@physx@@@Gu@physx@@YAMAEBVPxGeometry@1@0AEBUPxTransformPadded@1@111MAEAV?$PxVec3T@M@1@2AEBVFastVertex2ShapeScaling@Cm@1@AEAVTriangleV@01@M@Z 000000018006e990 f i GuCCDSweepPrimitives.obj
 0001:0006e0b0       ??$SweepGeomTriangles@VBoxV@Gu@physx@@@Gu@physx@@YAMAEBVPxGeometry@1@0AEBUPxTransformPadded@1@111MAEAV?$PxVec3T@M@1@2AEBVFastVertex2ShapeScaling@Cm@1@AEAVTriangleV@01@M@Z 000000018006f0b0 f i GuCCDSweepPrimitives.obj
 0001:0006e7e0       ??$SweepGeomTriangles@VConvexHullV@Gu@physx@@@Gu@physx@@YAMAEBVPxGeometry@1@0AEBUPxTransformPadded@1@111MAEAV?$PxVec3T@M@1@2AEBVFastVertex2ShapeScaling@Cm@1@AEAVTriangleV@01@M@Z 000000018006f7e0 f i GuCCDSweepPrimitives.obj
 0001:0006f0a0       ?supportPoint@?$RelativeConvex@VCapsuleV@Gu@physx@@@Gu@physx@@UEBA?AT__m128@@H@Z 00000001800700a0 f i GuCCDSweepPrimitives.obj
 0001:0006f100       ?support@?$RelativeConvex@VCapsuleV@Gu@physx@@@Gu@physx@@UEBA?AT__m128@@AEBT4@@Z 0000000180070100 f i GuCCDSweepPrimitives.obj
 0001:0006f1b0       ?support@?$RelativeConvex@VCapsuleV@Gu@physx@@@Gu@physx@@UEBA?AT__m128@@AEBT4@AEAH@Z 00000001800701b0 f i GuCCDSweepPrimitives.obj
 0001:0006f270       ?supportPoint@?$RelativeConvex@VTriangleV@Gu@physx@@@Gu@physx@@UEBA?AT__m128@@H@Z 0000000180070270 f i GuCCDSweepPrimitives.obj
 0001:0006f2c0       ?support@?$RelativeConvex@VTriangleV@Gu@physx@@@Gu@physx@@UEBA?AT__m128@@AEBT4@@Z 00000001800702c0 f i GuCCDSweepPrimitives.obj
 0001:0006f3a0       ?support@?$RelativeConvex@VTriangleV@Gu@physx@@@Gu@physx@@UEBA?AT__m128@@AEBT4@AEAH@Z 00000001800703a0 f i GuCCDSweepPrimitives.obj
 0001:0006f4e0       ??$gjkPenetration@U?$RelativeConvex@VCapsuleV@Gu@physx@@@Gu@physx@@U?$LocalConvex@VBoxV@Gu@physx@@@23@@Gu@physx@@YA?AW4GjkStatus@01@AEBU?$RelativeConvex@VCapsuleV@Gu@physx@@@01@AEBU?$LocalConvex@VBoxV@Gu@physx@@@01@AEBT__m128@@2_NPEIAE4AEAEAEAUGjkOutput@01@@Z 00000001800704e0 f i GuCCDSweepPrimitives.obj
 0001:0006f550       ??$gjkPenetration@U?$RelativeConvex@VCapsuleV@Gu@physx@@@Gu@physx@@U?$LocalConvex@VBoxV@Gu@physx@@@23@@Gu@physx@@YA?AW4GjkStatus@01@AEBU?$RelativeConvex@VCapsuleV@Gu@physx@@@01@AEBU?$LocalConvex@VBoxV@Gu@physx@@@01@AEBT__m128@@2_NPEIAE4PEIAT5@5AEAEAEAUGjkOutput@01@@Z 0000000180070550 f i GuCCDSweepPrimitives.obj
 0001:00071010       ??$gjkPenetration@U?$RelativeConvex@VCapsuleV@Gu@physx@@@Gu@physx@@U?$LocalConvex@VCapsuleV@Gu@physx@@@23@@Gu@physx@@YA?AW4GjkStatus@01@AEBU?$RelativeConvex@VCapsuleV@Gu@physx@@@01@AEBU?$LocalConvex@VCapsuleV@Gu@physx@@@01@AEBT__m128@@2_NPEIAE4AEAEAEAUGjkOutput@01@@Z 0000000180072010 f i GuCCDSweepPrimitives.obj
 0001:00071080       ??$gjkPenetration@U?$RelativeConvex@VCapsuleV@Gu@physx@@@Gu@physx@@U?$LocalConvex@VCapsuleV@Gu@physx@@@23@@Gu@physx@@YA?AW4GjkStatus@01@AEBU?$RelativeConvex@VCapsuleV@Gu@physx@@@01@AEBU?$LocalConvex@VCapsuleV@Gu@physx@@@01@AEBT__m128@@2_NPEIAE4PEIAT5@5AEAEAEAUGjkOutput@01@@Z 0000000180072080 f i GuCCDSweepPrimitives.obj
 0001:00072b30       ??$gjkPenetration@U?$RelativeConvex@VCapsuleV@Gu@physx@@@Gu@physx@@U?$LocalConvex@VConvexHullV@Gu@physx@@@23@@Gu@physx@@YA?AW4GjkStatus@01@AEBU?$RelativeConvex@VCapsuleV@Gu@physx@@@01@AEBU?$LocalConvex@VConvexHullV@Gu@physx@@@01@AEBT__m128@@2_NPEIAE4AEAEAEAUGjkOutput@01@@Z 0000000180073b30 f i GuCCDSweepPrimitives.obj
 0001:00072ba0       ??$gjkPenetration@U?$RelativeConvex@VCapsuleV@Gu@physx@@@Gu@physx@@U?$LocalConvex@VConvexHullV@Gu@physx@@@23@@Gu@physx@@YA?AW4GjkStatus@01@AEBU?$RelativeConvex@VCapsuleV@Gu@physx@@@01@AEBU?$LocalConvex@VConvexHullV@Gu@physx@@@01@AEBT__m128@@2_NPEIAE4PEIAT5@5AEAEAEAUGjkOutput@01@@Z 0000000180073ba0 f i GuCCDSweepPrimitives.obj
 0001:000746e0       ??$gjkPenetration@U?$RelativeConvex@VTriangleV@Gu@physx@@@Gu@physx@@U?$LocalConvex@VBoxV@Gu@physx@@@23@@Gu@physx@@YA?AW4GjkStatus@01@AEBU?$RelativeConvex@VTriangleV@Gu@physx@@@01@AEBU?$LocalConvex@VBoxV@Gu@physx@@@01@AEBT__m128@@2_NPEIAE4AEAEAEAUGjkOutput@01@@Z 00000001800756e0 f i GuCCDSweepPrimitives.obj
 0001:00074750       ??$gjkPenetration@U?$RelativeConvex@VTriangleV@Gu@physx@@@Gu@physx@@U?$LocalConvex@VBoxV@Gu@physx@@@23@@Gu@physx@@YA?AW4GjkStatus@01@AEBU?$RelativeConvex@VTriangleV@Gu@physx@@@01@AEBU?$LocalConvex@VBoxV@Gu@physx@@@01@AEBT__m128@@2_NPEIAE4PEIAT5@5AEAEAEAUGjkOutput@01@@Z 0000000180075750 f i GuCCDSweepPrimitives.obj
 0001:00076250       ??$gjkPenetration@U?$RelativeConvex@VTriangleV@Gu@physx@@@Gu@physx@@U?$LocalConvex@VCapsuleV@Gu@physx@@@23@@Gu@physx@@YA?AW4GjkStatus@01@AEBU?$RelativeConvex@VTriangleV@Gu@physx@@@01@AEBU?$LocalConvex@VCapsuleV@Gu@physx@@@01@AEBT__m128@@2_NPEIAE4AEAEAEAUGjkOutput@01@@Z 0000000180077250 f i GuCCDSweepPrimitives.obj
 0001:000762c0       ??$gjkPenetration@U?$RelativeConvex@VTriangleV@Gu@physx@@@Gu@physx@@U?$LocalConvex@VCapsuleV@Gu@physx@@@23@@Gu@physx@@YA?AW4GjkStatus@01@AEBU?$RelativeConvex@VTriangleV@Gu@physx@@@01@AEBU?$LocalConvex@VCapsuleV@Gu@physx@@@01@AEBT__m128@@2_NPEIAE4PEIAT5@5AEAEAEAUGjkOutput@01@@Z 00000001800772c0 f i GuCCDSweepPrimitives.obj
 0001:00077dd0       ??$gjkPenetration@U?$RelativeConvex@VTriangleV@Gu@physx@@@Gu@physx@@U?$LocalConvex@VConvexHullV@Gu@physx@@@23@@Gu@physx@@YA?AW4GjkStatus@01@AEBU?$RelativeConvex@VTriangleV@Gu@physx@@@01@AEBU?$LocalConvex@VConvexHullV@Gu@physx@@@01@AEBT__m128@@2_NPEIAE4AEAEAEAUGjkOutput@01@@Z 0000000180078dd0 f i GuCCDSweepPrimitives.obj
 0001:00077e40       ??$gjkPenetration@U?$RelativeConvex@VTriangleV@Gu@physx@@@Gu@physx@@U?$LocalConvex@VConvexHullV@Gu@physx@@@23@@Gu@physx@@YA?AW4GjkStatus@01@AEBU?$RelativeConvex@VTriangleV@Gu@physx@@@01@AEBU?$LocalConvex@VConvexHullV@Gu@physx@@@01@AEBT__m128@@2_NPEIAE4PEIAT5@5AEAEAEAUGjkOutput@01@@Z 0000000180078e40 f i GuCCDSweepPrimitives.obj
 0001:000799e0       ??$gjkRaycast@U?$RelativeConvex@VCapsuleV@Gu@physx@@@Gu@physx@@U?$LocalConvex@VBoxV@Gu@physx@@@23@@Gu@physx@@YA_NAEBU?$RelativeConvex@VCapsuleV@Gu@physx@@@01@AEBU?$LocalConvex@VBoxV@Gu@physx@@@01@AEBT__m128@@222AEAT4@33M@Z 000000018007a9e0 f i GuCCDSweepPrimitives.obj
 0001:0007a670       ??$gjkRaycast@U?$RelativeConvex@VCapsuleV@Gu@physx@@@Gu@physx@@U?$LocalConvex@VCapsuleV@Gu@physx@@@23@@Gu@physx@@YA_NAEBU?$RelativeConvex@VCapsuleV@Gu@physx@@@01@AEBU?$LocalConvex@VCapsuleV@Gu@physx@@@01@AEBT__m128@@222AEAT4@33M@Z 000000018007b670 f i GuCCDSweepPrimitives.obj
 0001:0007b370       ??$gjkRaycast@U?$RelativeConvex@VCapsuleV@Gu@physx@@@Gu@physx@@U?$LocalConvex@VConvexHullV@Gu@physx@@@23@@Gu@physx@@YA_NAEBU?$RelativeConvex@VCapsuleV@Gu@physx@@@01@AEBU?$LocalConvex@VConvexHullV@Gu@physx@@@01@AEBT__m128@@222AEAT4@33M@Z 000000018007c370 f i GuCCDSweepPrimitives.obj
 0001:0007c1a0       ??$gjkRaycast@U?$RelativeConvex@VTriangleV@Gu@physx@@@Gu@physx@@U?$LocalConvex@VBoxV@Gu@physx@@@23@@Gu@physx@@YA_NAEBU?$RelativeConvex@VTriangleV@Gu@physx@@@01@AEBU?$LocalConvex@VBoxV@Gu@physx@@@01@AEBT__m128@@222AEAT4@33M@Z 000000018007d1a0 f i GuCCDSweepPrimitives.obj
 0001:0007ced0       ??$gjkRaycast@U?$RelativeConvex@VTriangleV@Gu@physx@@@Gu@physx@@U?$LocalConvex@VCapsuleV@Gu@physx@@@23@@Gu@physx@@YA_NAEBU?$RelativeConvex@VTriangleV@Gu@physx@@@01@AEBU?$LocalConvex@VCapsuleV@Gu@physx@@@01@AEBT__m128@@222AEAT4@33M@Z 000000018007ded0 f i GuCCDSweepPrimitives.obj
 0001:0007dc90       ??$gjkRaycast@U?$RelativeConvex@VTriangleV@Gu@physx@@@Gu@physx@@U?$LocalConvex@VConvexHullV@Gu@physx@@@23@@Gu@physx@@YA_NAEBU?$RelativeConvex@VTriangleV@Gu@physx@@@01@AEBU?$LocalConvex@VConvexHullV@Gu@physx@@@01@AEBT__m128@@222AEAT4@33M@Z 000000018007ec90 f i GuCCDSweepPrimitives.obj
 0001:0007eb40       ??$gjkRaycastPenetration@U?$RelativeConvex@VCapsuleV@Gu@physx@@@Gu@physx@@U?$LocalConvex@VConvexHullV@Gu@physx@@@23@@Gu@physx@@YA_NAEBU?$RelativeConvex@VCapsuleV@Gu@physx@@@01@AEBU?$LocalConvex@VConvexHullV@Gu@physx@@@01@AEBT__m128@@222AEAT4@33M_N@Z 000000018007fb40 f i GuCCDSweepPrimitives.obj
 0001:0007edd0       ??$gjkRaycastPenetration@U?$RelativeConvex@VTriangleV@Gu@physx@@@Gu@physx@@U?$LocalConvex@VConvexHullV@Gu@physx@@@23@@Gu@physx@@YA_NAEBU?$RelativeConvex@VTriangleV@Gu@physx@@@01@AEBU?$LocalConvex@VConvexHullV@Gu@physx@@@01@AEBT__m128@@222AEAT4@33M_N@Z 000000018007fdd0 f i GuCCDSweepPrimitives.obj
 0001:0007f060       ?SweepShapeShape@Gu@physx@@YAMAEBUCCDShape@12@0AEBUPxTransformPadded@2@111MAEAV?$PxVec3T@M@2@2MAEAIM@Z 0000000180080060 f   GuCCDSweepPrimitives.obj
 0001:0007f090       ?SweepShapeTriangle@Gu@physx@@YAMAEBVPxGeometry@2@0AEBUPxTransformPadded@2@111MAEAV?$PxVec3T@M@2@2AEBVFastVertex2ShapeScaling@Cm@2@AEAVTriangleV@12@M@Z 0000000180080090 f   GuCCDSweepPrimitives.obj
 0001:0007f0b0       ?barycentricCoordinates@Gu@physx@@YAXAEBT__m128@@000AEAT3@1@Z 00000001800800b0 f   GuBarycentricCoordinates.obj
 0001:0007f200       ?barycentricCoordinates@Gu@physx@@YAXAEBT__m128@@00AEAT3@@Z 0000000180080200 f   GuBarycentricCoordinates.obj
 0001:0007f270       ??$?_UV?$PxReflectionAllocator@VAdjTriangle@Gu@physx@@@physx@@@PxUserAllocated@physx@@SAPEAX_KV?$PxReflectionAllocator@VAdjTriangle@Gu@physx@@@1@PEBDH@Z 0000000180080270 f i GuAdjacencies.obj
 0001:0007f360       ??0AdjacenciesBuilder@Gu@physx@@QEAA@XZ 0000000180080360 f   GuAdjacencies.obj
 0001:0007f370       ??1AdjacenciesBuilder@Gu@physx@@QEAA@XZ 0000000180080370 f   GuAdjacencies.obj
 0001:0007f3c0       ?ComputeNbBoundaryEdges@Adjacencies@Gu@physx@@QEBAIXZ 00000001800803c0 f   GuAdjacencies.obj
 0001:0007f660       ?Init@AdjacenciesBuilder@Gu@physx@@QEAA_NAEBUADJACENCIESCREATE@23@@Z 0000000180080660 f   GuAdjacencies.obj
 0001:0007fca0       ??0EdgeList@Gu@physx@@QEAA@XZ 0000000180080ca0 f   GuEdgeList.obj
 0001:0007fcc0       ??1EdgeList@Gu@physx@@QEAA@XZ 0000000180080cc0 f   GuEdgeList.obj
 0001:0007fd80       ?computeActiveEdges@EdgeList@Gu@physx@@AEAA_NIPEBIPEBGPEBV?$PxVec3T@M@3@M@Z 0000000180080d80 f   GuEdgeList.obj
 0001:00081130       ?createEdgesToFaces@EdgeList@Gu@physx@@AEAA_NIPEBIPEBG@Z 0000000180082130 f   GuEdgeList.obj
 0001:00081390       ?createFacesToEdges@EdgeList@Gu@physx@@AEAA_NIPEBIPEBG@Z 0000000180082390 f   GuEdgeList.obj
 0001:00081820       ?init@EdgeList@Gu@physx@@QEAA_NAEBUEDGELISTCREATE@23@@Z 0000000180082820 f   GuEdgeList.obj
 0001:00081960       ?addAxis@SeparatingAxes@Gu@physx@@QEAA_NAEBV?$PxVec3T@M@3@@Z 0000000180082960 f   GuSeparatingAxes.obj
 0001:00081a20       ??$kmeans_cluster@V?$PxVec3T@M@physx@@M@@YAIPEBV?$PxVec3T@M@physx@@IIPEAV01@PEAIMM@Z 0000000180082a20 f i GuQuantizer.obj
 0001:00082400       ??_EQuantizer@Gu@physx@@MEAAPEAXI@Z 0000000180083400 f i GuQuantizer.obj
 0001:00082400       ??_GQuantizer@Gu@physx@@MEAAPEAXI@Z 0000000180083400 f i GuQuantizer.obj
 0001:00082430       ??_EQuantizerImpl@@EEAAPEAXI@Z 0000000180083430 f i GuQuantizer.obj
 0001:00082430       ??_GQuantizerImpl@@EEAAPEAXI@Z 0000000180083430 f i GuQuantizer.obj
 0001:00082510       ?createQuantizer@Gu@physx@@YAPEAVQuantizer@12@XZ 0000000180083510 f   GuQuantizer.obj
 0001:000825c0       ?getDenormalizeCenter@QuantizerImpl@@UEBAAEBV?$PxVec3T@M@physx@@XZ 00000001800835c0 f i GuQuantizer.obj
 0001:000825d0       ?getCurrentAABBTreeBounds@PruningPool@Gu@physx@@QEBAAEBVAABBTreeBounds@23@XZ 00000001800835d0 f i GuIncrementalAABBPrunerCore.obj
 0001:000825d0       ?getDenormalizeScale@QuantizerImpl@@UEBAAEBV?$PxVec3T@M@physx@@XZ 00000001800835d0 f i GuQuantizer.obj
 0001:000825e0       ?kmeansQuantize3D@QuantizerImpl@@UEAAPEBV?$PxVec3T@M@physx@@IPEBV23@I_NIAEAI@Z 00000001800835e0 f i GuQuantizer.obj
 0001:00082850       ?normalizeInput@QuantizerImpl@@AEAAXIPEBV?$PxVec3T@M@physx@@I@Z 0000000180083850 f i GuQuantizer.obj
 0001:00082c50       ?release@QuantizerImpl@@UEAAXXZ 0000000180083c50 f i GuQuantizer.obj
 0001:00082c70       ??0MeshCleaner@Gu@physx@@QEAA@IPEBV?$PxVec3T@M@2@IPEBIMM@Z 0000000180083c70 f   GuMeshCleaner.obj
 0001:000836b0       ??1MeshCleaner@Gu@physx@@QEAA@XZ 00000001800846b0 f   GuMeshCleaner.obj
 0001:00083740       ??0ReducedVertexCloud@Gu@physx@@QEAA@PEBV?$PxVec3T@M@2@I@Z 0000000180084740 f   GuVertexReducer.obj
 0001:00083760       ??1ReducedVertexCloud@Gu@physx@@QEAA@XZ 0000000180084760 f   GuVertexReducer.obj
 0001:00083770       ?clean@ReducedVertexCloud@Gu@physx@@QEAAAEAV123@XZ 0000000180084770 f   GuVertexReducer.obj
 0001:000837e0       ?reduce@ReducedVertexCloud@Gu@physx@@QEAA_NPEAUREDUCEDCLOUD@23@@Z 00000001800847e0 f   GuVertexReducer.obj
 0001:00083a90       ?buildConsistentTriangleOrientationMap@MeshAnalyzer@Gu@physx@@SA_NPEBU?$IndexedTriangleT@H@23@IAEAV?$PxArray@_NV?$PxReflectionAllocator@_N@physx@@@3@AEAV?$PxHashMap@_KHU?$PxHash@_K@physx@@VPxAllocator@2@@3@AEAV?$PxArray@V?$PxArray@IV?$PxReflectionAllocator@I@physx@@@physx@@V?$PxReflectionAllocator@V?$PxArray@IV?$PxReflectionAllocator@I@physx@@@physx@@@2@@3@@Z 0000000180084a90 f   GuMeshAnalysis.obj
 0001:00084000       ?buildTriangleAdjacency@MeshAnalyzer@Gu@physx@@SA_NPEBU?$IndexedTriangleT@H@23@IAEAV?$PxArray@HV?$PxReflectionAllocator@H@physx@@@3@AEAV?$PxHashMap@_KHU?$PxHash@_K@physx@@VPxAllocator@2@@3@@Z 0000000180085000 f   GuMeshAnalysis.obj
 0001:00084310       ?checkConsistentTriangleOrientation@MeshAnalyzer@Gu@physx@@SA_NPEBU?$IndexedTriangleT@H@23@I@Z 0000000180085310 f   GuMeshAnalysis.obj
 0001:00084460       ?checkMeshWatertightness@MeshAnalyzer@Gu@physx@@SA_NPEBU?$IndexedTriangleT@H@23@I_N@Z 0000000180085460 f   GuMeshAnalysis.obj
 0001:00084630       ?destroy@?$PxArray@V?$PxArray@IV?$PxReflectionAllocator@I@physx@@@physx@@V?$PxReflectionAllocator@V?$PxArray@IV?$PxReflectionAllocator@I@physx@@@physx@@@2@@physx@@KAXPEAV?$PxArray@IV?$PxReflectionAllocator@I@physx@@@2@0@Z 0000000180085630 f i GuMeshAnalysis.obj
 0001:000846a0       ?erase@?$PxHashBase@V?$PxPair@$$CB_KH@physx@@_KU?$PxHash@_K@2@UGetKey@?$PxHashMapBase@_KHU?$PxHash@_K@physx@@VPxAllocator@2@@2@VPxAllocator@2@$00@physx@@QEAA_NAEB_K@Z 00000001800856a0 f i GuMeshAnalysis.obj
 0001:00084850       ?growAndPushBack@?$PxArray@V?$PxArray@IV?$PxReflectionAllocator@I@physx@@@physx@@V?$PxReflectionAllocator@V?$PxArray@IV?$PxReflectionAllocator@I@physx@@@physx@@@2@@physx@@IEAAAEAV?$PxArray@IV?$PxReflectionAllocator@I@physx@@@2@AEBV32@@Z 0000000180085850 f i GuMeshAnalysis.obj
 0001:000849a0       ?makeTriOrientationConsistent@MeshAnalyzer@Gu@physx@@SA_NPEAU?$IndexedTriangleT@H@23@I_N@Z 00000001800859a0 f   GuMeshAnalysis.obj
 0001:00084b10       ?recreate@?$PxArray@_NV?$PxReflectionAllocator@_N@physx@@@physx@@IEAAXI@Z 0000000180085b10 f i GuMeshAnalysis.obj
 0001:00084c10       ?resize@?$PxArray@HV?$PxReflectionAllocator@H@physx@@@physx@@QEAAXIAEBH@Z 0000000180085c10 f i GuMeshAnalysis.obj
 0001:00084cd0       ?resize@?$PxArray@_NV?$PxReflectionAllocator@_N@physx@@@physx@@QEAAXIAEB_N@Z 0000000180085cd0 f i GuMeshAnalysis.obj
 0001:00084d90       ?contactBoxBox@Gu@physx@@YA_NAEBVPxGeometry@2@0AEBUPxTransformPadded@2@1AEBUNarrowPhaseParams@12@AEAUCache@12@AEAVPxContactBuffer@2@PEAVPxRenderOutput@2@@Z 0000000180085d90 f   GuContactBoxBox.obj
 0001:00088a30       ?contactCapsuleBox@Gu@physx@@YA_NAEBVPxGeometry@2@0AEBUPxTransformPadded@2@1AEBUNarrowPhaseParams@12@AEAUCache@12@AEAVPxContactBuffer@2@PEAVPxRenderOutput@2@@Z 0000000180089a30 f   GuContactCapsuleBox.obj
 0001:00089230       ?contactCapsuleCapsule@Gu@physx@@YA_NAEBVPxGeometry@2@0AEBUPxTransformPadded@2@1AEBUNarrowPhaseParams@12@AEAUCache@12@AEAVPxContactBuffer@2@PEAVPxRenderOutput@2@@Z 000000018008a230 f   GuContactCapsuleCapsule.obj
 0001:0008bcf0       ?contactCapsuleConvex@Gu@physx@@YA_NAEBVPxGeometry@2@0AEBUPxTransformPadded@2@1AEBUNarrowPhaseParams@12@AEAUCache@12@AEAVPxContactBuffer@2@PEAVPxRenderOutput@2@@Z 000000018008ccf0 f   GuContactCapsuleConvex.obj
 0001:0008e250       ?contactCapsuleHeightfield@Gu@physx@@YA_NAEBVPxGeometry@2@0AEBUPxTransformPadded@2@1AEBUNarrowPhaseParams@12@AEAUCache@12@AEAVPxContactBuffer@2@PEAVPxRenderOutput@2@@Z 000000018008f250 f   GuContactCapsuleMesh.obj
 0001:0008ea10       ?contactCapsuleMesh@Gu@physx@@YA_NAEBVPxGeometry@2@0AEBUPxTransformPadded@2@1AEBUNarrowPhaseParams@12@AEAUCache@12@AEAVPxContactBuffer@2@PEAVPxRenderOutput@2@@Z 000000018008fa10 f   GuContactCapsuleMesh.obj
 0001:0008fb70       ?transformQueryBounds@FastVertex2ShapeScaling@Cm@physx@@QEBAXAEAV?$PxVec3T@M@3@0AEAV?$PxMat33T@M@3@@Z 0000000180090b70 f i GuContactCapsuleMesh.obj
 0001:00093f00       ?contactBoxConvex@Gu@physx@@YA_NAEBVPxGeometry@2@0AEBUPxTransformPadded@2@1AEBUNarrowPhaseParams@12@AEAUCache@12@AEAVPxContactBuffer@2@PEAVPxRenderOutput@2@@Z 0000000180094f00 f   GuContactConvexConvex.obj
 0001:000940d0       ?contactConvexConvex@Gu@physx@@YA_NAEBVPxGeometry@2@0AEBUPxTransformPadded@2@1AEBUNarrowPhaseParams@12@AEAUCache@12@AEAVPxContactBuffer@2@PEAVPxRenderOutput@2@@Z 00000001800950d0 f   GuContactConvexConvex.obj
 0001:00094530       ?transformPlaneToShapeSpace@FastVertex2ShapeScaling@Cm@physx@@QEBAXAEBV?$PxVec3T@M@3@MAEAV43@AEAM@Z 0000000180095530 f i GuContactConvexConvex.obj
 0001:00094a00       ??_EConvexMeshContactGenerationCallback@@UEAAPEAXI@Z 0000000180095a00 f i GuContactConvexMesh.obj
 0001:00094a00       ??_GConvexMeshContactGenerationCallback@@UEAAPEAXI@Z 0000000180095a00 f i GuContactConvexMesh.obj
 0001:00094a60       ?addData@?$CacheMap@UCachedEdge@Gu@physx@@$0IA@@Gu@physx@@QEAA_NAEBUCachedEdge@23@@Z 0000000180095a60 f i GuContactConvexMesh.obj
 0001:00094b40       ?addData@?$CacheMap@UCachedVertex@Gu@physx@@$0IA@@Gu@physx@@QEAA_NAEBUCachedVertex@23@@Z 0000000180095b40 f i GuContactConvexMesh.obj
 0001:00094be0       ?allocate@?$PxArray@IV?$PxInlineAllocator@$0BBAA@V?$PxReflectionAllocator@I@physx@@@physx@@@physx@@IEAAPEAIIPEAI@Z 0000000180095be0 f i GuContactConvexMesh.obj
 0001:00094fe0       ?contactBoxHeightfield@Gu@physx@@YA_NAEBVPxGeometry@2@0AEBUPxTransformPadded@2@1AEBUNarrowPhaseParams@12@AEAUCache@12@AEAVPxContactBuffer@2@PEAVPxRenderOutput@2@@Z 0000000180095fe0 f   GuContactConvexMesh.obj
 0001:00095160       ?contactBoxMesh@Gu@physx@@YA_NAEBVPxGeometry@2@0AEBUPxTransformPadded@2@1AEBUNarrowPhaseParams@12@AEAUCache@12@AEAVPxContactBuffer@2@PEAVPxRenderOutput@2@@Z 0000000180096160 f   GuContactConvexMesh.obj
 0001:00095330       ?contactConvexHeightfield@Gu@physx@@YA_NAEBVPxGeometry@2@0AEBUPxTransformPadded@2@1AEBUNarrowPhaseParams@12@AEAUCache@12@AEAVPxContactBuffer@2@PEAVPxRenderOutput@2@@Z 0000000180096330 f   GuContactConvexMesh.obj
 0001:00095480       ?contactConvexMesh@Gu@physx@@YA_NAEBVPxGeometry@2@0AEBUPxTransformPadded@2@1AEBUNarrowPhaseParams@12@AEAUCache@12@AEAVPxContactBuffer@2@PEAVPxRenderOutput@2@@Z 0000000180096480 f   GuContactConvexMesh.obj
 0001:00096860       ?contains@?$CacheMap@UCachedEdge@Gu@physx@@$0IA@@Gu@physx@@QEBA_NAEBUCachedEdge@23@@Z 0000000180097860 f i GuContactConvexMesh.obj
 0001:00098bf0       ?processHit@ConvexMeshContactGenerationCallback@@UEAA_NAEBUPxGeomRaycastHit@physx@@AEBV?$PxVec3T@M@3@11AEAMPEBI@Z 0000000180099bf0 f i GuContactConvexMesh.obj
 0001:00099510       ?recreate@?$PxArray@IV?$PxInlineAllocator@$0BBAA@V?$PxReflectionAllocator@I@physx@@@physx@@@physx@@IEAAXI@Z 000000018009a510 f i GuContactConvexMesh.obj
 0001:0009d6f0       ??0?$EpaDepth@UConvexShape@Gu@physx@@@RefGjkEpa@Gu@physx@@QEAA@AEAU?$Convex@UConvexShape@Gu@physx@@@123@0@Z 000000018009e6f0 f i GuContactConvexCoreMesh.obj
 0001:0009da20       ?PxComputeBasisVectors@physx@@YAXAEBV?$PxVec3T@M@1@AEAV21@1@Z 000000018009ea20 f i GuContactConvexCoreMesh.obj
 0001:0009db50       ?addPatch@Contact@Gu@physx@@IEAAXAEBV?$PxVec3T@M@3@AEBUPoint@123@@Z 000000018009eb50 f i GuContactConvexCoreMesh.obj
 0001:0009df30       ?addPatchPoint@Contact@Gu@physx@@IEAAXIAEBUPoint@123@@Z 000000018009ef30 f i GuContactConvexCoreMesh.obj
 0001:0009e250       ?addPoint@?$EpaDepth@UConvexShape@Gu@physx@@@RefGjkEpa@Gu@physx@@QEAAMAEBV?$PxVec3T@M@4@@Z 000000018009f250 f i GuContactConvexCoreMesh.obj
 0001:0009e770       ?clip2x2@FaceClipper@Gu@physx@@AEAAXXZ 000000018009f770 f i GuContactConvexCoreMesh.obj
 0001:0009f320       ?clipNone@FaceClipper@Gu@physx@@AEAAXXZ 00000001800a0320 f i GuContactConvexCoreMesh.obj
 0001:0009f3e0       ?clipNxN@FaceClipper@Gu@physx@@AEAAXXZ 00000001800a03e0 f i GuContactConvexCoreMesh.obj
 0001:0009fc10       ?computePoints@?$EpaDepth@UConvexShape@Gu@physx@@@RefGjkEpa@Gu@physx@@QEAAXAEAV?$PxVec3T@M@4@0@Z 00000001800a0c10 f i GuContactConvexCoreMesh.obj
 0001:000a0190       ?contactConvexCoreHeightfield@Gu@physx@@YA_NAEBVPxGeometry@2@0AEBUPxTransformPadded@2@1AEBUNarrowPhaseParams@12@AEAUCache@12@AEAVPxContactBuffer@2@PEAVPxRenderOutput@2@@Z 00000001800a1190 f   GuContactConvexCoreMesh.obj
 0001:000a0970       ?contactConvexCoreTrimesh@Gu@physx@@YA_NAEBVPxGeometry@2@0AEBUPxTransformPadded@2@1AEBUNarrowPhaseParams@12@AEAUCache@12@AEAVPxContactBuffer@2@PEAVPxRenderOutput@2@@Z 00000001800a1970 f   GuContactConvexCoreMesh.obj
 0001:000a10d0       ?contactFace@ConvexShape@Gu@physx@@QEBAIAEBV?$PxVec3T@M@3@0AEAV43@QEAV43@@Z 00000001800a20d0 f i GuContactConvexCoreMesh.obj
 0001:000a1d30       ?getTriangleVertexIndices@HeightField@Gu@physx@@QEBAXIAEAI00@Z 00000001800a2d30 f i GuContactConvexCoreMesh.obj
 0001:000a20c0       ?makePlane@?$EpaDepth@UConvexShape@Gu@physx@@@RefGjkEpa@Gu@physx@@QEAA_NEEEAEAV?$PxVec4T@M@4@@Z 00000001800a30c0 f i GuContactConvexCoreMesh.obj
 0001:000a2490       ?makePlanes@FaceClipper@Gu@physx@@AEAAXPEBV?$PxVec3T@M@3@IPEAV?$PxVec4T@M@3@AEAI@Z 00000001800a3490 f i GuContactConvexCoreMesh.obj
 0001:000a2740       ?makePolygon@FaceClipper@Gu@physx@@AEAAXPEAV?$PxVec3T@M@3@AEAI@Z 00000001800a3740 f i GuContactConvexCoreMesh.obj
 0001:000a4e10       ?contactConvexCoreConvex@Gu@physx@@YA_NAEBVPxGeometry@2@0AEBUPxTransformPadded@2@1AEBUNarrowPhaseParams@12@AEAUCache@12@AEAVPxContactBuffer@2@PEAVPxRenderOutput@2@@Z 00000001800a5e10 f   GuContactConvexCoreConvex.obj
 0001:000a5270       ?contactPlaneConvexCore@Gu@physx@@YA_NAEBVPxGeometry@2@0AEBUPxTransformPadded@2@1AEBUNarrowPhaseParams@12@AEAUCache@12@AEAVPxContactBuffer@2@PEAVPxRenderOutput@2@@Z 00000001800a6270 f   GuContactPlaneConvexCore.obj
 0001:000a5a80       ?support@ConvexShape@Gu@physx@@QEBA?AV?$PxVec3T@M@3@AEBV43@@Z 00000001800a6a80 f i GuContactPlaneConvexCore.obj
 0001:000a5de0       ?contactPlaneBox@Gu@physx@@YA_NAEBVPxGeometry@2@0AEBUPxTransformPadded@2@1AEBUNarrowPhaseParams@12@AEAUCache@12@AEAVPxContactBuffer@2@PEAVPxRenderOutput@2@@Z 00000001800a6de0 f   GuContactPlaneBox.obj
 0001:000a6ae0       ?contactPlaneCapsule@Gu@physx@@YA_NAEBVPxGeometry@2@0AEBUPxTransformPadded@2@1AEBUNarrowPhaseParams@12@AEAUCache@12@AEAVPxContactBuffer@2@PEAVPxRenderOutput@2@@Z 00000001800a7ae0 f   GuContactPlaneCapsule.obj
 0001:000a71c0       ?contactPlaneConvex@Gu@physx@@YA_NAEBVPxGeometry@2@0AEBUPxTransformPadded@2@1AEBUNarrowPhaseParams@12@AEAUCache@12@AEAVPxContactBuffer@2@PEAVPxRenderOutput@2@@Z 00000001800a81c0 f   GuContactPlaneConvex.obj
 0001:000a7a30       ?contactPlaneMesh@Gu@physx@@YA_NAEBVPxGeometry@2@0AEBUPxTransformPadded@2@1AEBUNarrowPhaseParams@12@AEAUCache@12@AEAVPxContactBuffer@2@PEAVPxRenderOutput@2@@Z 00000001800a8a30 f   GuContactPlaneMesh.obj
 0001:000a8b60       ?reduce@?$BufferedPatch@$05$0EA@$00@Gu@physx@@QEAAXXZ 00000001800a9b60 f i GuContactPlaneMesh.obj
 0001:000aae20       ?contactPolygonPolygonExt@Gu@physx@@YA_NIPEBV?$PxVec3T@M@2@PEBEAEBV?$PxMat34T@M@2@AEBVPxPlane@2@AEBV?$PxMat33T@M@2@I01234AEBV32@22IIAEAVPxContactBuffer@2@_N5M@Z 00000001800abe20 f   GuContactPolygonPolygon.obj
 0001:000ac5d0       ?findRotationMatrixFromZ@Gu@physx@@YA?AV?$PxMat33T@M@2@AEBV?$PxVec3T@M@2@@Z 00000001800ad5d0 f   GuContactPolygonPolygon.obj
 0001:000ad010       ??$PxSort@PEAV?$BufferedPatch@$04$0CA@$00@Gu@physx@@UPatchPenetrationPredicate@?$SDFContactReduction@$04$0CHBA@$0CA@@23@V?$PxReflectionAllocator@PEAV?$BufferedPatch@$04$0CA@$00@Gu@physx@@@3@@physx@@YAXPEAPEAV?$BufferedPatch@$04$0CA@$00@Gu@0@IAEBUPatchPenetrationPredicate@?$SDFContactReduction@$04$0CHBA@$0CA@@20@AEBV?$PxReflectionAllocator@PEAV?$BufferedPatch@$04$0CA@$00@Gu@physx@@@0@I@Z 00000001800ae010 f i GuContactMeshMesh.obj
 0001:000ad5b0       ??$copy@V?$PxReflectionAllocator@V?$BufferedPatch@$04$0CA@$00@Gu@physx@@@physx@@@?$PxArray@V?$BufferedPatch@$04$0CA@$00@Gu@physx@@V?$PxReflectionAllocator@V?$BufferedPatch@$04$0CA@$00@Gu@physx@@@3@@physx@@IEAAXAEBV01@@Z 00000001800ae5b0 f i GuContactMeshMesh.obj
 0001:000ad610       ??$sdfTriangleCollision@$0A@$0CA@$00@Gu@physx@@YAMAEIBUCollisionSDF@01@AEIBV?$PxVec3T@M@1@11AEAV31@2M@Z 00000001800ae610 f i GuContactMeshMesh.obj
 0001:000add70       ??0?$BufferedPatch@$04$0CA@$00@Gu@physx@@QEAA@AEBV012@@Z 00000001800aed70 f i GuContactMeshMesh.obj
 0001:000ade40       ??0CollisionSDF@Gu@physx@@QEAA@AEBVSDF@12@@Z 00000001800aee40 f i GuContactMeshMesh.obj
 0001:000ae010       ?TriLerpWithGradient@CollisionSDF@Gu@physx@@SAMMMMMMMMMMMMPEAV?$PxVec3T@M@3@@Z 00000001800af010 f i GuContactMeshMesh.obj
 0001:000ae1c0       ?addContact@?$BufferedPatch@$04$0CA@$00@Gu@physx@@QEAAXAEBUTinyContact@23@@Z 00000001800af1c0 f i GuContactMeshMesh.obj
 0001:000ae270       ?allocate@?$PxArray@V?$BufferedPatch@$04$0CA@$00@Gu@physx@@V?$PxReflectionAllocator@V?$BufferedPatch@$04$0CA@$00@Gu@physx@@@3@@physx@@IEAAPEAV?$BufferedPatch@$04$0CA@$00@Gu@2@IPEAI@Z 00000001800af270 f i GuContactMeshMesh.obj
 0001:000ae310       ?clampToBox@CollisionSDF@Gu@physx@@QEBA?AV?$PxVec3T@M@3@AEBV43@@Z 00000001800af310 f i GuContactMeshMesh.obj
 0001:000ae3d0       ?clampToFine@CollisionSDF@Gu@physx@@QEBA?AV?$PxVec3T@M@3@AEBV43@@Z 00000001800af3d0 f i GuContactMeshMesh.obj
 0001:000ae490       ?contactMeshMesh@Gu@physx@@YA_NAEBVPxGeometry@2@0AEBUPxTransformPadded@2@1AEBUNarrowPhaseParams@12@AEAUCache@12@AEAVPxContactBuffer@2@PEAVPxRenderOutput@2@@Z 00000001800af490 f   GuContactMeshMesh.obj
 0001:000ae730       ?copy@?$PxArray@V?$BufferedPatch@$04$0CA@$00@Gu@physx@@V?$PxReflectionAllocator@V?$BufferedPatch@$04$0CA@$00@Gu@physx@@@3@@physx@@KAXPEAV?$BufferedPatch@$04$0CA@$00@Gu@2@0PEBV342@@Z 00000001800af730 f i GuContactMeshMesh.obj
 0001:000ae820       ?cullPatches@?$SDFContactReduction@$04$0CHBA@$0CA@@Gu@physx@@QEAAXM@Z 00000001800af820 f i GuContactMeshMesh.obj
 0001:000aebe0       ?dist@CollisionSDF@Gu@physx@@QEBAMAEBV?$PxVec3T@M@3@PEAV43@@Z 00000001800afbe0 f i GuContactMeshMesh.obj
 0001:000aed10       ?distUsingGradient@CollisionSDF@Gu@physx@@QEBAMAEBV?$PxVec3T@M@3@AEAV43@AEBM@Z 00000001800afd10 f i GuContactMeshMesh.obj
 0001:000aef60       ?evaluateCoarse@CollisionSDF@Gu@physx@@QEBAMAEBV?$PxVec3T@M@3@PEAV43@@Z 00000001800aff60 f i GuContactMeshMesh.obj
 0001:000af0b0       ?evaluateSubgrid@CollisionSDF@Gu@physx@@QEBAMIAEBV?$PxVec3T@M@3@PEAV43@@Z 00000001800b00b0 f i GuContactMeshMesh.obj
 0001:000af470       ?flushToContactBuffer@?$SDFContactReduction@$04$0CHBA@$0CA@@Gu@physx@@QEAAIAEAVPxContactBuffer@3@@Z 00000001800b0470 f i GuContactMeshMesh.obj
 0001:000af930       ?grad@CollisionSDF@Gu@physx@@QEBA?AV?$PxVec3T@M@3@AEBV43@@Z 00000001800b0930 f i GuContactMeshMesh.obj
 0001:000afcc0       ?growAndPushBack@?$PxArray@PEAV?$BufferedPatch@$04$0CA@$00@Gu@physx@@V?$PxReflectionAllocator@PEAV?$BufferedPatch@$04$0CA@$00@Gu@physx@@@3@@physx@@IEAAAEAPEAV?$BufferedPatch@$04$0CA@$00@Gu@2@AEBQEAV342@@Z 00000001800b0cc0 f i GuContactMeshMesh.obj
 0001:000afde0       ?growAndPushBack@?$PxArray@V?$BufferedPatch@$04$0CA@$00@Gu@physx@@V?$PxReflectionAllocator@V?$BufferedPatch@$04$0CA@$00@Gu@physx@@@3@@physx@@IEAAAEAV?$BufferedPatch@$04$0CA@$00@Gu@2@AEBV342@@Z 00000001800b0de0 f i GuContactMeshMesh.obj
 0001:000aff00       ?recreate@?$PxArray@PEAV?$BufferedPatch@$04$0CA@$00@Gu@physx@@V?$PxReflectionAllocator@PEAV?$BufferedPatch@$04$0CA@$00@Gu@physx@@@3@@physx@@IEAAXI@Z 00000001800b0f00 f i GuContactMeshMesh.obj
 0001:000b0000       ?recreate@?$PxArray@V?$BufferedPatch@$04$0CA@$00@Gu@physx@@V?$PxReflectionAllocator@V?$BufferedPatch@$04$0CA@$00@Gu@physx@@@3@@physx@@IEAAXI@Z 00000001800b1000 f i GuContactMeshMesh.obj
 0001:000b00e0       ?reduce@?$BufferedPatch@$04$0CA@$00@Gu@physx@@QEAAXXZ 00000001800b10e0 f i GuContactMeshMesh.obj
 0001:000b0ab0       ?sample@CollisionSDF@Gu@physx@@QEBAMV?$PxVec3T@M@3@PEAV43@@Z 00000001800b1ab0 f i GuContactMeshMesh.obj
 0001:000b0c70       ?sdfMeshCollision@@YAIAEIBUPxTransformPadded@physx@@AEIBVPxTriangleMeshGeometry@2@01AEAV?$SDFContactReduction@$04$0CHBA@$0CA@@Gu@2@M_N@Z 00000001800b1c70 f i GuContactMeshMesh.obj
 0001:000b38f0       ?contactSphereBox@Gu@physx@@YA_NAEBVPxGeometry@2@0AEBUPxTransformPadded@2@1AEBUNarrowPhaseParams@12@AEAUCache@12@AEAVPxContactBuffer@2@PEAVPxRenderOutput@2@@Z 00000001800b48f0 f   GuContactSphereBox.obj
 0001:000b3e80       ?contactSphereCapsule@Gu@physx@@YA_NAEBVPxGeometry@2@0AEBUPxTransformPadded@2@1AEBUNarrowPhaseParams@12@AEAUCache@12@AEAVPxContactBuffer@2@PEAVPxRenderOutput@2@@Z 00000001800b4e80 f   GuContactSphereCapsule.obj
 0001:000b4c80       ?contactSphereHeightfield@Gu@physx@@YA_NAEBVPxGeometry@2@0AEBUPxTransformPadded@2@1AEBUNarrowPhaseParams@12@AEAUCache@12@AEAVPxContactBuffer@2@PEAVPxRenderOutput@2@@Z 00000001800b5c80 f   GuContactSphereMesh.obj
 0001:000b4f60       ?contactSphereMesh@Gu@physx@@YA_NAEBVPxGeometry@2@0AEBUPxTransformPadded@2@1AEBUNarrowPhaseParams@12@AEAUCache@12@AEAVPxContactBuffer@2@PEAVPxRenderOutput@2@@Z 00000001800b5f60 f   GuContactSphereMesh.obj
 0001:000b6520       ?contactSpherePlane@Gu@physx@@YA_NAEBVPxGeometry@2@0AEBUPxTransformPadded@2@1AEBUNarrowPhaseParams@12@AEAUCache@12@AEAVPxContactBuffer@2@PEAVPxRenderOutput@2@@Z 00000001800b7520 f   GuContactSpherePlane.obj
 0001:000b6720       ?contactSphereSphere@Gu@physx@@YA_NAEBVPxGeometry@2@0AEBUPxTransformPadded@2@1AEBUNarrowPhaseParams@12@AEAUCache@12@AEAVPxContactBuffer@2@PEAVPxRenderOutput@2@@Z 00000001800b7720 f   GuContactSphereSphere.obj
 0001:000b68e0       ?contactCustomGeometryGeometry@Gu@physx@@YA_NAEBVPxGeometry@2@0AEBUPxTransformPadded@2@1AEBUNarrowPhaseParams@12@AEAUCache@12@AEAVPxContactBuffer@2@PEAVPxRenderOutput@2@@Z 00000001800b78e0 f   GuContactCustomGeometry.obj
 0001:000b6940       ?contactGeometryCustomGeometry@Gu@physx@@YA_NAEBVPxGeometry@2@0AEBUPxTransformPadded@2@1AEBUNarrowPhaseParams@12@AEAUCache@12@AEAVPxContactBuffer@2@PEAVPxRenderOutput@2@@Z 00000001800b7940 f   GuContactCustomGeometry.obj
 0001:000b6a00       ?selectNormal@Gu@physx@@YA_NEMM@Z 00000001800b7a00 f   GuFeatureCode.obj
 0001:000b6a80       ??0BigConvexData@physx@@QEAA@XZ 00000001800b7a80 f   GuBigConvexData.obj
 0001:000b6aa0       ??1BigConvexData@physx@@QEAA@XZ 00000001800b7aa0 f   GuBigConvexData.obj
 0001:000b6b70       ??4BigConvexData@physx@@QEAAAEAV01@AEBV01@@Z 00000001800b7b70 f i GuBigConvexData.obj
 0001:000b6b90       ?ComputeNearestOffset@BigConvexData@physx@@QEBAIAEBV?$PxVec3T@M@2@@Z 00000001800b7b90 f   GuBigConvexData.obj
 0001:000b6ca0       ?ComputeOffset@BigConvexData@physx@@QEBAIAEBV?$PxVec3T@M@2@@Z 00000001800b7ca0 f   GuBigConvexData.obj
 0001:000b6da0       ?CreateOffsets@BigConvexData@physx@@IEAAXXZ 00000001800b7da0 f   GuBigConvexData.obj
 0001:000b6df0       ?GetAdjacentVerts@BigConvexData@physx@@QEBAPEBEXZ 00000001800b7df0 f i GuBigConvexData.obj
 0001:000b6df0       ?getDeformableVolumeAuxData@DeformableVolumeMesh@Gu@physx@@UEAAPEAVPxDeformableVolumeAuxData@3@XZ 00000001800b7df0 f i GuTetrahedronMesh.obj
 0001:000b6df0       ?getDeformableVolumeAuxData@DeformableVolumeMesh@Gu@physx@@UEBAPEBVPxDeformableVolumeAuxData@3@XZ 00000001800b7df0 f i GuTetrahedronMesh.obj
 0001:000b6df0       ?getTransforms@PruningPool@Gu@physx@@QEAAPEAV?$PxTransformT@M@3@XZ 00000001800b7df0 f i GuIncrementalAABBPrunerCore.obj
 0001:000b6df0       ?getTransforms@PruningPool@Gu@physx@@QEBAPEBV?$PxTransformT@M@3@XZ 00000001800b7df0 f i GuIncrementalAABBPrunerCore.obj
 0001:000b6df0       ?getTriangles@TriangleMesh@Gu@physx@@UEBAPEBXXZ 00000001800b7df0 f i GuTriangleMesh.obj
 0001:000b6e00       ?GetNbNeighbors@BigConvexData@physx@@QEBAGI@Z 00000001800b7e00 f i GuBigConvexData.obj
 0001:000b6e00       ?GetValency@BigConvexData@physx@@QEBAGI@Z 00000001800b7e00 f i GuBigConvexData.obj
 0001:000b6e10       ?GetNbSamples@BigConvexData@physx@@QEBAIXZ 00000001800b7e10 f i GuBigConvexData.obj
 0001:000b6e20       ?GetNbVerts@BigConvexData@physx@@QEBAIXZ 00000001800b7e20 f i GuBigConvexData.obj
 0001:000b6e20       ?getNbVertices@TetrahedronMesh@Gu@physx@@UEBAIXZ 00000001800b7e20 f i GuTetrahedronMesh.obj
 0001:000b6e20       ?getNbVertices@TriangleMesh@Gu@physx@@UEBAIXZ 00000001800b7e20 f i GuTriangleMesh.obj
 0001:000b6e20       ?length@pcharNode@@UEBAHXZ 00000001800b7e20 f i libvcruntime:undname.obj
 0001:000b6e20       ?raw_length@pcharNode@@UEBAHXZ 00000001800b7e20 f i libvcruntime:undname.obj
 0001:000b6e30       ?GetNeighbors@BigConvexData@physx@@QEBAPEBEI@Z 00000001800b7e30 f i GuBigConvexData.obj
 0001:000b6e40       ?GetOffset@BigConvexData@physx@@QEBAGI@Z 00000001800b7e40 f i GuBigConvexData.obj
 0001:000b6e50       ?GetSubdiv@BigConvexData@physx@@QEBAIXZ 00000001800b7e50 f i GuBigConvexData.obj
 0001:000b6e60       ?Load@BigConvexData@physx@@QEAA_NAEAVPxInputStream@2@@Z 00000001800b7e60 f   GuBigConvexData.obj
 0001:000b6f70       ?VLoad@BigConvexData@physx@@IEAA_NAEAVPxInputStream@2@@Z 00000001800b7f70 f   GuBigConvexData.obj
 0001:000b7120       ?exportExtraData@BigConvexData@physx@@QEAAXAEAVPxSerializationContext@2@@Z 00000001800b8120 f   GuBigConvexData.obj
 0001:000b71a0       ?importExtraData@BigConvexData@physx@@QEAAXAEAVPxDeserializationContext@2@@Z 00000001800b81a0 f   GuBigConvexData.obj
 0001:000b7210       ?findUniqueConvexEdges@Gu@physx@@YAIIPEIAUConvexEdge@12@IPEIBUHullPolygonData@12@PEIBE@Z 00000001800b8210 f   GuConvexHelper.obj
 0001:000b7350       ?getConvexData@Gu@physx@@YA_NAEBVPxConvexMeshGeometry@2@AEAVFastVertex2ShapeScaling@Cm@2@AEAVPxBounds3@2@AEAUPolygonalData@12@@Z 00000001800b8350 f   GuConvexHelper.obj
 0001:000b7570       ?getScaledConvex@Gu@physx@@YAXAEAPEAV?$PxVec3T@M@2@AEAPEAEPEAV32@PEAE_NPEBV32@PEBEIAEBVFastVertex2ShapeScaling@Cm@2@@Z 00000001800b8570 f   GuConvexHelper.obj
 0001:000b76a0       ??0ConvexMesh@Gu@physx@@QEAA@PEAVMeshFactory@12@@Z 00000001800b86a0 f   GuConvexMesh.obj
 0001:000b7730       ??0ConvexMesh@Gu@physx@@QEAA@PEAVMeshFactory@12@AEAUConvexHullInitData@12@@Z 00000001800b8730 f   GuConvexMesh.obj
 0001:000b7870       ??_EConvexMesh@Gu@physx@@UEAAPEAXI@Z 00000001800b8870 f i GuConvexMesh.obj
 0001:000b7870       ??_GConvexMesh@Gu@physx@@UEAAPEAXI@Z 00000001800b8870 f i GuConvexMesh.obj
 0001:000b7980       ??_EPxBVH@physx@@MEAAPEAXI@Z 00000001800b8980 f i GuBVH.obj
 0001:000b7980       ??_EPxBase@physx@@MEAAPEAXI@Z 00000001800b8980 f i GuConvexMesh.obj
 0001:000b7980       ??_GPxBVH@physx@@MEAAPEAXI@Z 00000001800b8980 f i GuBVH.obj
 0001:000b7980       ??_GPxBase@physx@@MEAAPEAXI@Z 00000001800b8980 f i GuConvexMesh.obj
 0001:000b79b0       ?acquireReference@ConvexMesh@Gu@physx@@UEAAXXZ 00000001800b89b0 f   GuConvexMesh.obj
 0001:000b79b0       ?acquireReference@DeformableVolumeAuxData@Gu@physx@@UEAAXXZ 00000001800b89b0 f   GuTetrahedronMesh.obj
 0001:000b79b0       ?acquireReference@DeformableVolumeMesh@Gu@physx@@UEAAXXZ 00000001800b89b0 f   GuTetrahedronMesh.obj
 0001:000b79b0       ?acquireReference@HeightField@Gu@physx@@UEAAXXZ 00000001800b89b0 f   GuHeightField.obj
 0001:000b79b0       ?acquireReference@TetrahedronMesh@Gu@physx@@UEAAXXZ 00000001800b89b0 f   GuTetrahedronMesh.obj
 0001:000b79b0       ?acquireReference@TriangleMesh@Gu@physx@@UEAAXXZ 00000001800b89b0 f   GuTriangleMesh.obj
 0001:000b7e70       ?createObject@ConvexMesh@Gu@physx@@SAPEAV123@AEAPEAEAEAVPxDeserializationContext@3@@Z 00000001800b8e70 f   GuConvexMesh.obj
 0001:000b7f90       ?exportExtraData@ConvexMesh@Gu@physx@@UEAAXAEAVPxSerializationContext@3@@Z 00000001800b8f90 f   GuConvexMesh.obj
 0001:000b8090       ?getConcreteTypeName@PxConvexMesh@physx@@UEBAPEBDXZ 00000001800b9090 f i GuConvexMesh.obj
 0001:000b80a0       ?getIndexBuffer@ConvexMesh@Gu@physx@@UEBAPEBEXZ 00000001800b90a0 f i GuConvexMesh.obj
 0001:000b80e0       ?getLocalBounds@ConvexMesh@Gu@physx@@UEBA?AVPxBounds3@3@XZ 00000001800b90e0 f   GuConvexMesh.obj
 0001:000b8160       ?getMassInformation@ConvexMesh@Gu@physx@@UEBAXAEAMAEAV?$PxMat33T@M@3@AEAV?$PxVec3T@M@3@@Z 00000001800b9160 f   GuConvexMesh.obj
 0001:000b81d0       ?getNbPolygons@ConvexMesh@Gu@physx@@UEBAIXZ 00000001800b91d0 f i GuConvexMesh.obj
 0001:000b81e0       ?getNbVertices@ConvexMesh@Gu@physx@@UEBAIXZ 00000001800b91e0 f i GuConvexMesh.obj
 0001:000b81f0       ?getPolygonData@ConvexMesh@Gu@physx@@UEBA_NIAEAUPxHullPolygon@3@@Z 00000001800b91f0 f   GuConvexMesh.obj
 0001:000b8240       ?getReferenceCount@ConvexMesh@Gu@physx@@UEBAIXZ 00000001800b9240 f   GuConvexMesh.obj
 0001:000b8240       ?getReferenceCount@DeformableVolumeAuxData@Gu@physx@@UEBAIXZ 00000001800b9240 f   GuTetrahedronMesh.obj
 0001:000b8240       ?getReferenceCount@DeformableVolumeMesh@Gu@physx@@UEBAIXZ 00000001800b9240 f   GuTetrahedronMesh.obj
 0001:000b8240       ?getReferenceCount@HeightField@Gu@physx@@UEBAIXZ 00000001800b9240 f   GuHeightField.obj
 0001:000b8240       ?getReferenceCount@TetrahedronMesh@Gu@physx@@UEBAIXZ 00000001800b9240 f   GuTetrahedronMesh.obj
 0001:000b8240       ?getReferenceCount@TriangleMesh@Gu@physx@@UEBAIXZ 00000001800b9240 f   GuTriangleMesh.obj
 0001:000b8240       ?length@DNameStatusNode@@UEBAHXZ 00000001800b9240 f   libvcruntime:undname.obj
 0001:000b8240       ?raw_length@DNameStatusNode@@UEBAHXZ 00000001800b9240 f   libvcruntime:undname.obj
 0001:000b8250       ?getSDF@ConvexMesh@Gu@physx@@UEBAPEBMXZ 00000001800b9250 f   GuConvexMesh.obj
 0001:000b8260       ?getVertices@ConvexMesh@Gu@physx@@UEBAPEBV?$PxVec3T@M@3@XZ 00000001800b9260 f i GuConvexMesh.obj
 0001:000b8280       ?isGpuCompatible@ConvexMesh@Gu@physx@@UEBA_NXZ 00000001800b9280 f   GuConvexMesh.obj
 0001:000b82c0       ?isKindOf@PxBase@physx@@MEBA_NPEBD@Z 00000001800b92c0 f i GuConvexMesh.obj
 0001:000b82e0       ?isKindOf@PxConvexMesh@physx@@MEBA_NPEBD@Z 00000001800b92e0 f i GuConvexMesh.obj
 0001:000b8370       ?isReleasable@PxBase@physx@@UEBA_NXZ 00000001800b9370 f i GuConvexMesh.obj
 0001:000b8380       ?load@ConvexMesh@Gu@physx@@QEAA_NAEAVPxInputStream@3@@Z 00000001800b9380 f   GuConvexMesh.obj
 0001:000b8910       ?onRefCountZero@ConvexMesh@Gu@physx@@UEAAXXZ 00000001800b9910 f   GuConvexMesh.obj
 0001:000b8a40       ?release@ConvexMesh@Gu@physx@@UEAAXXZ 00000001800b9a40 f   GuConvexMesh.obj
 0001:000b8a40       ?release@DeformableVolumeAuxData@Gu@physx@@UEAAXXZ 00000001800b9a40 f   GuTetrahedronMesh.obj
 0001:000b8a40       ?release@DeformableVolumeMesh@Gu@physx@@UEAAXXZ 00000001800b9a40 f   GuTetrahedronMesh.obj
 0001:000b8a40       ?release@HeightField@Gu@physx@@UEAAXXZ 00000001800b9a40 f   GuHeightField.obj
 0001:000b8a40       ?release@TetrahedronMesh@Gu@physx@@UEAAXXZ 00000001800b9a40 f   GuTetrahedronMesh.obj
 0001:000b8a40       ?release@TriangleMesh@Gu@physx@@UEAAXXZ 00000001800b9a40 f   GuTriangleMesh.obj
 0001:000b8a70       ??Dphysx@@YA?AV?$PxMat34T@M@0@AEBVPxMeshScale@0@AEBV10@@Z 00000001800b9a70 f i GuConvexUtilsInternal.obj
 0001:000b9010       ?computeHullOBB@Gu@physx@@YAXAEAVBox@12@AEBVPxBounds3@2@MAEBV?$PxMat34T@M@2@2AEBVFastVertex2ShapeScaling@Cm@2@_N@Z 00000001800ba010 f   GuConvexUtilsInternal.obj
 0001:000b94a0       ?computeOBBAroundConvex@Gu@physx@@YAXAEAVBox@12@AEBVPxConvexMeshGeometry@2@PEBVPxConvexMesh@2@AEBV?$PxTransformT@M@2@@Z 00000001800ba4a0 f   GuConvexUtilsInternal.obj
 0001:000b9cd0       ?computeVertexSpaceOBB@Gu@physx@@YAXAEAVBox@12@AEBV312@AEBV?$PxTransformT@M@2@AEBVPxMeshScale@2@@Z 00000001800bacd0 f   GuConvexUtilsInternal.obj
 0001:000ba000       ?transform@physx@@YA?AVBox@Gu@1@AEBV?$PxMat34T@M@1@AEBV231@@Z 00000001800bb000 f i GuConvexUtilsInternal.obj
 0001:000ba250       ?localSearch@physx@@YAXAEAIAEBV?$PxVec3T@M@1@PEBV21@PEBUBigConvexRawData@Gu@1@@Z 00000001800bb250 f   GuHillClimbing.obj
 0001:000ba370       ??0PCMPolygonalBox@Gu@physx@@QEAA@AEBV?$PxVec3T@M@2@@Z 00000001800bb370 f   GuPCMShapeConvex.obj
 0001:000ba370       ??0PolygonalBox@Gu@physx@@QEAA@AEBV?$PxVec3T@M@2@@Z 00000001800bb370 f   GuShapeConvex.obj
 0001:000bb6d0       ?getPolygonalData@PolygonalBox@Gu@physx@@QEBAXPEIAUPolygonalData@23@@Z 00000001800bc6d0 f   GuShapeConvex.obj
 0001:000bb740       ?getPolygonalData_Convex@Gu@physx@@YAXPEIAUPolygonalData@12@PEIBUConvexHullData@12@AEBVFastVertex2ShapeScaling@Cm@2@@Z 00000001800bc740 f   GuShapeConvex.obj
 0001:000bb8b0       ?distancePointBoxSquared@Gu@physx@@YAMAEBV?$PxVec3T@M@2@00AEBV?$PxMat33T@M@2@PEAV32@@Z 00000001800bc8b0 f   GuDistancePointBox.obj
 0001:000bba00       ?closestPtPointTriangle@Gu@physx@@YA?AV?$PxVec3T@M@2@AEBV32@000AEAM1@Z 00000001800bca00 f   GuDistancePointTriangle.obj
 0001:000bbf30       ?distancePointTriangleSquared2UnitBox@Gu@physx@@YA?AT__m128@@AEBT3@000AEAT3@11@Z 00000001800bcf30 f   GuDistancePointTriangle.obj
 0001:000bc050       ?distancePointTriangleSquared@Gu@physx@@YA?AT__m128@@AEBT3@000AEAT3@11@Z 00000001800bd050 f   GuDistancePointTriangle.obj
 0001:000bcdc0       ?distanceSegmentBoxSquared@Gu@physx@@YAMAEBV?$PxVec3T@M@2@000AEBV?$PxMat33T@M@2@PEAMPEAV32@@Z 00000001800bddc0 f   GuDistanceSegmentBox.obj
 0001:000bd640       ?distanceSegmentSegmentSquared4@Gu@physx@@YA?AT__m128@@AEBT3@000000000AEAT3@1@Z 00000001800be640 f   GuDistanceSegmentSegment.obj
 0001:000bd950       ?distanceSegmentSegmentSquared@Gu@physx@@YA?AT__m128@@AEBT3@000AEAT3@1@Z 00000001800be950 f   GuDistanceSegmentSegment.obj
 0001:000bdb20       ?distanceSegmentSegmentSquared@Gu@physx@@YAMAEBV?$PxVec3T@M@2@000PEAM1@Z 00000001800beb20 f   GuDistanceSegmentSegment.obj
 0001:000bddc0       ?distanceSegmentSegmentSquared@Gu@physx@@YAMAEBV?$PxVec3T@M@2@0M00MPEAM1@Z 00000001800bedc0 f   GuDistanceSegmentSegment.obj
 0001:000be6a0       ?distanceSegmentTriangleSquared@Gu@physx@@YA?AT__m128@@AEBT3@0000AEAT3@1@Z 00000001800bf6a0 f   GuDistanceSegmentTriangle.obj
 0001:000bede0       ?distanceSegmentTriangleSquared@Gu@physx@@YAMAEBV?$PxVec3T@M@2@0000PEAM11@Z 00000001800bfde0 f   GuDistanceSegmentTriangle.obj
 0001:000c05c0       ?distanceTriangleTriangleSquared@Gu@physx@@YAMAEAV?$PxVec3T@M@2@0QEBVPxVec3Padded@2@1@Z 00000001800c15c0 f   GuDistanceTriangleTriangle.obj
 0001:000c1110       ?closestPtPointTetrahedron@Gu@physx@@YA?AV?$PxVec3T@M@2@AEBV32@0000AEBV?$PxVec4T@M@2@@Z 00000001800c2110 f   GuDistancePointTetrahedron.obj
 0001:000c21e0       ?PenetrationDepth@EPA@Gu@physx@@QEAA?AW4GjkStatus@23@AEBUGjkConvex@23@0PEIBT__m128@@1E_NT6@AEAUGjkOutput@23@@Z 00000001800c31e0 f   GuEPA.obj
 0001:000c2c60       ?addFacet@EPA@Gu@physx@@QEAAPEAVFacet@23@IIIAEBT__m128@@@Z 00000001800c3c60 f   GuEPA.obj
 0001:000c3070       ?epaPenetration@Gu@physx@@YA?AW4GjkStatus@12@AEBUGjkConvex@12@0PEIBE1E_NT__m128@@AEAUGjkOutput@12@@Z 00000001800c4070 f   GuEPA.obj
 0001:000c31d0       ?epaPenetration@Gu@physx@@YA?AW4GjkStatus@12@AEBUGjkConvex@12@0PEIBT__m128@@1E_NT5@AEAUGjkOutput@12@@Z 00000001800c41d0 f   GuEPA.obj
 0001:000c3280       ?silhouette@Facet@Gu@physx@@QEAAXAEBT__m128@@PEIBT4@1AEAVEdgeBuffer@23@AEAV?$InlineDeferredIDPool@$0EA@@Cm@3@@Z 00000001800c4280 f   GuEPA.obj
 0001:000c3440       ?closestPtPointTetrahedron@Gu@physx@@YA?AT__m128@@PEIAT3@00AEAI@Z 00000001800c4440 f   GuGJKSimplex.obj
 0001:000c3bc0       ?closestPtPointTetrahedron@Gu@physx@@YA?AT__m128@@PEIAT3@00PEIAH1AEAI@Z 00000001800c4bc0 f   GuGJKSimplex.obj
 0001:000c5650       ??$gjk@UGjkConvex@Gu@physx@@U123@@Gu@physx@@YA?AW4GjkStatus@01@AEBUGjkConvex@01@0AEBT__m128@@1AEAT4@222@Z 00000001800c6650 f i GuGJKTest.obj
 0001:000c6200       ??$gjkPenetration@UGjkConvex@Gu@physx@@U123@@Gu@physx@@YA?AW4GjkStatus@01@AEBUGjkConvex@01@0AEBT__m128@@1_NPEIAE3AEAEAEAUGjkOutput@01@@Z 00000001800c7200 f i GuGJKTest.obj
 0001:000c6270       ??$gjkPenetration@UGjkConvex@Gu@physx@@U123@@Gu@physx@@YA?AW4GjkStatus@01@AEBUGjkConvex@01@0AEBT__m128@@1_NPEIAE3PEIAT4@4AEAEAEAUGjkOutput@01@@Z 00000001800c7270 f i GuGJKTest.obj
 0001:000c7c90       ??$gjkRaycast@UGjkConvex@Gu@physx@@U123@@Gu@physx@@YA_NAEBUGjkConvex@01@0AEBT__m128@@111AEAT3@22M@Z 00000001800c8c90 f i GuGJKTest.obj
 0001:000c8830       ?testEpaPenetration@Gu@physx@@YA?AW4GjkStatus@12@AEBUGjkConvex@12@0PEBE1EAEAUGjkOutput@12@@Z 00000001800c9830 f   GuGJKTest.obj
 0001:000c8880       ?testGjk@Gu@physx@@YA?AW4GjkStatus@12@AEBUGjkConvex@12@0AEBT__m128@@1AEAT5@222@Z 00000001800c9880 f   GuGJKTest.obj
 0001:000c8890       ?testGjkPenetration@Gu@physx@@YA?AW4GjkStatus@12@AEBUGjkConvex@12@0AEBT__m128@@1PEAE2AEAEAEAUGjkOutput@12@@Z 00000001800c9890 f   GuGJKTest.obj
 0001:000c88e0       ?testGjkRaycast@Gu@physx@@YA_NAEBUGjkConvex@12@0AEBT__m128@@111AEAT4@22M@Z 00000001800c98e0 f   GuGJKTest.obj
 0001:000c88f0       ??0HeightField@Gu@physx@@QEAA@PEAVMeshFactory@12@@Z 00000001800c98f0 f   GuHeightField.obj
 0001:000c8940       ??0HeightField@Gu@physx@@QEAA@PEAVMeshFactory@12@AEAUHeightFieldData@12@@Z 00000001800c9940 f   GuHeightField.obj
 0001:000c89f0       ??1HeightField@Gu@physx@@UEAA@XZ 00000001800c99f0 f   GuHeightField.obj
 0001:000c8a80       ??_EHeightField@Gu@physx@@UEAAPEAXI@Z 00000001800c9a80 f i GuHeightField.obj
 0001:000c8a80       ??_GHeightField@Gu@physx@@UEAAPEAXI@Z 00000001800c9a80 f i GuHeightField.obj
 0001:000c8b30       ?computeCellCoordinates@HeightField@Gu@physx@@QEBAIMMAEAM0@Z 00000001800c9b30 f   GuHeightField.obj
 0001:000c8c50       ?createObject@HeightField@Gu@physx@@SAPEAV123@AEAPEAEAEAVPxDeserializationContext@3@@Z 00000001800c9c50 f   GuHeightField.obj
 0001:000c8ca0       ?exportExtraData@HeightField@Gu@physx@@UEAAXAEAVPxSerializationContext@3@@Z 00000001800c9ca0 f   GuHeightField.obj
 0001:000c8cf0       ?getConcreteTypeName@PxHeightField@physx@@UEBAPEBDXZ 00000001800c9cf0 f i GuHeightField.obj
 0001:000c8d00       ?getConvexEdgeThreshold@HeightField@Gu@physx@@UEBAMXZ 00000001800c9d00 f i GuHeightField.obj
 0001:000c8d10       ?getFlags@HeightField@Gu@physx@@UEBA?AV?$PxFlags@W4Enum@PxHeightFieldFlag@physx@@G@3@XZ 00000001800c9d10 f i GuHeightField.obj
 0001:000c8d20       ?getFormat@HeightField@Gu@physx@@UEBA?AW4Enum@PxHeightFieldFormat@3@XZ 00000001800c9d20 f i GuHeightField.obj
 0001:000c8d30       ?getHeight@HeightField@Gu@physx@@UEBAMMM@Z 00000001800c9d30 f i GuHeightField.obj
 0001:000c8e50       ?getNbColumns@HeightField@Gu@physx@@UEBAIXZ 00000001800c9e50 f i GuHeightField.obj
 0001:000c8e60       ?getNbBounds@BVH@Gu@physx@@UEBAIXZ 00000001800c9e60 f i GuBVH.obj
 0001:000c8e60       ?getNbPrimitives@SourceMesh@Gu@physx@@UEBAIXZ 00000001800c9e60 f i GuBV4.obj
 0001:000c8e60       ?getNbPrimitives@TetrahedronSourceMesh@Gu@physx@@UEBAIXZ 00000001800c9e60 f i GuBV4.obj
 0001:000c8e60       ?getNbRows@HeightField@Gu@physx@@UEBAIXZ 00000001800c9e60 f i GuHeightField.obj
 0001:000c8e70       ?getSample@HeightField@Gu@physx@@UEBAAEBUPxHeightFieldSample@3@II@Z 00000001800c9e70 f i GuHeightField.obj
 0001:000c8e80       ?getSampleStride@HeightField@Gu@physx@@UEBAIXZ 00000001800c9e80 f i GuHeightField.obj
 0001:000c8e90       ?getTimestamp@HeightField@Gu@physx@@UEBAIXZ 00000001800c9e90 f i GuHeightField.obj
 0001:000c8ea0       ?getTriangleMaterialIndex@HeightField@Gu@physx@@UEBAGI@Z 00000001800c9ea0 f i GuHeightField.obj
 0001:000c8ec0       ?getTriangleNormal@HeightField@Gu@physx@@UEBA?AV?$PxVec3T@M@3@I@Z 00000001800c9ec0 f i GuHeightField.obj
 0001:000c8fd0       ?isKindOf@PxHeightField@physx@@MEBA_NPEBD@Z 00000001800c9fd0 f i GuHeightField.obj
 0001:000c9060       ?load@HeightField@Gu@physx@@QEAA_NAEAVPxInputStream@3@@Z 00000001800ca060 f   GuHeightField.obj
 0001:000c93d0       ?loadFromDesc@HeightField@Gu@physx@@QEAA_NAEBVPxHeightFieldDesc@3@@Z 00000001800ca3d0 f   GuHeightField.obj
 0001:000c95d0       ?modifySamples@HeightField@Gu@physx@@UEAA_NHHAEBVPxHeightFieldDesc@3@_N@Z 00000001800ca5d0 f   GuHeightField.obj
 0001:000c9970       ?onRefCountZero@HeightField@Gu@physx@@UEAAXXZ 00000001800ca970 f   GuHeightField.obj
 0001:000c9a40       ?releaseMemory@HeightField@Gu@physx@@QEAAXXZ 00000001800caa40 f   GuHeightField.obj
 0001:000c9a90       ?save@HeightField@Gu@physx@@QEAA_NAEAVPxOutputStream@3@_N@Z 00000001800caa90 f   GuHeightField.obj
 0001:000c9cd0       ?saveCells@HeightField@Gu@physx@@UEBAIPEAXI@Z 00000001800cacd0 f   GuHeightField.obj
 0001:000c9d10       ?computeLocalBounds@HeightFieldUtil@Gu@physx@@QEBAXAEAVPxBounds3@3@@Z 00000001800cad10 f   GuHeightFieldUtil.obj
 0001:000ca1b0       ?getTriangle@HeightFieldUtil@Gu@physx@@QEBAIAEBV?$PxTransformT@M@3@AEAVPxTriangle@3@PEAI2I_N3@Z 00000001800cb1b0 f   GuHeightFieldUtil.obj
 0001:000caca0       ?getTriangleAdjacencyIndices@HeightField@Gu@physx@@QEBAXIIIIAEAI00@Z 00000001800cbca0 f i GuHeightFieldUtil.obj
 0001:000cae60       ?overlapAABBTriangles@HeightFieldUtil@Gu@physx@@QEBAXAEBVPxBounds3@3@AEAVOverlapReport@23@I@Z 00000001800cbe60 f   GuHeightFieldUtil.obj
 0001:000cb2c0       ??$gjk@U?$RelativeConvex@VTriangleV@Gu@physx@@@Gu@physx@@U?$LocalConvex@VConvexHullV@Gu@physx@@@23@@Gu@physx@@YA?AW4GjkStatus@01@AEBU?$RelativeConvex@VTriangleV@Gu@physx@@@01@AEBU?$LocalConvex@VConvexHullV@Gu@physx@@@01@AEBT__m128@@2AEAT5@333@Z 00000001800cc2c0 f i GuOverlapTestsHF.obj
 0001:000cc090       ?GeomOverlapCallback_BoxHeightfield@@YA_NAEBVPxGeometry@physx@@AEBV?$PxTransformT@M@2@01PEAUTriggerCache@Gu@2@PEAUPxQueryThreadContext@2@@Z 00000001800cd090 f   GuOverlapTestsHF.obj
 0001:000cc600       ?GeomOverlapCallback_CapsuleHeightfield@@YA_NAEBVPxGeometry@physx@@AEBV?$PxTransformT@M@2@01PEAUTriggerCache@Gu@2@PEAUPxQueryThreadContext@2@@Z 00000001800cd600 f   GuOverlapTestsHF.obj
 0001:000ccc10       ?GeomOverlapCallback_ConvexHeightfield@@YA_NAEBVPxGeometry@physx@@AEBV?$PxTransformT@M@2@01PEAUTriggerCache@Gu@2@PEAUPxQueryThreadContext@2@@Z 00000001800cdc10 f   GuOverlapTestsHF.obj
 0001:000cd660       ?GeomOverlapCallback_SphereHeightfield@@YA_NAEBVPxGeometry@physx@@AEBV?$PxTransformT@M@2@01PEAUTriggerCache@Gu@2@PEAUPxQueryThreadContext@2@@Z 00000001800ce660 f   GuOverlapTestsHF.obj
 0001:000ce280       ??$gjkRaycast@U?$LocalConvex@VTriangleV@Gu@physx@@@Gu@physx@@U?$LocalConvex@VConvexHullV@Gu@physx@@@23@@Gu@physx@@YA_NAEBU?$LocalConvex@VTriangleV@Gu@physx@@@01@AEBU?$LocalConvex@VConvexHullV@Gu@physx@@@01@AEBT__m128@@222AEAT4@33M@Z 00000001800cf280 f i GuSweepsHF.obj
 0001:000cf090       ??$traceSegment@VBoxTraceSegmentReport@@$0A@$00@HeightFieldTraceUtil@Gu@physx@@QEBAXAEBV?$PxVec3T@M@2@0MPEAVBoxTraceSegmentReport@@AEBVPxBounds3@2@_NPEBV32@@Z 00000001800d0090 f i GuSweepsHF.obj
 0001:000cf090       ??$traceSegment@VCapsuleTraceSegmentReport@@$0A@$00@HeightFieldTraceUtil@Gu@physx@@QEBAXAEBV?$PxVec3T@M@2@0MPEAVCapsuleTraceSegmentReport@@AEBVPxBounds3@2@_NPEBV32@@Z 00000001800d0090 f i GuSweepsHF.obj
 0001:000cf090       ??$traceSegment@VConvexTraceSegmentReport@@$0A@$00@HeightFieldTraceUtil@Gu@physx@@QEBAXAEBV?$PxVec3T@M@2@0MPEAVConvexTraceSegmentReport@@AEBVPxBounds3@2@_NPEBV32@@Z 00000001800d0090 f i GuSweepsHF.obj
 0001:000cf870       ??0ConvexTraceSegmentReport@@QEAA@AEBVHeightFieldUtil@Gu@physx@@AEBUConvexHullData@23@AEBVPxMeshScale@3@AEBV?$PxTransformT@M@3@3AEBV?$PxVec3T@M@3@MV?$PxFlags@W4Enum@PxHitFlag@physx@@G@3@M@Z 00000001800d0870 f i GuSweepsHF.obj
 0001:000d01f0       ??_EBoxTraceSegmentReport@@UEAAPEAXI@Z 00000001800d11f0 f i GuSweepsHF.obj
 0001:000d01f0       ??_GBoxTraceSegmentReport@@UEAAPEAXI@Z 00000001800d11f0 f i GuSweepsHF.obj
 0001:000d0220       ??_ECapsuleTraceSegmentReport@@UEAAPEAXI@Z 00000001800d1220 f i GuSweepsHF.obj
 0001:000d0220       ??_GCapsuleTraceSegmentReport@@UEAAPEAXI@Z 00000001800d1220 f i GuSweepsHF.obj
 0001:000d0250       ??_EConvexTraceSegmentReport@@UEAAPEAXI@Z 00000001800d1250 f i GuSweepsHF.obj
 0001:000d0250       ??_GConvexTraceSegmentReport@@UEAAPEAXI@Z 00000001800d1250 f i GuSweepsHF.obj
 0001:000d0280       ??_EHeightFieldTraceSegmentReport@@UEAAPEAXI@Z 00000001800d1280 f i GuSweepsHF.obj
 0001:000d0280       ??_GHeightFieldTraceSegmentReport@@UEAAPEAXI@Z 00000001800d1280 f i GuSweepsHF.obj
 0001:000d02b0       ?onEvent@BoxTraceSegmentReport@@UEAA_NIPEBI@Z 00000001800d12b0 f i GuSweepsHF.obj
 0001:000d0710       ?onEvent@CapsuleTraceSegmentReport@@UEAA_NIPEBI@Z 00000001800d1710 f i GuSweepsHF.obj
 0001:000d0930       ?onEvent@ConvexTraceSegmentReport@@UEAA_NIPEBI@Z 00000001800d1930 f i GuSweepsHF.obj
 0001:000d0ef0       ?prepare@?$OverlapTraceSegment@VBoxTraceSegmentReport@@@HeightFieldTraceUtil@Gu@physx@@QEAAXAEBV?$PxVec3T@M@4@00AEAM1@Z 00000001800d1ef0 f i GuSweepsHF.obj
 0001:000d0ef0       ?prepare@?$OverlapTraceSegment@VCapsuleTraceSegmentReport@@@HeightFieldTraceUtil@Gu@physx@@QEAAXAEBV?$PxVec3T@M@4@00AEAM1@Z 00000001800d1ef0 f i GuSweepsHF.obj
 0001:000d0ef0       ?prepare@?$OverlapTraceSegment@VConvexTraceSegmentReport@@@HeightFieldTraceUtil@Gu@physx@@QEAAXAEBV?$PxVec3T@M@4@00AEAM1@Z 00000001800d1ef0 f i GuSweepsHF.obj
 0001:000d1190       ?sweepBox_HeightFieldGeom@@YA_NAEBVPxGeometry@physx@@AEBV?$PxTransformT@M@2@AEBVPxBoxGeometry@2@1AEBVBox@Gu@2@AEBV?$PxVec3T@M@2@MAEAUPxGeomSweepHit@2@V?$PxFlags@W4Enum@PxHitFlag@physx@@G@2@MPEAUPxQueryThreadContext@2@@Z 00000001800d2190 f   GuSweepsHF.obj
 0001:000d1fc0       ?sweepCapsule_HeightFieldGeom@@YA_NAEBVPxGeometry@physx@@AEBV?$PxTransformT@M@2@AEBVPxCapsuleGeometry@2@1AEBVCapsule@Gu@2@AEBV?$PxVec3T@M@2@MAEAUPxGeomSweepHit@2@V?$PxFlags@W4Enum@PxHitFlag@physx@@G@2@MPEAUPxQueryThreadContext@2@@Z 00000001800d2fc0 f   GuSweepsHF.obj
 0001:000d2910       ?sweepConvex_HeightFieldGeom@@YA_NAEBVPxGeometry@physx@@AEBV?$PxTransformT@M@2@AEBVPxConvexMeshGeometry@2@1AEBV?$PxVec3T@M@2@MAEAUPxGeomSweepHit@2@V?$PxFlags@W4Enum@PxHitFlag@physx@@G@2@MPEAUPxQueryThreadContext@2@@Z 00000001800d3910 f   GuSweepsHF.obj
 0001:000d34b0       ?testVertexIndex@?$OverlapTraceSegment@VBoxTraceSegmentReport@@@HeightFieldTraceUtil@Gu@physx@@QEAA_NI@Z 00000001800d44b0 f i GuSweepsHF.obj
 0001:000d34b0       ?testVertexIndex@?$OverlapTraceSegment@VCapsuleTraceSegmentReport@@@HeightFieldTraceUtil@Gu@physx@@QEAA_NI@Z 00000001800d44b0 f i GuSweepsHF.obj
 0001:000d34b0       ?testVertexIndex@?$OverlapTraceSegment@VConvexTraceSegmentReport@@@HeightFieldTraceUtil@Gu@physx@@QEAA_NI@Z 00000001800d44b0 f i GuSweepsHF.obj
 0001:000d3610       ?transformFast@PxBounds3@physx@@SA?AV12@AEBV?$PxTransformT@M@2@AEBV12@@Z 00000001800d4610 f i GuSweepsHF.obj
 0001:000d39f0       ?visitCells@?$OverlapTraceSegment@VBoxTraceSegmentReport@@@HeightFieldTraceUtil@Gu@physx@@QEAA_NAEBUOverlapRectangle@1234@@Z 00000001800d49f0 f i GuSweepsHF.obj
 0001:000d39f0       ?visitCells@?$OverlapTraceSegment@VCapsuleTraceSegmentReport@@@HeightFieldTraceUtil@Gu@physx@@QEAA_NAEBUOverlapRectangle@1234@@Z 00000001800d49f0 f i GuSweepsHF.obj
 0001:000d39f0       ?visitCells@?$OverlapTraceSegment@VConvexTraceSegmentReport@@@HeightFieldTraceUtil@Gu@physx@@QEAA_NAEBUOverlapRectangle@1234@@Z 00000001800d49f0 f i GuSweepsHF.obj
 0001:000d3bd0       ?intersectOBBOBB@Gu@physx@@YA_NAEBV?$PxVec3T@M@2@0AEBV?$PxMat33T@M@2@001_N@Z 00000001800d4bd0 f   GuIntersectionBoxBox.obj
 0001:000d4270       ?intersectCapsuleTriangle@Gu@physx@@YA_NAEBV?$PxVec3T@M@2@000AEBVCapsule@12@AEBUCapsuleTriangleOverlapData@12@@Z 00000001800d5270 f   GuIntersectionCapsuleTriangle.obj
 0001:000d4db0       ?intersectEdgeEdge@Gu@physx@@YA_NAEBV?$PxVec3T@M@2@0000AEAMAEAV32@@Z 00000001800d5db0 f   GuIntersectionEdgeEdge.obj
 0001:000d50e0       ?intersectRayAABB2@Gu@physx@@YA_NAEBT__m128@@0000AEAT3@1@Z 00000001800d60e0 f   GuIntersectionRayBox.obj
 0001:000d51a0       ?intersectRayAABB2@Gu@physx@@YA_NAEBV?$PxVec3T@M@2@000MAEAM1@Z 00000001800d61a0 f   GuIntersectionRayBox.obj
 0001:000d5350       ?intersectRayAABB@Gu@physx@@YAHAEBV?$PxVec3T@M@2@000AEAM1@Z 00000001800d6350 f   GuIntersectionRayBox.obj
 0001:000d5470       ?rayAABBIntersect2@Gu@physx@@YAIAEBV?$PxVec3T@M@2@000AEAV32@AEAM@Z 00000001800d6470 f   GuIntersectionRayBox.obj
 0001:000d56b0       ?intersectRayCapsuleInternal@Gu@physx@@YAIAEBV?$PxVec3T@M@2@000MQEAM@Z 00000001800d66b0 f   GuIntersectionRayCapsule.obj
 0001:000d5b90       ?intersectRaySphere@Gu@physx@@YA_NAEBV?$PxVec3T@M@2@0M0MAEAMPEAV32@@Z 00000001800d6b90 f   GuIntersectionRaySphere.obj
 0001:000d5c90       ?intersectRaySphereBasic@Gu@physx@@YA_NAEBV?$PxVec3T@M@2@0M0MAEAMPEAV32@@Z 00000001800d6c90 f   GuIntersectionRaySphere.obj
 0001:000d5df0       ?intersectSphereBox@Gu@physx@@YA_NAEBVSphere@12@AEBVBox@12@@Z 00000001800d6df0 f   GuIntersectionSphereBox.obj
 0001:000d6020       ?intersectTetrahedronBox@Gu@physx@@YA_NAEBV?$PxVec3T@M@2@000AEBVPxBounds3@2@@Z 00000001800d7020 f   GuIntersectionTetrahedronBox.obj
 0001:000d63f0       ?intersectTriangleBox@Gu@physx@@YAHAEBVBoxPadded@12@AEBV?$PxVec3T@M@2@11@Z 00000001800d73f0 f   GuIntersectionTriangleBox.obj
 0001:000d69d0       ?intersectTriangleBoxBV4@@YAHAEBV?$PxVec3T@M@physx@@00AEBV?$PxMat33T@M@2@00@Z 00000001800d79d0 f   GuIntersectionTriangleBox.obj
 0001:000d6e10       ?intersectTriangleBox_ReferenceCode@Gu@physx@@YAHAEBV?$PxVec3T@M@2@0000@Z 00000001800d7e10 f   GuIntersectionTriangleBox.obj
 0001:000d7650       ?intersectTriangleBox_Unsafe@Gu@physx@@YAHAEBV?$PxVec3T@M@2@0000@Z 00000001800d8650 f   GuIntersectionTriangleBox.obj
 0001:000d7a10       ?intersectTriangleTriangle@Gu@physx@@YA_NAEBV?$PxVec3T@M@2@00000_N@Z 00000001800d8a10 f   GuIntersectionTriangleTriangle.obj
 0001:000d8e50       ??0BV4Tree@Gu@physx@@QEAA@W4PxEMPTY@2@@Z 00000001800d9e50 f   GuBV4.obj
 0001:000d8e60       ??0BV4Tree@Gu@physx@@QEAA@XZ 00000001800d9e60 f   GuBV4.obj
 0001:000d8e90       ??0SourceMesh@Gu@physx@@QEAA@XZ 00000001800d9e90 f   GuBV4.obj
 0001:000d8ec0       ??0TetrahedronSourceMesh@Gu@physx@@QEAA@XZ 00000001800d9ec0 f   GuBV4.obj
 0001:000d8ef0       ??1BV4Tree@Gu@physx@@QEAA@XZ 00000001800d9ef0 f   GuBV4.obj
 0001:000d8f00       ??1SourceMesh@Gu@physx@@UEAA@XZ 00000001800d9f00 f   GuBV4.obj
 0001:000d8f00       ??1TetrahedronSourceMesh@Gu@physx@@UEAA@XZ 00000001800d9f00 f   GuBV4.obj
 0001:000d8f50       ??4BV4Tree@Gu@physx@@QEAAXAEAV012@@Z 00000001800d9f50 f   GuBV4.obj
 0001:000d8fe0       ??4SourceMesh@Gu@physx@@QEAAXAEAV012@@Z 00000001800d9fe0 f   GuBV4.obj
 0001:000d9030       ??_ESourceMesh@Gu@physx@@UEAAPEAXI@Z 00000001800da030 f i GuBV4.obj
 0001:000d9030       ??_ETetrahedronSourceMesh@Gu@physx@@UEAAPEAXI@Z 00000001800da030 f i GuBV4.obj
 0001:000d9030       ??_GSourceMesh@Gu@physx@@UEAAPEAXI@Z 00000001800da030 f i GuBV4.obj
 0001:000d9030       ??_GTetrahedronSourceMesh@Gu@physx@@UEAAPEAXI@Z 00000001800da030 f i GuBV4.obj
 0001:000d90d0       ??_ESourceMeshBase@Gu@physx@@UEAAPEAXI@Z 00000001800da0d0 f i GuBV4.obj
 0001:000d90d0       ??_GSourceMeshBase@Gu@physx@@UEAAPEAXI@Z 00000001800da0d0 f i GuBV4.obj
 0001:000d9170       ?exportExtraData@BV4Tree@Gu@physx@@QEAAXAEAVPxSerializationContext@3@@Z 00000001800da170 f   GuBV4.obj
 0001:000d91d0       ?getPrimitiveBox@SourceMesh@Gu@physx@@UEAAXIAEAT__m128@@0@Z 00000001800da1d0 f   GuBV4.obj
 0001:000d9260       ?getPrimitiveBox@TetrahedronSourceMesh@Gu@physx@@UEAAXIAEAT__m128@@0@Z 00000001800da260 f   GuBV4.obj
 0001:000d9310       ?importExtraData@BV4Tree@Gu@physx@@QEAAXAEAVPxDeserializationContext@3@@Z 00000001800da310 f   GuBV4.obj
 0001:000d9350       ?init@BV32Tree@Gu@physx@@QEAA_NPEAVSourceMeshBase@23@AEBVPxBounds3@3@@Z 00000001800da350 f   GuBV32.obj
 0001:000d9350       ?init@BV4Tree@Gu@physx@@QEAA_NPEAVSourceMeshBase@23@AEBVPxBounds3@3@@Z 00000001800da350 f   GuBV4.obj
 0001:000d93f0       ?load@BV4Tree@Gu@physx@@QEAA_NAEAVPxInputStream@3@_N@Z 00000001800da3f0 f   GuBV4.obj
 0001:000d95d0       ?refit@BV4Tree@Gu@physx@@QEAA_NAEAVPxBounds3@3@M@Z 00000001800da5d0 f   GuBV4.obj
 0001:000d9d30       ?refit@SourceMesh@Gu@physx@@UEAAXIAEAVPxBounds3@3@@Z 00000001800dad30 f   GuBV4.obj
 0001:000d9ee0       ?refit@TetrahedronSourceMesh@Gu@physx@@UEAAXIAEAVPxBounds3@3@@Z 00000001800daee0 f   GuBV4.obj
 0001:000da110       ?release@BV4Tree@Gu@physx@@QEAAXXZ 00000001800db110 f   GuBV4.obj
 0001:000da180       ?remapTopology@SourceMesh@Gu@physx@@UEAAXPEBI@Z 00000001800db180 f   GuBV4.obj
 0001:000da460       ?remapTopology@TetrahedronSourceMesh@Gu@physx@@UEAAXPEBI@Z 00000001800db460 f   GuBV4.obj
 0001:000da750       ??0BV4_AABBTree@Gu@physx@@QEAA@XZ 00000001800db750 f   GuBV4Build.obj
 0001:000da760       ??0BVData@@QEAA@XZ         00000001800db760 f   GuBV4Build.obj
 0001:000da790       ??0BuildStats@Gu@physx@@QEAA@XZ 00000001800db790 f i GuBV4Build.obj
 0001:000da7a0       ??1BV4_AABBTree@Gu@physx@@QEAA@XZ 00000001800db7a0 f   GuBV4Build.obj
 0001:000da7b0       ??4BuildStats@Gu@physx@@QEAAAEAU012@$$QEAU012@@Z 00000001800db7b0 f i GuBV4Build.obj
 0001:000da7c0       ??4BuildStats@Gu@physx@@QEAAAEAU012@AEBU012@@Z 00000001800db7c0 f i GuBV4Build.obj
 0001:000da7d0       ?BuildBV4Ex@Gu@physx@@YA_NAEAVBV4Tree@12@AEAVSourceMeshBase@12@MI_NW4BV4_BuildStrategy@12@@Z 00000001800db7d0 f   GuBV4Build.obj
 0001:000db6b0       ?allocateNode@BV4BuildParams@@QEAAPEAUBV4Node@@XZ 00000001800dc6b0 f   GuBV4Build.obj
 0001:000dbb20       ?buildFromMesh@BV4_AABBTree@Gu@physx@@QEAA_NAEAVSourceMeshBase@23@IW4BV4_BuildStrategy@23@@Z 00000001800dcb20 f   GuBV4Build.obj
 0001:000dca80       ?getCount@BuildStats@Gu@physx@@QEBAIXZ 00000001800dda80 f i GuBV4Build.obj
 0001:000dca80       ?getNbActiveObjects@PruningPool@Gu@physx@@QEBAIXZ 00000001800dda80 f i GuIncrementalAABBPrunerCore.obj
 0001:000dcb60       ?increaseCount@BuildStats@Gu@physx@@QEAAXI@Z 00000001800ddb60 f i GuBV4Build.obj
 0001:000dd5b0       ?release@BV4_AABBTree@Gu@physx@@QEAAXXZ 00000001800de5b0 f   GuBV4Build.obj
 0001:000dd660       ?releaseNodes@BV4BuildParams@@QEAAXXZ 00000001800de660 f   GuBV4Build.obj
 0001:000dd6d0       ?reset@BuildStats@Gu@physx@@QEAAXXZ 00000001800de6d0 f i GuBV4Build.obj
 0001:000dd6e0       ?setCount@BuildStats@Gu@physx@@QEAAXI@Z 00000001800de6e0 f i GuBV4Build.obj
 0001:000ddd50       ?walk@BV4_AABBTree@Gu@physx@@QEBAIP6A_NPEBVAABBTreeNode@23@IPEAX@Z1@Z 00000001800ded50 f   GuBV4Build.obj
 0001:000dde10       ?walkDistance@BV4_AABBTree@Gu@physx@@QEBAIP6A_NPEBVAABBTreeNode@23@IPEAX@ZP6A_N01@Z1@Z 00000001800dee10 f   GuBV4Build.obj
 0001:000e1d30       ?GenericSweep_AABB_CB@@YAXAEBVBox@Gu@physx@@AEBV?$PxVec3T@M@3@MAEBVBV4Tree@23@P6A_NPEAX111IAEAM@Z3I@Z 00000001800e2d30 f   GuBV4_AABBSweep.obj
 0001:000e1e50       ?Sweep_AABB_BV4@@YAHAEBVBox@Gu@physx@@AEBV?$PxVec3T@M@3@MAEBVBV4Tree@23@PEIAVSweepHit@23@I@Z 00000001800e2e50 f   GuBV4_AABBSweep.obj
 0001:000eae50       ?BV4_OverlapBoxAll@@YAIAEBVBox@Gu@physx@@AEBVBV4Tree@23@PEIBV?$PxMat44T@M@3@PEAIIAEA_N@Z 00000001800ebe50 f   GuBV4_BoxOverlap.obj
 0001:000eb670       ?BV4_OverlapBoxAny@@YAHAEBVBox@Gu@physx@@AEBVBV4Tree@23@PEIBV?$PxMat44T@M@3@@Z 00000001800ec670 f   GuBV4_BoxOverlap.obj
 0001:000ebe30       ?BV4_OverlapBoxCB@@YAXAEBVBox@Gu@physx@@AEBVBV4Tree@23@P6A_NPEAXAEBV?$PxVec3T@M@3@333IPEBI@Z2@Z 00000001800ece30 f   GuBV4_BoxOverlap.obj
 0001:000ec4c0       ?BV4_OverlapBoxCB@@YAXAEBVBox@Gu@physx@@AEBVBV4Tree@23@P6A_NPEAXAEBV?$PxVec3T@M@3@33IPEBI@Z2@Z 00000001800ed4c0 f   GuBV4_BoxOverlap.obj
 0001:000ec980       ?BV4_OverlapCapsuleAll@@YAIAEBVCapsule@Gu@physx@@AEBVBV4Tree@23@PEIBV?$PxMat44T@M@3@PEAIIAEA_N@Z 00000001800ed980 f   GuBV4_BoxOverlap.obj
 0001:000ed080       ?BV4_OverlapCapsuleAny@@YAHAEBVCapsule@Gu@physx@@AEBVBV4Tree@23@PEIBV?$PxMat44T@M@3@@Z 00000001800ee080 f   GuBV4_BoxOverlap.obj
 0001:000efdb0       ?BV4_CapsuleSweepSingle@@YAHAEBVCapsule@Gu@physx@@AEBV?$PxVec3T@M@3@MAEBVBV4Tree@23@PEIAVSweepHit@23@I@Z 00000001800f0db0 f   GuBV4_CapsuleSweep.obj
 0001:000f3e90       ?BV4_CapsuleSweepSingleAA@@YAHAEBVCapsule@Gu@physx@@AEBV?$PxVec3T@M@3@MAEBVBV4Tree@23@PEIAVSweepHit@23@I@Z 00000001800f4e90 f   GuBV4_CapsuleSweepAA.obj
 0001:00104f10       ?BV4_OverlapMeshVsMesh@@YA_NAEAV?$PxReportCallback@UPxGeomIndexPair@physx@@@physx@@AEBVBV4Tree@Gu@2@1PEBV?$PxMat44T@M@2@2AEBV?$PxTransformT@M@2@3AEBVPxMeshScale@2@4V?$PxFlags@W4Enum@PxMeshMeshQueryFlag@physx@@I@2@M@Z 0000000180105f10 f   GuBV4_MeshMeshOverlap.obj
 0001:00104f90       ?BV4_OverlapMeshVsMeshDistance@@YA_NAEAV?$PxReportCallback@UPxGeomIndexClosePair@physx@@@physx@@AEBVBV4Tree@Gu@2@1PEBV?$PxMat44T@M@2@2AEBV?$PxTransformT@M@2@3AEBVPxMeshScale@2@4V?$PxFlags@W4Enum@PxMeshMeshQueryFlag@physx@@I@2@M@Z 0000000180105f90 f   GuBV4_MeshMeshOverlap.obj
 0001:0010deb0       ?BV4_BoxSweepSingle@@YAHAEBVBox@Gu@physx@@AEBV?$PxVec3T@M@3@MAEBVBV4Tree@23@PEIBV?$PxMat44T@M@3@PEIAVSweepHit@23@I@Z 000000018010eeb0 f   GuBV4_OBBSweep.obj
 0001:0010e5e0       ?BV4_GenericSweepCB@@YAXAEBVBox@Gu@physx@@AEBV?$PxVec3T@M@3@MAEBVBV4Tree@23@P6A_NPEAX111IAEAM@Z3_N@Z 000000018010f5e0 f   GuBV4_OBBSweep.obj
 0001:0010e800       ?Sweep_OBB_BV4@@YAHAEBVBox@Gu@physx@@AEBV?$PxVec3T@M@3@MAEBVBV4Tree@23@PEIAVSweepHit@23@I@Z 000000018010f800 f   GuBV4_OBBSweep.obj
 0001:00111350       ?BV4_RaycastCB@@YAXAEBV?$PxVec3T@M@physx@@0AEBVBV4Tree@Gu@2@PEIBV?$PxMat44T@M@2@MMIP6A?AW4HitCode@42@PEAX000IMMM@Z3@Z 0000000180112350 f   GuBV4_Raycast.obj
 0001:00111780       ?BV4_RaycastSingle@@YAHAEBV?$PxVec3T@M@physx@@0AEBVBV4Tree@Gu@2@PEIBV?$PxMat44T@M@2@PEIAUPxGeomRaycastHit@2@MMIV?$PxFlags@W4Enum@PxHitFlag@physx@@G@2@@Z 0000000180112780 f   GuBV4_Raycast.obj
 0001:00113d10       ?BV4_OverlapSphereAll@@YAIAEBVSphere@Gu@physx@@AEBVBV4Tree@23@PEIBV?$PxMat44T@M@3@PEAIIAEA_N@Z 0000000180114d10 f   GuBV4_SphereOverlap.obj
 0001:00114030       ?BV4_OverlapSphereAny@@YAHAEBVSphere@Gu@physx@@AEBVBV4Tree@23@PEIBV?$PxMat44T@M@3@@Z 0000000180115030 f   GuBV4_SphereOverlap.obj
 0001:00114310       ?BV4_PointDistance@@YAXAEBV?$PxVec3T@M@physx@@AEBVBV4Tree@Gu@2@MAEAIAEAMAEAV12@@Z 0000000180115310 f   GuBV4_SphereOverlap.obj
 0001:0011ab60       ?BV4_GenericSweepCB_Old@@YAXAEBV?$PxVec3T@M@physx@@00MAEBVBV4Tree@Gu@2@PEIBV?$PxMat44T@M@2@P6A_NPEAX000IAEAM@Z3@Z 000000018011bb60 f   GuBV4_SphereSweep.obj
 0001:0011af80       ?BV4_SphereSweepSingle@@YAHAEBVSphere@Gu@physx@@AEBV?$PxVec3T@M@3@MAEBVBV4Tree@23@PEIBV?$PxMat44T@M@3@PEIAVSweepHit@23@I@Z 000000018011bf80 f   GuBV4_SphereSweep.obj
 0001:0011c2e0       ?computeSweepData@physx@@YAMAEBVPxTriangleMeshGeometry@1@AEAV?$PxVec3T@M@1@11M@Z 000000018011d2e0 f i GuMidphaseBV4.obj
 0001:0011c600       ?distanceMeshVsMesh_BV4@Gu@physx@@YA_NAEAV?$PxReportCallback@UPxGeomIndexClosePair@physx@@@2@AEBVTriangleMesh@12@AEBV?$PxTransformT@M@2@AEBVPxMeshScale@2@123V?$PxFlags@W4Enum@PxMeshMeshQueryFlag@physx@@I@2@M@Z 000000018011d600 f   GuMidphaseBV4.obj
 0001:0011df10       ?intersectBoxVsMesh_BV4@Gu@physx@@YA_NAEBVBox@12@AEBVTriangleMesh@12@AEBV?$PxTransformT@M@2@AEBVPxMeshScale@2@PEAULimitedResults@12@@Z 000000018011ef10 f   GuMidphaseBV4.obj
 0001:0011e980       ?intersectCapsuleVsMesh_BV4@Gu@physx@@YA_NAEBVCapsule@12@AEBVTriangleMesh@12@AEBV?$PxTransformT@M@2@AEBVPxMeshScale@2@PEAULimitedResults@12@@Z 000000018011f980 f   GuMidphaseBV4.obj
 0001:0011f1d0       ?intersectMeshVsMesh_BV4@Gu@physx@@YA_NAEAV?$PxReportCallback@UPxGeomIndexPair@physx@@@2@AEBVTriangleMesh@12@AEBV?$PxTransformT@M@2@AEBVPxMeshScale@2@123V?$PxFlags@W4Enum@PxMeshMeshQueryFlag@physx@@I@2@M@Z 00000001801201d0 f   GuMidphaseBV4.obj
 0001:0011fa60       ?intersectOBB_BV4@Gu@physx@@YAXPEBVTetrahedronMesh@12@AEBVBox@12@AEAU?$TetMeshHitCallback@UPxGeomRaycastHit@physx@@@12@@Z 0000000180120a60 f   GuMidphaseBV4.obj
 0001:0011fa80       ?intersectOBB_BV4@Gu@physx@@YAXPEBVTriangleMesh@12@AEBVBox@12@AEAU?$MeshHitCallback@UPxGeomRaycastHit@physx@@@12@_N3@Z 0000000180120a80 f   GuMidphaseBV4.obj
 0001:0011faa0       ?intersectSphereVsMesh_BV4@Gu@physx@@YA_NAEBVSphere@12@AEBVTriangleMesh@12@AEBV?$PxTransformT@M@2@AEBVPxMeshScale@2@PEAULimitedResults@12@@Z 0000000180120aa0 f   GuMidphaseBV4.obj
 0001:001201e0       ?pointMeshDistance_BV4@Gu@physx@@YAXPEBVTriangleMesh@12@AEBVPxTriangleMeshGeometry@2@AEBV?$PxTransformT@M@2@AEBV?$PxVec3T@M@2@MAEAIAEAMAEAV62@@Z 00000001801211e0 f   GuMidphaseBV4.obj
 0001:00120880       ?raycast_triangleMesh_BV4@Gu@physx@@YAIPEBVTriangleMesh@12@AEBVPxTriangleMeshGeometry@2@AEBV?$PxTransformT@M@2@AEBV?$PxVec3T@M@2@3MV?$PxFlags@W4Enum@PxHitFlag@physx@@G@2@IPEIAUPxGeomRaycastHit@2@I@Z 0000000180121880 f   GuMidphaseBV4.obj
 0001:001216a0       ?sweepBox_MeshGeom_BV4@Gu@physx@@YA_NPEBVTriangleMesh@12@AEBVPxTriangleMeshGeometry@2@AEBV?$PxTransformT@M@2@AEBVBox@12@AEBV?$PxVec3T@M@2@MAEAUPxGeomSweepHit@2@V?$PxFlags@W4Enum@PxHitFlag@physx@@G@2@M@Z 00000001801226a0 f   GuMidphaseBV4.obj
 0001:00122c90       ?sweepCapsule_MeshGeom_BV4@Gu@physx@@YA_NPEBVTriangleMesh@12@AEBVPxTriangleMeshGeometry@2@AEBV?$PxTransformT@M@2@AEBVCapsule@12@AEBV?$PxVec3T@M@2@MAEAUPxGeomSweepHit@2@V?$PxFlags@W4Enum@PxHitFlag@physx@@G@2@M@Z 0000000180123c90 f   GuMidphaseBV4.obj
 0001:00123760       ?sweepConvex_MeshGeom_BV4@Gu@physx@@YAXPEBVTriangleMesh@12@AEBVBox@12@AEBV?$PxVec3T@M@2@MAEAUSweepConvexMeshHitCallback@12@_N@Z 0000000180124760 f   GuMidphaseBV4.obj
 0001:001237a0       ?transform@PxMeshScale@physx@@QEBA?AV?$PxVec3T@M@2@AEBV32@@Z 00000001801247a0 f i GuMidphaseBV4.obj
 0001:00123a00       ?findOverlapHeightField@PxMeshQuery@physx@@SAIAEBVPxGeometry@2@AEBV?$PxTransformT@M@2@AEBVPxHeightFieldGeometry@2@1PEAIIIAEA_NV?$PxFlags@W4Enum@PxGeometryQueryFlag@physx@@I@2@@Z 0000000180124a00 f   GuMeshQuery.obj
 0001:00124160       ?findOverlapTriangleMesh@PxMeshQuery@physx@@SAIAEBVPxGeometry@2@AEBV?$PxTransformT@M@2@AEBVPxTriangleMeshGeometry@2@1PEAIIIAEA_NV?$PxFlags@W4Enum@PxGeometryQueryFlag@physx@@I@2@@Z 0000000180125160 f   GuMeshQuery.obj
 0001:00124450       ?findOverlapTriangleMesh@PxMeshQuery@physx@@SA_NAEAV?$PxReportCallback@UPxGeomIndexClosePair@physx@@@2@AEBVPxTriangleMeshGeometry@2@AEBV?$PxTransformT@M@2@12V?$PxFlags@W4Enum@PxGeometryQueryFlag@physx@@I@2@V?$PxFlags@W4Enum@PxMeshMeshQueryFlag@physx@@I@2@M@Z 0000000180125450 f   GuMeshQuery.obj
 0001:00124580       ?findOverlapTriangleMesh@PxMeshQuery@physx@@SA_NAEAV?$PxReportCallback@UPxGeomIndexPair@physx@@@2@AEBVPxTriangleMeshGeometry@2@AEBV?$PxTransformT@M@2@12V?$PxFlags@W4Enum@PxGeometryQueryFlag@physx@@I@2@V?$PxFlags@W4Enum@PxMeshMeshQueryFlag@physx@@I@2@M@Z 0000000180125580 f   GuMeshQuery.obj
 0001:001246b0       ?getTriangle@PxMeshQuery@physx@@SAXAEBVPxHeightFieldGeometry@2@AEBV?$PxTransformT@M@2@IAEAVPxTriangle@2@PEAI3@Z 00000001801256b0 f   GuMeshQuery.obj
 0001:00124730       ?getTriangle@PxMeshQuery@physx@@SAXAEBVPxTriangleMeshGeometry@2@AEBV?$PxTransformT@M@2@IAEAVPxTriangle@2@PEAI3@Z 0000000180125730 f   GuMeshQuery.obj
 0001:00124be0       ?sweep@PxMeshQuery@physx@@SA_NAEBV?$PxVec3T@M@2@MAEBVPxGeometry@2@AEBV?$PxTransformT@M@2@IPEBVPxTriangle@2@AEAUPxGeomSweepHit@2@V?$PxFlags@W4Enum@PxHitFlag@physx@@G@2@PEBIM_NV?$PxFlags@W4Enum@PxGeometryQueryFlag@physx@@I@2@@Z 0000000180125be0 f   GuMeshQuery.obj
 0001:00124d90       ??$collide@$00$00@MeshRayCollider@@SAXAEBV?$PxVec3T@M@physx@@0M_NPEBVRTreeTriangleMesh@Gu@2@AEAU?$MeshHitCallback@UPxGeomRaycastHit@physx@@@42@PEBV12@@Z 0000000180125d90 f i GuMidphaseRTree.obj
 0001:00125100       ??$collide@$00$0A@@MeshRayCollider@@SAXAEBV?$PxVec3T@M@physx@@0M_NPEBVRTreeTriangleMesh@Gu@2@AEAU?$MeshHitCallback@UPxGeomRaycastHit@physx@@@42@PEBV12@@Z 0000000180126100 f i GuMidphaseRTree.obj
 0001:00125340       ??$collide@$0A@$00@MeshRayCollider@@SAXAEBV?$PxVec3T@M@physx@@0M_NPEBVRTreeTriangleMesh@Gu@2@AEAU?$MeshHitCallback@UPxGeomRaycastHit@physx@@@42@PEBV12@@Z 0000000180126340 f i GuMidphaseRTree.obj
 0001:00127370       ??0?$RayRTreeCallback@$00$0A@@@QEAA@MAEAU?$MeshHitCallback@UPxGeomRaycastHit@physx@@@Gu@physx@@HPEBXPEBV?$PxVec3T@M@3@AEBV43@3M_N2@Z 0000000180128370 f i GuMidphaseRTree.obj
 0001:00127490       ??1?$RayRTreeCallback@$00$00@@UEAA@XZ 0000000180128490 f i GuMidphaseRTree.obj
 0001:00127520       ??1?$RayRTreeCallback@$00$0A@@@UEAA@XZ 0000000180128520 f i GuMidphaseRTree.obj
 0001:00127520       ??1?$RayRTreeCallback@$0A@$0A@@@UEAA@XZ 0000000180128520 f i GuMidphaseRTree.obj
 0001:001275b0       ??1?$RayRTreeCallback@$0A@$00@@UEAA@XZ 00000001801285b0 f i GuMidphaseRTree.obj
 0001:00127638       ??_E?$RayRTreeCallback@$00$00@@W7EAAPEAXI@Z 0000000180128638 f i GuMidphaseRTree.obj
 0001:00127644       ??_E?$RayRTreeCallback@$00$0A@@@W7EAAPEAXI@Z 0000000180128644 f i GuMidphaseRTree.obj
 0001:00127644       ??_E?$RayRTreeCallback@$0A@$0A@@@W7EAAPEAXI@Z 0000000180128644 f i GuMidphaseRTree.obj
 0001:00127650       ??_E?$RayRTreeCallback@$0A@$00@@W7EAAPEAXI@Z 0000000180128650 f i GuMidphaseRTree.obj
 0001:001276c0       ??_E?$RayRTreeCallback@$00$00@@UEAAPEAXI@Z 00000001801286c0 f i GuMidphaseRTree.obj
 0001:001276c0       ??_G?$RayRTreeCallback@$00$00@@UEAAPEAXI@Z 00000001801286c0 f i GuMidphaseRTree.obj
 0001:00127700       ??_E?$RayRTreeCallback@$00$0A@@@UEAAPEAXI@Z 0000000180128700 f i GuMidphaseRTree.obj
 0001:00127700       ??_E?$RayRTreeCallback@$0A@$0A@@@UEAAPEAXI@Z 0000000180128700 f i GuMidphaseRTree.obj
 0001:00127700       ??_G?$RayRTreeCallback@$00$0A@@@UEAAPEAXI@Z 0000000180128700 f i GuMidphaseRTree.obj
 0001:00127700       ??_G?$RayRTreeCallback@$0A@$0A@@@UEAAPEAXI@Z 0000000180128700 f i GuMidphaseRTree.obj
 0001:00127740       ??_E?$RayRTreeCallback@$0A@$00@@UEAAPEAXI@Z 0000000180128740 f i GuMidphaseRTree.obj
 0001:00127740       ??_G?$RayRTreeCallback@$0A@$00@@UEAAPEAXI@Z 0000000180128740 f i GuMidphaseRTree.obj
 0001:00127780       ??_ECallback@RTree@Gu@physx@@UEAAPEAXI@Z 0000000180128780 f i GuMidphaseRTree.obj
 0001:00127780       ??_GCallback@RTree@Gu@physx@@UEAAPEAXI@Z 0000000180128780 f i GuMidphaseRTree.obj
 0001:001277b0       ??_ERayMeshColliderCallback@@UEAAPEAXI@Z 00000001801287b0 f i GuMidphaseRTree.obj
 0001:001277b0       ??_ESweepCapsuleMeshHitCallback@Gu@physx@@UEAAPEAXI@Z 00000001801287b0 f i GuSweepsMesh.obj
 0001:001277b0       ??_GRayMeshColliderCallback@@UEAAPEAXI@Z 00000001801287b0 f i GuMidphaseRTree.obj
 0001:001277b0       ??_GSweepCapsuleMeshHitCallback@Gu@physx@@UEAAPEAXI@Z 00000001801287b0 f i GuSweepsMesh.obj
 0001:001277e0       ?collideOBB@MeshRayCollider@@SAXAEBVBox@Gu@physx@@_NPEBVRTreeTriangleMesh@34@AEAU?$MeshHitCallback@UPxGeomRaycastHit@physx@@@34@1@Z 00000001801287e0 f   GuMidphaseRTree.obj
 0001:00127cb0       ?intersectBoxVsMesh_RTREE@Gu@physx@@YA_NAEBVBox@12@AEBVTriangleMesh@12@AEBV?$PxTransformT@M@2@AEBVPxMeshScale@2@PEAULimitedResults@12@@Z 0000000180128cb0 f   GuMidphaseRTree.obj
 0001:00127d20       ?intersectCapsuleVsMesh_RTREE@Gu@physx@@YA_NAEBVCapsule@12@AEBVTriangleMesh@12@AEBV?$PxTransformT@M@2@AEBVPxMeshScale@2@PEAULimitedResults@12@@Z 0000000180128d20 f   GuMidphaseRTree.obj
 0001:00127da0       ?intersectOBB_RTREE@Gu@physx@@YAXPEBVTriangleMesh@12@AEBVBox@12@AEAU?$MeshHitCallback@UPxGeomRaycastHit@physx@@@12@_N3@Z 0000000180128da0 f   GuMidphaseRTree.obj
 0001:00127dd0       ?intersectSphereVsMesh_RTREE@Gu@physx@@YA_NAEBVSphere@12@AEBVTriangleMesh@12@AEBV?$PxTransformT@M@2@AEBVPxMeshScale@2@PEAULimitedResults@12@@Z 0000000180128dd0 f   GuMidphaseRTree.obj
 0001:00128090       ?pointMeshDistance_RTREE@Gu@physx@@YAXPEBVTriangleMesh@12@AEBVPxTriangleMeshGeometry@2@AEBV?$PxTransformT@M@2@AEBV?$PxVec3T@M@2@MAEAIAEAMAEAV62@@Z 0000000180129090 f   GuMidphaseRTree.obj
 0001:00128d20       ?processHit@RayMeshColliderCallback@@UEAA_NAEBUPxGeomRaycastHit@physx@@AEBV?$PxVec3T@M@3@11AEAMPEBI@Z 0000000180129d20 f i GuMidphaseRTree.obj
 0001:001294d0       ?processResults@?$RayRTreeCallback@$00$00@@UEAA_NIPEAI@Z 000000018012a4d0 f i GuMidphaseRTree.obj
 0001:00129840       ?processResults@?$RayRTreeCallback@$00$00@@UEAA_NIPEAIAEAM@Z 000000018012a840 f i GuMidphaseRTree.obj
 0001:00129ba0       ?processResults@?$RayRTreeCallback@$00$0A@@@UEAA_NIPEAI@Z 000000018012aba0 f i GuMidphaseRTree.obj
 0001:00129ba0       ?processResults@?$RayRTreeCallback@$0A@$0A@@@UEAA_NIPEAI@Z 000000018012aba0 f i GuMidphaseRTree.obj
 0001:00129e10       ?processResults@?$RayRTreeCallback@$00$0A@@@UEAA_NIPEAIAEAM@Z 000000018012ae10 f i GuMidphaseRTree.obj
 0001:00129e10       ?processResults@?$RayRTreeCallback@$0A@$0A@@@UEAA_NIPEAIAEAM@Z 000000018012ae10 f i GuMidphaseRTree.obj
 0001:0012a080       ?processResults@?$RayRTreeCallback@$0A@$00@@UEAA_NIPEAI@Z 000000018012b080 f i GuMidphaseRTree.obj
 0001:0012a6e0       ?processResults@?$RayRTreeCallback@$0A@$00@@UEAA_NIPEAIAEAM@Z 000000018012b6e0 f i GuMidphaseRTree.obj
 0001:0012ad50       ?raycast_triangleMesh_RTREE@Gu@physx@@YAIPEBVTriangleMesh@12@AEBVPxTriangleMeshGeometry@2@AEBV?$PxTransformT@M@2@AEBV?$PxVec3T@M@2@3MV?$PxFlags@W4Enum@PxHitFlag@physx@@G@2@IPEIAUPxGeomRaycastHit@2@I@Z 000000018012bd50 f   GuMidphaseRTree.obj
 0001:0012b4c0       ?sweepBox_MeshGeom_RTREE@Gu@physx@@YA_NPEBVTriangleMesh@12@AEBVPxTriangleMeshGeometry@2@AEBV?$PxTransformT@M@2@AEBVBox@12@AEBV?$PxVec3T@M@2@MAEAUPxGeomSweepHit@2@V?$PxFlags@W4Enum@PxHitFlag@physx@@G@2@M@Z 000000018012c4c0 f   GuMidphaseRTree.obj
 0001:0012c820       ?sweepCapsule_MeshGeom_RTREE@Gu@physx@@YA_NPEBVTriangleMesh@12@AEBVPxTriangleMeshGeometry@2@AEBV?$PxTransformT@M@2@AEBVCapsule@12@AEBV?$PxVec3T@M@2@MAEAUPxGeomSweepHit@2@V?$PxFlags@W4Enum@PxHitFlag@physx@@G@2@M@Z 000000018012d820 f   GuMidphaseRTree.obj
 0001:0012cf80       ?sweepConvex_MeshGeom_RTREE@Gu@physx@@YAXPEBVTriangleMesh@12@AEBVBox@12@AEBV?$PxVec3T@M@2@MAEAUSweepConvexMeshHitCallback@12@_N@Z 000000018012df80 f   GuMidphaseRTree.obj
 0001:0012d980       ??_EPxReportCallbackBase@physx@@UEAAPEAXI@Z 000000018012e980 f i GuOverlapTestsMesh.obj
 0001:0012d980       ??_GPxReportCallbackBase@physx@@UEAAPEAXI@Z 000000018012e980 f i GuOverlapTestsMesh.obj
 0001:0012d9b0       ?GeomOverlapCallback_BoxMesh@@YA_NAEBVPxGeometry@physx@@AEBV?$PxTransformT@M@2@01PEAUTriggerCache@Gu@2@PEAUPxQueryThreadContext@2@@Z 000000018012e9b0 f   GuOverlapTestsMesh.obj
 0001:0012dac0       ?GeomOverlapCallback_CapsuleMesh@@YA_NAEBVPxGeometry@physx@@AEBV?$PxTransformT@M@2@01PEAUTriggerCache@Gu@2@PEAUPxQueryThreadContext@2@@Z 000000018012eac0 f   GuOverlapTestsMesh.obj
 0001:0012dbf0       ?GeomOverlapCallback_ConvexMesh@@YA_NAEBVPxGeometry@physx@@AEBV?$PxTransformT@M@2@01PEAUTriggerCache@Gu@2@PEAUPxQueryThreadContext@2@@Z 000000018012ebf0 f   GuOverlapTestsMesh.obj
 0001:0012e0f0       ?GeomOverlapCallback_MeshMesh@@YA_NAEBVPxGeometry@physx@@AEBV?$PxTransformT@M@2@01PEAUTriggerCache@Gu@2@PEAUPxQueryThreadContext@2@@Z 000000018012f0f0 f   GuOverlapTestsMesh.obj
 0001:0012e1c0       ?GeomOverlapCallback_SphereMesh@@YA_NAEBVPxGeometry@physx@@AEBV?$PxTransformT@M@2@01PEAUTriggerCache@Gu@2@PEAUPxQueryThreadContext@2@@Z 000000018012f1c0 f   GuOverlapTestsMesh.obj
 0001:0012e5a0       ??0RTree@Gu@physx@@QEAA@W4PxEMPTY@2@@Z 000000018012f5a0 f   GuRTree.obj
 0001:0012e5b0       ?exportExtraData@RTree@Gu@physx@@QEAAXAEAVPxSerializationContext@3@@Z 000000018012f5b0 f   GuRTree.obj
 0001:0012e5f0       ?importExtraData@RTree@Gu@physx@@QEAAXAEAVPxDeserializationContext@3@@Z 000000018012f5f0 f   GuRTree.obj
 0001:0012e620       ?load@RTree@Gu@physx@@QEAA_NAEAVPxInputStream@3@I_N@Z 000000018012f620 f   GuRTree.obj
 0001:0012e930       ?refitAllStaticTree@RTree@Gu@physx@@QEAAXAEAUCallbackRefit@123@PEAVPxBounds3@3@@Z 000000018012f930 f   GuRTree.obj
 0001:0012eee0       ?validate@RTree@Gu@physx@@QEAAXPEAUCallbackRefit@123@@Z 000000018012fee0 f   GuRTree.obj
 0001:0012f120       ?validateRecursive@RTree@Gu@physx@@IEAAXIURTreeNodeQ@23@PEAURTreePage@23@PEAUCallbackRefit@123@@Z 0000000180130120 f   GuRTree.obj
 0001:0012f2e0       ??$traverseRay@$00@RTree@Gu@physx@@QEBAXAEBV?$PxVec3T@M@2@0IPEAIPEAUCallbackRaycast@012@PEBV32@M@Z 00000001801302e0 f i GuRTreeQueries.obj
 0001:0012f660       ??$traverseRay@$0A@@RTree@Gu@physx@@QEBAXAEBV?$PxVec3T@M@2@0IPEAIPEAUCallbackRaycast@012@PEBV32@M@Z 0000000180130660 f i GuRTreeQueries.obj
 0001:0012f990       ?traverseAABB@RTree@Gu@physx@@QEBAXAEBV?$PxVec3T@M@3@0IPEAIPEAUCallback@123@@Z 0000000180130990 f   GuRTreeQueries.obj
 0001:0012fb70       ?traverseOBB@RTree@Gu@physx@@QEBAXAEBVBox@23@IPEAIPEAUCallback@123@@Z 0000000180130b70 f   GuRTreeQueries.obj
 0001:00130440       ??0SweepBoxMeshHitCallback@Gu@physx@@QEAA@W4Enum@CallbackMode@12@AEBVPxMat34Padded@2@M_NAEBVBox@12@AEBV?$PxVec3T@M@2@44AEBV?$PxFlags@W4Enum@PxHitFlag@physx@@G@2@M2M@Z 0000000180131440 f   GuSweepsMesh.obj
 0001:00130550       ??0SweepCapsuleMeshHitCallback@Gu@physx@@QEAA@AEAUPxGeomSweepHit@2@AEBV?$PxMat34T@M@2@M_NAEBVCapsule@12@AEBV?$PxVec3T@M@2@AEBV?$PxFlags@W4Enum@PxHitFlag@physx@@G@2@2M@Z 0000000180131550 f   GuSweepsMesh.obj
 0001:00130620       ??0SweepConvexMeshHitCallback@Gu@physx@@QEAA@AEBUConvexHullData@12@AEBVPxMeshScale@2@AEBVFastVertex2ShapeScaling@Cm@2@AEBV?$PxTransformT@M@2@3AEBV?$PxVec3T@M@2@MV?$PxFlags@W4Enum@PxHitFlag@physx@@G@2@_NM6M@Z 0000000180131620 f   GuSweepsMesh.obj
 0001:00130f80       ??_ESweepBoxMeshHitCallback@Gu@physx@@UEAAPEAXI@Z 0000000180131f80 f i GuSweepsMesh.obj
 0001:00130f80       ??_GSweepBoxMeshHitCallback@Gu@physx@@UEAAPEAXI@Z 0000000180131f80 f i GuSweepsMesh.obj
 0001:00130fb0       ??_ESweepConvexMeshHitCallback@Gu@physx@@UEAAPEAXI@Z 0000000180131fb0 f i GuSweepsMesh.obj
 0001:00130fb0       ??_GSweepConvexMeshHitCallback@Gu@physx@@UEAAPEAXI@Z 0000000180131fb0 f i GuSweepsMesh.obj
 0001:00130fe0       ??_ESweepShapeMeshHitCallback@Gu@physx@@UEAAPEAXI@Z 0000000180131fe0 f i GuSweepsMesh.obj
 0001:00130fe0       ??_GSweepShapeMeshHitCallback@Gu@physx@@UEAAPEAXI@Z 0000000180131fe0 f i GuSweepsMesh.obj
 0001:00131010       ?finalizeHit@SweepBoxMeshHitCallback@Gu@physx@@QEBA_NAEAUPxGeomSweepHit@3@AEBVPxTriangleMeshGeometry@3@AEBV?$PxTransformT@M@3@2AEBV?$PxVec3T@M@3@_N4@Z 0000000180132010 f   GuSweepsMesh.obj
 0001:001316c0       ?finalizeHit@SweepCapsuleMeshHitCallback@Gu@physx@@QEBA_NAEAUPxGeomSweepHit@3@AEBVCapsule@23@AEBVPxTriangleMeshGeometry@3@AEBV?$PxTransformT@M@3@_N@Z 00000001801326c0 f   GuSweepsMesh.obj
 0001:00131870       ?finalizeHit@SweepConvexMeshHitCallback@Gu@physx@@QEAA_NAEAUPxGeomSweepHit@3@AEBVPxTriangleMeshGeometry@3@AEBV?$PxTransformT@M@3@AEBVPxConvexMeshGeometry@3@2AEBV?$PxVec3T@M@3@M_N555@Z 0000000180132870 f   GuSweepsMesh.obj
 0001:00131d40       ?processHit@SweepBoxMeshHitCallback@Gu@physx@@UEAA_NAEBUPxGeomRaycastHit@3@AEBV?$PxVec3T@M@3@11AEAMPEBI@Z 0000000180132d40 f   GuSweepsMesh.obj
 0001:00132500       ?processHit@SweepCapsuleMeshHitCallback@Gu@physx@@UEAA_NAEBUPxGeomRaycastHit@3@AEBV?$PxVec3T@M@3@11AEAMPEBI@Z 0000000180133500 f   GuSweepsMesh.obj
 0001:00132a50       ?processHit@SweepConvexMeshHitCallback@Gu@physx@@UEAA_NAEBUPxGeomRaycastHit@3@AEBV?$PxVec3T@M@3@11AEAMPEBI@Z 0000000180133a50 f   GuSweepsMesh.obj
 0001:001331a0       ?sweepBox_MeshGeom@@YA_NAEBVPxGeometry@physx@@AEBV?$PxTransformT@M@2@AEBVPxBoxGeometry@2@1AEBVBox@Gu@2@AEBV?$PxVec3T@M@2@MAEAUPxGeomSweepHit@2@V?$PxFlags@W4Enum@PxHitFlag@physx@@G@2@MPEAUPxQueryThreadContext@2@@Z 00000001801341a0 f   GuSweepsMesh.obj
 0001:00133230       ?sweepCapsule_MeshGeom@@YA_NAEBVPxGeometry@physx@@AEBV?$PxTransformT@M@2@AEBVPxCapsuleGeometry@2@1AEBVCapsule@Gu@2@AEBV?$PxVec3T@M@2@MAEAUPxGeomSweepHit@2@V?$PxFlags@W4Enum@PxHitFlag@physx@@G@2@MPEAUPxQueryThreadContext@2@@Z 0000000180134230 f   GuSweepsMesh.obj
 0001:001332c0       ?sweepConvex_MeshGeom@@YA_NAEBVPxGeometry@physx@@AEBV?$PxTransformT@M@2@AEBVPxConvexMeshGeometry@2@1AEBV?$PxVec3T@M@2@MAEAUPxGeomSweepHit@2@V?$PxFlags@W4Enum@PxHitFlag@physx@@G@2@MPEAUPxQueryThreadContext@2@@Z 00000001801342c0 f   GuSweepsMesh.obj
 0001:00133e20       ??0TriangleMesh@Gu@physx@@QEAA@AEBUPxTriangleMeshInternalData@2@@Z 0000000180134e20 f   GuTriangleMesh.obj
 0001:00133f00       ??0TriangleMesh@Gu@physx@@QEAA@PEAVMeshFactory@12@AEAVTriangleMeshData@12@@Z 0000000180134f00 f   GuTriangleMesh.obj
 0001:00134280       ??1TriangleMesh@Gu@physx@@UEAA@XZ 0000000180135280 f   GuTriangleMesh.obj
 0001:00134510       ??_ETriangleMesh@Gu@physx@@UEAAPEAXI@Z 0000000180135510 f i GuTriangleMesh.obj
 0001:00134510       ??_GTriangleMesh@Gu@physx@@UEAAPEAXI@Z 0000000180135510 f i GuTriangleMesh.obj
 0001:00134580       ?exportExtraData@TriangleMesh@Gu@physx@@UEAAXAEAVPxSerializationContext@3@@Z 0000000180135580 f   GuTriangleMesh.obj
 0001:00134800       ?getLocalBounds@TriangleMesh@Gu@physx@@UEBA?AVPxBounds3@3@XZ 0000000180135800 f i GuTriangleMesh.obj
 0001:00134880       ?getMassInformation@TriangleMesh@Gu@physx@@UEBAXAEAMAEAV?$PxMat33T@M@3@AEAV?$PxVec3T@M@3@@Z 0000000180135880 f i GuTriangleMesh.obj
 0001:00134900       ?getNbTriangles@TriangleMesh@Gu@physx@@UEBAIXZ 0000000180135900 f i GuTriangleMesh.obj
 0001:00134910       ?getPreferSDFProjection@TriangleMesh@Gu@physx@@UEBA_NXZ 0000000180135910 f i GuTriangleMesh.obj
 0001:00134920       ?getSDF@TriangleMesh@Gu@physx@@UEBAPEBMXZ 0000000180135920 f i GuTriangleMesh.obj
 0001:00134930       ?getSDFDimensions@TriangleMesh@Gu@physx@@UEBAXAEAI00@Z 0000000180135930 f i GuTriangleMesh.obj
 0001:00134960       ?getTriangleMaterialIndex@TriangleMesh@Gu@physx@@UEBAGI@Z 0000000180135960 f i GuTriangleMesh.obj
 0001:00134980       ?getTriangleMeshFlags@TriangleMesh@Gu@physx@@UEBA?AV?$PxFlags@W4Enum@PxTriangleMeshFlag@physx@@E@3@XZ 0000000180135980 f i GuTriangleMesh.obj
 0001:00134990       ?getTrianglesRemap@TriangleMesh@Gu@physx@@UEBAPEBIXZ 0000000180135990 f i GuTriangleMesh.obj
 0001:001349a0       ?getVerticesForModification@TriangleMesh@Gu@physx@@UEAAPEAV?$PxVec3T@M@3@XZ 00000001801359a0 f   GuTriangleMesh.obj
 0001:001349e0       ?importExtraData@TriangleMesh@Gu@physx@@QEAAXAEAVPxDeserializationContext@3@@Z 00000001801359e0 f   GuTriangleMesh.obj
 0001:00134c00       ?isKindOf@PxTriangleMesh@physx@@MEBA_NPEBD@Z 0000000180135c00 f i GuTriangleMesh.obj
 0001:00134c90       ?onRefCountZero@TriangleMesh@Gu@physx@@UEAAXXZ 0000000180135c90 f   GuTriangleMesh.obj
 0001:00134d60       ?refitBVH@TriangleMesh@Gu@physx@@UEAA?AVPxBounds3@3@XZ 0000000180135d60 f   GuTriangleMesh.obj
 0001:00134e20       ?requestEdgeList@TriangleMesh@Gu@physx@@QEBAPEBVEdgeList@23@XZ 0000000180135e20 f   GuTriangleMesh.obj
 0001:00134f10       ?setAllEdgesActive@TriangleMesh@Gu@physx@@QEAAXXZ 0000000180135f10 f   GuTriangleMesh.obj
 0001:00135000       ?setPreferSDFProjection@TriangleMesh@Gu@physx@@UEAAX_N@Z 0000000180136000 f i GuTriangleMesh.obj
 0001:00135030       ??0BV4TriangleMesh@Gu@physx@@QEAA@AEBUPxTriangleMeshInternalData@2@@Z 0000000180136030 f   GuTriangleMeshBV4.obj
 0001:001351a0       ??0BV4TriangleMesh@Gu@physx@@QEAA@PEAVMeshFactory@12@AEAVTriangleMeshData@12@@Z 00000001801361a0 f   GuTriangleMeshBV4.obj
 0001:00135230       ??_EBV4TriangleMesh@Gu@physx@@UEAAPEAXI@Z 0000000180136230 f i GuTriangleMeshBV4.obj
 0001:00135230       ??_GBV4TriangleMesh@Gu@physx@@UEAAPEAXI@Z 0000000180136230 f i GuTriangleMeshBV4.obj
 0001:001352c0       ?createObject@BV4TriangleMesh@Gu@physx@@SAPEAVTriangleMesh@23@AEAPEAEAEAVPxDeserializationContext@3@@Z 00000001801362c0 f   GuTriangleMeshBV4.obj
 0001:001353a0       ?exportExtraData@BV4TriangleMesh@Gu@physx@@UEAAXAEAVPxSerializationContext@3@@Z 00000001801363a0 f   GuTriangleMeshBV4.obj
 0001:001353e0       ?getConcreteTypeName@BV4TriangleMesh@Gu@physx@@UEBAPEBDXZ 00000001801363e0 f i GuTriangleMeshBV4.obj
 0001:001353f0       ?getInternalData@BV4TriangleMesh@Gu@physx@@UEBA_NAEAUPxTriangleMeshInternalData@3@_N@Z 00000001801363f0 f   GuTriangleMeshBV4.obj
 0001:001354e0       ?getMidphaseID@BV4TriangleMesh@Gu@physx@@UEBA?AW4Enum@PxMeshMidPhase@3@XZ 00000001801364e0 f i GuTriangleMeshBV4.obj
 0001:001354e0       ?getMidphaseID@BV4TriangleMeshBuilder@physx@@UEBA?AW4Enum@PxMeshMidPhase@2@XZ 00000001801364e0 f i GuCookingTriangleMesh.obj
 0001:001354e0       ?length@charNode@@UEBAHXZ  00000001801364e0 f i libvcruntime:undname.obj
 0001:001354e0       ?raw_length@charNode@@UEBAHXZ 00000001801364e0 f i libvcruntime:undname.obj
 0001:001354e0       DllMain                    00000001801364e0 f i LIBCMT:dll_dllmain_stub.obj
 0001:001354e0       _get_startup_argv_mode     00000001801364e0 f i LIBCMT:argv_mode.obj
 0001:001354f0       ?getVerticesForModification@BV4TriangleMesh@Gu@physx@@UEAAPEAV?$PxVec3T@M@3@XZ 00000001801364f0 f   GuTriangleMeshBV4.obj
 0001:001354f0       ?getVerticesForModification@RTreeTriangleMesh@Gu@physx@@UEAAPEAV?$PxVec3T@M@3@XZ 00000001801364f0 f   GuTriangleMeshRTree.obj
 0001:00135500       ?refitBVH@BV4TriangleMesh@Gu@physx@@UEAA?AVPxBounds3@3@XZ 0000000180136500 f   GuTriangleMeshBV4.obj
 0001:00135670       PxGetTriangleMeshInternalData 0000000180136670 f   GuTriangleMeshBV4.obj
 0001:00135690       ??0RTreeTriangleMesh@Gu@physx@@QEAA@PEAVMeshFactory@12@AEAVTriangleMeshData@12@@Z 0000000180136690 f   GuTriangleMeshRTree.obj
 0001:00135800       ??_E?$RefitCallback@G@physx@@UEAAPEAXI@Z 0000000180136800 f i GuTriangleMeshRTree.obj
 0001:00135800       ??_E?$RefitCallback@I@physx@@UEAAPEAXI@Z 0000000180136800 f i GuTriangleMeshRTree.obj
 0001:00135800       ??_G?$RefitCallback@G@physx@@UEAAPEAXI@Z 0000000180136800 f i GuTriangleMeshRTree.obj
 0001:00135800       ??_G?$RefitCallback@I@physx@@UEAAPEAXI@Z 0000000180136800 f i GuTriangleMeshRTree.obj
 0001:00135830       ??_ERTreeTriangleMesh@Gu@physx@@UEAAPEAXI@Z 0000000180136830 f i GuTriangleMeshRTree.obj
 0001:00135830       ??_GRTreeTriangleMesh@Gu@physx@@UEAAPEAXI@Z 0000000180136830 f i GuTriangleMeshRTree.obj
 0001:001358f0       ?createObject@RTreeTriangleMesh@Gu@physx@@SAPEAVTriangleMesh@23@AEAPEAEAEAVPxDeserializationContext@3@@Z 00000001801368f0 f   GuTriangleMeshRTree.obj
 0001:00135970       ?exportExtraData@RTreeTriangleMesh@Gu@physx@@UEAAXAEAVPxSerializationContext@3@@Z 0000000180136970 f   GuTriangleMeshRTree.obj
 0001:001359b0       ?getConcreteTypeName@RTreeTriangleMesh@Gu@physx@@UEBAPEBDXZ 00000001801369b0 f i GuTriangleMeshRTree.obj
 0001:001359c0       ?recomputeBounds@?$RefitCallback@G@physx@@UEAAXIAEAT__m128@@0@Z 00000001801369c0 f i GuTriangleMeshRTree.obj
 0001:00135ce0       ?recomputeBounds@?$RefitCallback@I@physx@@UEAAXIAEAT__m128@@0@Z 0000000180136ce0 f i GuTriangleMeshRTree.obj
 0001:00136000       ?refitBVH@RTreeTriangleMesh@Gu@physx@@UEAA?AVPxBounds3@3@XZ 0000000180137000 f   GuTriangleMeshRTree.obj
 0001:00136120       ??0BV32Tree@Gu@physx@@QEAA@W4PxEMPTY@2@@Z 0000000180137120 f   GuBV32.obj
 0001:00136140       ??0BV32Tree@Gu@physx@@QEAA@XZ 0000000180137140 f   GuBV32.obj
 0001:00136170       ??1BV32Tree@Gu@physx@@QEAA@XZ 0000000180137170 f   GuBV32.obj
 0001:00136180       ?createSOAformatNode@BV32Tree@Gu@physx@@QEAAXAEAUBV32DataPacked@23@AEBUBV32Data@23@IAEAI2@Z 0000000180137180 f   GuBV32.obj
 0001:001365b0       ?exportExtraData@BV32Tree@Gu@physx@@QEAAXAEAVPxSerializationContext@3@@Z 00000001801375b0 f   GuBV32.obj
 0001:001365f0       ?importExtraData@BV32Tree@Gu@physx@@QEAAXAEAVPxDeserializationContext@3@@Z 00000001801375f0 f   GuBV32.obj
 0001:00136620       ?load@BV32Tree@Gu@physx@@QEAA_NAEAVPxInputStream@3@_N@Z 0000000180137620 f   GuBV32.obj
 0001:00136970       ?release@BV32Tree@Gu@physx@@QEAAXXZ 0000000180137970 f   GuBV32.obj
 0001:00136a40       ??0BV32Node@@QEAA@XZ       0000000180137a40 f i GuBV32Build.obj
 0001:00136ec0       ?BuildBV32Ex@Gu@physx@@YA_NAEAVBV32Tree@12@AEAVSourceMeshBase@12@MI@Z 0000000180137ec0 f   GuBV32Build.obj
 0001:00137ec0       ??0BVTetrahedronMesh@Gu@physx@@QEAA@AEAVTetrahedronMeshData@12@AEAVDeformableVolumeCollisionData@12@PEAVMeshFactory@12@@Z 0000000180138ec0 f   GuTetrahedronMesh.obj
 0001:00138120       ??0DeformableVolumeMesh@Gu@physx@@QEAA@PEAVMeshFactory@12@AEAVDeformableVolumeMeshData@12@@Z 0000000180139120 f   GuTetrahedronMesh.obj
 0001:001384d0       ??0TetrahedronMesh@Gu@physx@@QEAA@PEAVMeshFactory@12@AEAVTetrahedronMeshData@12@@Z 00000001801394d0 f   GuTetrahedronMesh.obj
 0001:001385c0       ??1DeformableVolumeAuxData@Gu@physx@@UEAA@XZ 00000001801395c0 f   GuTetrahedronMesh.obj
 0001:00138870       ??1TetrahedronMesh@Gu@physx@@UEAA@XZ 0000000180139870 f   GuTetrahedronMesh.obj
 0001:00138920       ??_EBVTetrahedronMesh@Gu@physx@@UEAAPEAXI@Z 0000000180139920 f i GuTetrahedronMesh.obj
 0001:00138920       ??_GBVTetrahedronMesh@Gu@physx@@UEAAPEAXI@Z 0000000180139920 f i GuTetrahedronMesh.obj
 0001:00138ac0       ??_EDeformableVolumeAuxData@Gu@physx@@UEAAPEAXI@Z 0000000180139ac0 f i GuTetrahedronMesh.obj
 0001:00138ac0       ??_GDeformableVolumeAuxData@Gu@physx@@UEAAPEAXI@Z 0000000180139ac0 f i GuTetrahedronMesh.obj
 0001:00138b30       ??_EDeformableVolumeMesh@Gu@physx@@UEAAPEAXI@Z 0000000180139b30 f i GuTetrahedronMesh.obj
 0001:00138b30       ??_GDeformableVolumeMesh@Gu@physx@@UEAAPEAXI@Z 0000000180139b30 f i GuTetrahedronMesh.obj
 0001:00138c00       ??_ETetrahedronMesh@Gu@physx@@UEAAPEAXI@Z 0000000180139c00 f i GuTetrahedronMesh.obj
 0001:00138c00       ??_GTetrahedronMesh@Gu@physx@@UEAAPEAXI@Z 0000000180139c00 f i GuTetrahedronMesh.obj
 0001:00138c70       ?exportExtraData@DeformableVolumeMesh@Gu@physx@@UEAAXAEAVPxSerializationContext@3@@Z 0000000180139c70 f   GuTetrahedronMesh.obj
 0001:00138d60       ?getConcreteTypeName@DeformableVolumeAuxData@Gu@physx@@UEBAPEBDXZ 0000000180139d60 f i GuTetrahedronMesh.obj
 0001:00138d70       ?getConcreteTypeName@DeformableVolumeMesh@Gu@physx@@UEBAPEBDXZ 0000000180139d70 f i GuTetrahedronMesh.obj
 0001:00138d80       ?getConcreteTypeName@TetrahedronMesh@Gu@physx@@UEBAPEBDXZ 0000000180139d80 f i GuTetrahedronMesh.obj
 0001:00138d90       ?getLocalBounds@TetrahedronMesh@Gu@physx@@UEBA?AVPxBounds3@3@XZ 0000000180139d90 f i GuTetrahedronMesh.obj
 0001:00138e10       ?getNbTetrahedrons@TetrahedronMesh@Gu@physx@@UEBAIXZ 0000000180139e10 f i GuTetrahedronMesh.obj
 0001:00138e20       ?getBounds@BVH@Gu@physx@@UEBAPEBVPxBounds3@3@XZ 0000000180139e20 f i GuBVH.obj
 0001:00138e20       ?getTetrahedraRemap@BVTetrahedronMesh@Gu@physx@@UEBAPEBIXZ 0000000180139e20 f i GuTetrahedronMesh.obj
 0001:00138e30       ?getTetrahedronMeshFlags@TetrahedronMesh@Gu@physx@@UEBA?AV?$PxFlags@W4Enum@PxTetrahedronMeshFlag@physx@@E@3@XZ 0000000180139e30 f i GuTetrahedronMesh.obj
 0001:00138e40       ?getTetrahedrons@TetrahedronMesh@Gu@physx@@UEBAPEBXXZ 0000000180139e40 f i GuTetrahedronMesh.obj
 0001:00138e50       ?isKindOf@PxDeformableVolumeAuxData@physx@@MEBA_NPEBD@Z 0000000180139e50 f i GuTetrahedronMesh.obj
 0001:00138ee0       ?isKindOf@PxDeformableVolumeMesh@physx@@MEBA_NPEBD@Z 0000000180139ee0 f i GuTetrahedronMesh.obj
 0001:00138f70       ?isKindOf@PxTetrahedronMesh@physx@@MEBA_NPEBD@Z 0000000180139f70 f i GuTetrahedronMesh.obj
 0001:00139000       ?onRefCountZero@DeformableVolumeAuxData@Gu@physx@@UEAAXXZ 000000018013a000 f i GuTetrahedronMesh.obj
 0001:00139000       ?release@SimulationTetrahedronMeshData@Gu@physx@@UEAAXXZ 000000018013a000 f i GuCookingTetrahedronMesh.obj
 0001:00139020       ?onRefCountZero@DeformableVolumeMesh@Gu@physx@@UEAAXXZ 000000018013a020 f   GuTetrahedronMesh.obj
 0001:001390d0       ?onRefCountZero@TetrahedronMesh@Gu@physx@@UEAAXXZ 000000018013a0d0 f   GuTetrahedronMesh.obj
 0001:00139180       ?PxComputeBarycentric@physx@@YAXAEBV?$PxVec3T@M@1@0000AEAV?$PxVec4T@M@1@@Z 000000018013a180 f i GuTetrahedronMeshUtils.obj
 0001:00139440       ?addAxisToSimMeshBarycentric@Gu@physx@@YA?AV?$PxVec4T@M@2@AEBVPxTetrahedronMesh@2@IAEBV32@AEBV?$PxVec3T@M@2@@Z 000000018013a440 f   GuTetrahedronMeshUtils.obj
 0001:00139710       ?closestPtPointTetrahedron@Gu@physx@@YA?AV?$PxVec3T@M@2@AEBV32@0000@Z 000000018013a710 f i GuTetrahedronMeshUtils.obj
 0001:0013a7f0       ?convertDeformableVolumeCollisionToSimMeshTets@Gu@physx@@YAXAEBVPxTetrahedronMesh@2@AEBVDeformableVolumeAuxData@12@AEBVBVTetrahedronMesh@12@IAEBV?$PxVec4T@M@2@AEAIAEAV62@_N@Z 000000018013b7f0 f   GuTetrahedronMeshUtils.obj
 0001:0013d190       ?pcmContactBoxBox@Gu@physx@@YA_NAEBVPxGeometry@2@0AEBUPxTransformPadded@2@1AEBUNarrowPhaseParams@12@AEAUCache@12@AEAVPxContactBuffer@2@PEAVPxRenderOutput@2@@Z 000000018013e190 f   GuPCMContactBoxBox.obj
 0001:0013dfc0       ??$gjkPenetration@U?$RelativeConvex@VBoxV@Gu@physx@@@Gu@physx@@U?$LocalConvex@VConvexHullNoScaleV@Gu@physx@@@23@@Gu@physx@@YA?AW4GjkStatus@01@AEBU?$RelativeConvex@VBoxV@Gu@physx@@@01@AEBU?$LocalConvex@VConvexHullNoScaleV@Gu@physx@@@01@AEBT__m128@@2_NPEIAE4AEAEAEAUGjkOutput@01@@Z 000000018013efc0 f i GuPCMContactBoxConvex.obj
 0001:0013e030       ??$gjkPenetration@U?$RelativeConvex@VBoxV@Gu@physx@@@Gu@physx@@U?$LocalConvex@VConvexHullNoScaleV@Gu@physx@@@23@@Gu@physx@@YA?AW4GjkStatus@01@AEBU?$RelativeConvex@VBoxV@Gu@physx@@@01@AEBU?$LocalConvex@VConvexHullNoScaleV@Gu@physx@@@01@AEBT__m128@@2_NPEIAE4PEIAT5@5AEAEAEAUGjkOutput@01@@Z 000000018013f030 f i GuPCMContactBoxConvex.obj
 0001:00140140       ?pcmContactBoxConvex@Gu@physx@@YA_NAEBVPxGeometry@2@0AEBUPxTransformPadded@2@1AEBUNarrowPhaseParams@12@AEAUCache@12@AEAVPxContactBuffer@2@PEAVPxRenderOutput@2@@Z 0000000180141140 f   GuPCMContactBoxConvex.obj
 0001:00140f50       ?support@?$LocalConvex@VConvexHullNoScaleV@Gu@physx@@@Gu@physx@@UEBA?AT__m128@@AEBT4@@Z 0000000180141f50 f i GuPCMContactBoxConvex.obj
 0001:00140fa0       ?support@?$LocalConvex@VConvexHullNoScaleV@Gu@physx@@@Gu@physx@@UEBA?AT__m128@@AEBT4@AEAH@Z 0000000180141fa0 f i GuPCMContactBoxConvex.obj
 0001:00141000       ?supportPoint@?$LocalConvex@VConvexHullNoScaleV@Gu@physx@@@Gu@physx@@UEBA?AT__m128@@H@Z 0000000180142000 f i GuPCMContactBoxConvex.obj
 0001:00141030       ?pcmContactCapsuleBox@Gu@physx@@YA_NAEBVPxGeometry@2@0AEBUPxTransformPadded@2@1AEBUNarrowPhaseParams@12@AEAUCache@12@AEAVPxContactBuffer@2@PEAVPxRenderOutput@2@@Z 0000000180142030 f   GuPCMContactCapsuleBox.obj
 0001:00141ed0       ?pcmContactCapsuleCapsule@Gu@physx@@YA_NAEBVPxGeometry@2@0AEBUPxTransformPadded@2@1AEBUNarrowPhaseParams@12@AEAUCache@12@AEAVPxContactBuffer@2@PEAVPxRenderOutput@2@@Z 0000000180142ed0 f   GuPCMContactCapsuleCapsule.obj
 0001:00142690       ??$gjkPenetration@U?$LocalConvex@VCapsuleV@Gu@physx@@@Gu@physx@@U?$LocalConvex@VConvexHullNoScaleV@Gu@physx@@@23@@Gu@physx@@YA?AW4GjkStatus@01@AEBU?$LocalConvex@VCapsuleV@Gu@physx@@@01@AEBU?$LocalConvex@VConvexHullNoScaleV@Gu@physx@@@01@AEBT__m128@@2_NPEIAE4AEAEAEAUGjkOutput@01@@Z 0000000180143690 f i GuPCMContactCapsuleConvex.obj
 0001:00142700       ??$gjkPenetration@U?$LocalConvex@VCapsuleV@Gu@physx@@@Gu@physx@@U?$LocalConvex@VConvexHullNoScaleV@Gu@physx@@@23@@Gu@physx@@YA?AW4GjkStatus@01@AEBU?$LocalConvex@VCapsuleV@Gu@physx@@@01@AEBU?$LocalConvex@VConvexHullNoScaleV@Gu@physx@@@01@AEBT__m128@@2_NPEIAE4PEIAT5@5AEAEAEAUGjkOutput@01@@Z 0000000180143700 f i GuPCMContactCapsuleConvex.obj
 0001:00144370       ?pcmContactCapsuleConvex@Gu@physx@@YA_NAEBVPxGeometry@2@0AEBUPxTransformPadded@2@1AEBUNarrowPhaseParams@12@AEAUCache@12@AEAVPxContactBuffer@2@PEAVPxRenderOutput@2@@Z 0000000180145370 f   GuPCMContactCapsuleConvex.obj
 0001:00145580       ??_EPCMCapsuleVsHeightfieldContactGenerationCallback@@UEAAPEAXI@Z 0000000180146580 f i GuPCMContactCapsuleHeightField.obj
 0001:00145580       ??_GPCMCapsuleVsHeightfieldContactGenerationCallback@@UEAAPEAXI@Z 0000000180146580 f i GuPCMContactCapsuleHeightField.obj
 0001:001455b0       ?pcmContactCapsuleHeightField@Gu@physx@@YA_NAEBVPxGeometry@2@0AEBUPxTransformPadded@2@1AEBUNarrowPhaseParams@12@AEAUCache@12@AEAVPxContactBuffer@2@PEAVPxRenderOutput@2@@Z 00000001801465b0 f   GuPCMContactCapsuleHeightField.obj
 0001:00146490       ?reportTouchedTris@?$PCMHeightfieldContactGenerationCallback@UPCMCapsuleVsHeightfieldContactGenerationCallback@@@Gu@physx@@UEAA_NIPEBI@Z 0000000180147490 f i GuPCMContactCapsuleHeightField.obj
 0001:00146ae0       ?generateContacts@PCMCapsuleVsMeshContactGeneration@Gu@physx@@SAXAEBT__m128@@0000I000PEAVMeshPersistentContact@23@AEAI@Z 0000000180147ae0 f   GuPCMContactCapsuleMesh.obj
 0001:00146f20       ?generateEE@PCMCapsuleVsMeshContactGeneration@Gu@physx@@QEAAXAEBT__m128@@000I00PEAVMeshPersistentContact@23@AEAI@Z 0000000180147f20 f   GuPCMContactCapsuleMesh.obj
 0001:00147190       ?generateEEMTD@PCMCapsuleVsMeshContactGeneration@Gu@physx@@SAXAEBT__m128@@000I00PEAVMeshPersistentContact@23@AEAI@Z 0000000180148190 f   GuPCMContactCapsuleMesh.obj
 0001:001473c0       ?pcmContactCapsuleMesh@Gu@physx@@YA_NAEBVPxGeometry@2@0AEBUPxTransformPadded@2@1AEBUNarrowPhaseParams@12@AEAUCache@12@AEAVPxContactBuffer@2@PEAVPxRenderOutput@2@@Z 00000001801483c0 f   GuPCMContactCapsuleMesh.obj
 0001:00148c30       ?pcmDistanceSegmentTriangleSquaredExported@@YA?AT__m128@@AEBT1@0000AEAT1@11@Z 0000000180149c30 f   GuPCMContactCapsuleMesh.obj
 0001:00149070       ?processTriangle@PCMCapsuleVsMeshContactGeneration@Gu@physx@@QEAA_NPEBV?$PxVec3T@M@3@IEPEBI@Z 000000018014a070 f   GuPCMContactCapsuleMesh.obj
 0001:00149c40       ?processTriangle@PCMCapsuleVsMeshContactGeneration@Gu@physx@@SA_NAEBVTriangleV@23@IAEBVCapsuleV@23@AEBT__m128@@EPEAVMeshPersistentContact@23@AEAI@Z 000000018014ac40 f   GuPCMContactCapsuleMesh.obj
 0001:00149f50       ?addContactsToPatch@PCMConvexVsMeshContactGeneration@Gu@physx@@QEAAXAEBT__m128@@I@Z 000000018014af50 f   GuPCMContactConvexCommon.obj
 0001:0014a870       ?doSupport@?$SupportLocalImpl@VTriangleV@Gu@physx@@@Gu@physx@@UEBA?AT__m128@@AEBT4@@Z 000000018014b870 f i GuPCMContactConvexCommon.obj
 0001:0014a900       ?doSupport@?$SupportLocalImpl@VTriangleV@Gu@physx@@@Gu@physx@@UEBAXAEBT__m128@@AEAT4@1@Z 000000018014b900 f i GuPCMContactConvexCommon.obj
 0001:0014a970       ?generateLastContacts@PCMConvexVsMeshContactGeneration@Gu@physx@@QEAAXXZ 000000018014b970 f   GuPCMContactConvexCommon.obj
 0001:0014ae20       ?get@?$CacheMap@UCachedEdge@Gu@physx@@$0IA@@Gu@physx@@QEBAPEBUCachedEdge@23@AEBU423@@Z 000000018014be20 f i GuPCMContactConvexCommon.obj
 0001:0014aea0       ?populateVerts@?$SupportLocalImpl@VTriangleV@Gu@physx@@@Gu@physx@@UEBAXPEBEIPEBV?$PxVec3T@M@3@PEAT__m128@@@Z 000000018014bea0 f i GuPCMContactConvexCommon.obj
 0001:0014afe0       ?processTriangle@PCMConvexVsMeshContactGeneration@Gu@physx@@QEAA_NPEBV?$PxVec3T@M@3@IEPEBI@Z 000000018014bfe0 f   GuPCMContactConvexCommon.obj
 0001:0014b400       ?processTriangle@PCMConvexVsMeshContactGeneration@Gu@physx@@SA_NAEBUPolygonalData@23@PEBVSupportLocal@23@PEBV?$PxVec3T@M@3@IEAEBT__m128@@_NAEBVPxTransformV@aos@3@AEBVPxMatTransformV@93@PEAVMeshPersistentContact@23@AEAI@Z 000000018014c400 f   GuPCMContactConvexCommon.obj
 0001:0014b6a0       ??$gjkPenetration@U?$RelativeConvex@VConvexHullNoScaleV@Gu@physx@@@Gu@physx@@U?$LocalConvex@VConvexHullNoScaleV@Gu@physx@@@23@@Gu@physx@@YA?AW4GjkStatus@01@AEBU?$RelativeConvex@VConvexHullNoScaleV@Gu@physx@@@01@AEBU?$LocalConvex@VConvexHullNoScaleV@Gu@physx@@@01@AEBT__m128@@2_NPEIAE4AEAEAEAUGjkOutput@01@@Z 000000018014c6a0 f i GuPCMContactConvexConvex.obj
 0001:0014b710       ??$gjkPenetration@U?$RelativeConvex@VConvexHullNoScaleV@Gu@physx@@@Gu@physx@@U?$LocalConvex@VConvexHullNoScaleV@Gu@physx@@@23@@Gu@physx@@YA?AW4GjkStatus@01@AEBU?$RelativeConvex@VConvexHullNoScaleV@Gu@physx@@@01@AEBU?$LocalConvex@VConvexHullNoScaleV@Gu@physx@@@01@AEBT__m128@@2_NPEIAE4PEIAT5@5AEAEAEAUGjkOutput@01@@Z 000000018014c710 f i GuPCMContactConvexConvex.obj
 0001:0014d1c0       ??$gjkPenetration@U?$RelativeConvex@VConvexHullNoScaleV@Gu@physx@@@Gu@physx@@U?$LocalConvex@VConvexHullV@Gu@physx@@@23@@Gu@physx@@YA?AW4GjkStatus@01@AEBU?$RelativeConvex@VConvexHullNoScaleV@Gu@physx@@@01@AEBU?$LocalConvex@VConvexHullV@Gu@physx@@@01@AEBT__m128@@2_NPEIAE4AEAEAEAUGjkOutput@01@@Z 000000018014e1c0 f i GuPCMContactConvexConvex.obj
 0001:0014d230       ??$gjkPenetration@U?$RelativeConvex@VConvexHullNoScaleV@Gu@physx@@@Gu@physx@@U?$LocalConvex@VConvexHullV@Gu@physx@@@23@@Gu@physx@@YA?AW4GjkStatus@01@AEBU?$RelativeConvex@VConvexHullNoScaleV@Gu@physx@@@01@AEBU?$LocalConvex@VConvexHullV@Gu@physx@@@01@AEBT__m128@@2_NPEIAE4PEIAT5@5AEAEAEAUGjkOutput@01@@Z 000000018014e230 f i GuPCMContactConvexConvex.obj
 0001:0014ed80       ??$gjkPenetration@U?$RelativeConvex@VConvexHullV@Gu@physx@@@Gu@physx@@U?$LocalConvex@VConvexHullNoScaleV@Gu@physx@@@23@@Gu@physx@@YA?AW4GjkStatus@01@AEBU?$RelativeConvex@VConvexHullV@Gu@physx@@@01@AEBU?$LocalConvex@VConvexHullNoScaleV@Gu@physx@@@01@AEBT__m128@@2_NPEIAE4AEAEAEAUGjkOutput@01@@Z 000000018014fd80 f i GuPCMContactConvexConvex.obj
 0001:0014edf0       ??$gjkPenetration@U?$RelativeConvex@VConvexHullV@Gu@physx@@@Gu@physx@@U?$LocalConvex@VConvexHullNoScaleV@Gu@physx@@@23@@Gu@physx@@YA?AW4GjkStatus@01@AEBU?$RelativeConvex@VConvexHullV@Gu@physx@@@01@AEBU?$LocalConvex@VConvexHullNoScaleV@Gu@physx@@@01@AEBT__m128@@2_NPEIAE4PEIAT5@5AEAEAEAUGjkOutput@01@@Z 000000018014fdf0 f i GuPCMContactConvexConvex.obj
 0001:00151340       ?pcmContactConvexConvex@Gu@physx@@YA_NAEBVPxGeometry@2@0AEBUPxTransformPadded@2@1AEBUNarrowPhaseParams@12@AEAUCache@12@AEAVPxContactBuffer@2@PEAVPxRenderOutput@2@@Z 0000000180152340 f   GuPCMContactConvexConvex.obj
 0001:00152470       ?support@?$RelativeConvex@VConvexHullNoScaleV@Gu@physx@@@Gu@physx@@UEBA?AT__m128@@AEBT4@@Z 0000000180153470 f i GuPCMContactConvexConvex.obj
 0001:00152520       ?support@?$RelativeConvex@VConvexHullNoScaleV@Gu@physx@@@Gu@physx@@UEBA?AT__m128@@AEBT4@AEAH@Z 0000000180153520 f i GuPCMContactConvexConvex.obj
 0001:001525e0       ?supportPoint@?$RelativeConvex@VConvexHullNoScaleV@Gu@physx@@@Gu@physx@@UEBA?AT__m128@@H@Z 00000001801535e0 f i GuPCMContactConvexConvex.obj
 0001:00152670       ?PCMContactConvexHeightfield@Gu@physx@@YA_NAEBUPolygonalData@12@PEBVSupportLocal@12@AEBT__m128@@AEBVPxBounds3@2@AEBVPxHeightFieldGeometry@2@AEBV?$PxTransformT@M@2@5MAEAVPxContactBuffer@2@AEBVFastVertex2ShapeScaling@Cm@2@_NAEAVMultiplePersistentContactManifold@12@PEAVPxRenderOutput@2@@Z 0000000180153670 f   GuPCMContactConvexHeightField.obj
 0001:001534b0       ?pcmContactBoxHeightField@Gu@physx@@YA_NAEBVPxGeometry@2@0AEBUPxTransformPadded@2@1AEBUNarrowPhaseParams@12@AEAUCache@12@AEAVPxContactBuffer@2@PEAVPxRenderOutput@2@@Z 00000001801544b0 f   GuPCMContactConvexHeightField.obj
 0001:00153750       ?pcmContactConvexHeightField@Gu@physx@@YA_NAEBVPxGeometry@2@0AEBUPxTransformPadded@2@1AEBUNarrowPhaseParams@12@AEAUCache@12@AEAVPxContactBuffer@2@PEAVPxRenderOutput@2@@Z 0000000180154750 f   GuPCMContactConvexHeightField.obj
 0001:00154420       ?PCMContactConvexMesh@Gu@physx@@YA_NAEBUPolygonalData@12@PEBVSupportLocal@12@AEBT__m128@@AEBVPxBounds3@2@AEBVPxTriangleMeshGeometry@2@AEBV?$PxTransformT@M@2@5MAEAVPxContactBuffer@2@AEBVFastVertex2ShapeScaling@Cm@2@7_N8AEAVMultiplePersistentContactManifold@12@PEAVPxRenderOutput@2@@Z 0000000180155420 f   GuPCMContactConvexMesh.obj
 0001:00154f20       ?pcmContactBoxMesh@Gu@physx@@YA_NAEBVPxGeometry@2@0AEBUPxTransformPadded@2@1AEBUNarrowPhaseParams@12@AEAUCache@12@AEAVPxContactBuffer@2@PEAVPxRenderOutput@2@@Z 0000000180155f20 f   GuPCMContactConvexMesh.obj
 0001:00155250       ?pcmContactConvexMesh@Gu@physx@@YA_NAEBVPxGeometry@2@0AEBUPxTransformPadded@2@1AEBUNarrowPhaseParams@12@AEAUCache@12@AEAVPxContactBuffer@2@PEAVPxRenderOutput@2@@Z 0000000180156250 f   GuPCMContactConvexMesh.obj
 0001:00155df0       ?addGJKEPAContacts@Gu@physx@@YA_NPEBUGjkConvex@12@0AEBVPxMatTransformV@aos@2@W4GjkStatus@12@PEAVPersistentContact@12@T__m128@@4AEAUGjkOutput@12@AEAVPersistentContactManifold@12@@Z 0000000180156df0 f   GuPCMContactGenBoxConvex.obj
 0001:001562b0       ?computeMTD@Gu@physx@@YA_NAEBUPolygonalData@12@0PEBVSupportLocal@12@1AEAT__m128@@2@Z 00000001801572b0 f   GuPCMContactGenBoxConvex.obj
 0001:001568e0       ?generateFullContactManifold@Gu@physx@@YA_NAEBUPolygonalData@12@0PEBVSupportLocal@12@1PEAVPersistentContact@12@AEAIAEBT__m128@@444MM_NPEAVPxRenderOutput@2@M@Z 00000001801578e0 f   GuPCMContactGenBoxConvex.obj
 0001:001588a0       ?computeMTD@Gu@physx@@YA_NAEBVCapsuleV@12@AEBUPolygonalData@12@PEBVSupportLocal@12@AEAT__m128@@3@Z 00000001801598a0 f   GuPCMContactGenSphereCapsule.obj
 0001:00158990       ?generateCapsuleBoxFullContactManifold@Gu@physx@@YA_NAEBVCapsuleV@12@AEBUPolygonalData@12@PEBVSupportLocal@12@AEBVPxMatTransformV@aos@2@PEAVPersistentContact@12@AEAIAEBT__m128@@AEAT9@6M_NMPEAVPxRenderOutput@2@@Z 0000000180159990 f   GuPCMContactGenSphereCapsule.obj
 0001:00158b30       ?generateFullContactManifold@Gu@physx@@YA_NAEBVCapsuleV@12@AEBUPolygonalData@12@PEBVSupportLocal@12@AEBVPxMatTransformV@aos@2@PEAVPersistentContact@12@AEAIAEBT__m128@@AEAT9@6M_NM@Z 0000000180159b30 f   GuPCMContactGenSphereCapsule.obj
 0001:00158d20       ?generateSphereFullContactManifold@Gu@physx@@YA_NAEBVCapsuleV@12@AEBUPolygonalData@12@PEBVSupportLocal@12@PEAVPersistentContact@12@AEAIAEBT__m128@@AEAT7@_N@Z 0000000180159d20 f   GuPCMContactGenSphereCapsule.obj
 0001:0015a260       ?pcmContactPlaneBox@Gu@physx@@YA_NAEBVPxGeometry@2@0AEBUPxTransformPadded@2@1AEBUNarrowPhaseParams@12@AEAUCache@12@AEAVPxContactBuffer@2@PEAVPxRenderOutput@2@@Z 000000018015b260 f   GuPCMContactPlaneBox.obj
 0001:0015adb0       ?pcmContactPlaneCapsule@Gu@physx@@YA_NAEBVPxGeometry@2@0AEBUPxTransformPadded@2@1AEBUNarrowPhaseParams@12@AEAUCache@12@AEAVPxContactBuffer@2@PEAVPxRenderOutput@2@@Z 000000018015bdb0 f   GuPCMContactPlaneCapsule.obj
 0001:0015b520       ?pcmContactPlaneConvex@Gu@physx@@YA_NAEBVPxGeometry@2@0AEBUPxTransformPadded@2@1AEBUNarrowPhaseParams@12@AEAUCache@12@AEAVPxContactBuffer@2@PEAVPxRenderOutput@2@@Z 000000018015c520 f   GuPCMContactPlaneConvex.obj
 0001:0015c160       ?pcmContactSphereBox@Gu@physx@@YA_NAEBVPxGeometry@2@0AEBUPxTransformPadded@2@1AEBUNarrowPhaseParams@12@AEAUCache@12@AEAVPxContactBuffer@2@PEAVPxRenderOutput@2@@Z 000000018015d160 f   GuPCMContactSphereBox.obj
 0001:0015c5c0       ?pcmContactSphereCapsule@Gu@physx@@YA_NAEBVPxGeometry@2@0AEBUPxTransformPadded@2@1AEBUNarrowPhaseParams@12@AEAUCache@12@AEAVPxContactBuffer@2@PEAVPxRenderOutput@2@@Z 000000018015d5c0 f   GuPCMContactSphereCapsule.obj
 0001:0015ca30       ?pcmContactSphereConvex@Gu@physx@@YA_NAEBVPxGeometry@2@0AEBUPxTransformPadded@2@1AEBUNarrowPhaseParams@12@AEAUCache@12@AEAVPxContactBuffer@2@PEAVPxRenderOutput@2@@Z 000000018015da30 f   GuPCMContactSphereConvex.obj
 0001:0015d710       ??1?$PxArray@USortedTriangle@Gu@physx@@V?$PxInlineAllocator@$0IAA@V?$PxReflectionAllocator@USortedTriangle@Gu@physx@@@physx@@@3@@physx@@QEAA@XZ 000000018015e710 f i GuPCMContactSphereHeightField.obj
 0001:0015d7d0       ?pcmContactSphereHeightField@Gu@physx@@YA_NAEBVPxGeometry@2@0AEBUPxTransformPadded@2@1AEBUNarrowPhaseParams@12@AEAUCache@12@AEAVPxContactBuffer@2@PEAVPxRenderOutput@2@@Z 000000018015e7d0 f   GuPCMContactSphereHeightField.obj
 0001:0015e820       ??$PxSort@USortedTriangle@Gu@physx@@U?$PxLess@USortedTriangle@Gu@physx@@@3@V?$PxReflectionAllocator@USortedTriangle@Gu@physx@@@3@@physx@@YAXPEAUSortedTriangle@Gu@0@IAEBU?$PxLess@USortedTriangle@Gu@physx@@@0@AEBV?$PxReflectionAllocator@USortedTriangle@Gu@physx@@@0@I@Z 000000018015f820 f i GuPCMContactSphereMesh.obj
 0001:0015eda0       ??$processTriangleCache@$0BA@VPCMSphereVsMeshContactGeneration@Gu@physx@@@PCMMeshContactGeneration@Gu@physx@@QEAA_NAEAU?$TriangleCache@$0BA@@12@@Z 000000018015fda0 f i GuPCMContactSphereMesh.obj
 0001:0015f260       ?addToPatch@PCMSphereVsMeshContactGeneration@Gu@physx@@QEAAXAEBT__m128@@0T4@I@Z 0000000180160260 f   GuPCMContactSphereMesh.obj
 0001:0015f920       ?allocate@?$PxArray@IV?$PxInlineAllocator@$0PAA@V?$PxReflectionAllocator@I@physx@@@physx@@@physx@@IEAAPEAIIPEAI@Z 0000000180160920 f i GuPCMContactSphereMesh.obj
 0001:0015f9e0       ?allocate@?$PxArray@USortedTriangle@Gu@physx@@V?$PxInlineAllocator@$0IAA@V?$PxReflectionAllocator@USortedTriangle@Gu@physx@@@physx@@@3@@physx@@IEAAPEAUSortedTriangle@Gu@2@IPEAI@Z 00000001801609e0 f i GuPCMContactSphereMesh.obj
 0001:0015fa90       ?generateLastContacts@PCMSphereVsMeshContactGeneration@Gu@physx@@QEAAXXZ 0000000180160a90 f   GuPCMContactSphereMesh.obj
 0001:001600b0       ?growAndPushBack@?$PxArray@USortedTriangle@Gu@physx@@V?$PxInlineAllocator@$0IAA@V?$PxReflectionAllocator@USortedTriangle@Gu@physx@@@physx@@@3@@physx@@IEAAAEAUSortedTriangle@Gu@2@AEBU342@@Z 00000001801610b0 f i GuPCMContactSphereMesh.obj
 0001:001601c0       ?pcmContactSphereMesh@Gu@physx@@YA_NAEBVPxGeometry@2@0AEBUPxTransformPadded@2@1AEBUNarrowPhaseParams@12@AEAUCache@12@AEAVPxContactBuffer@2@PEAVPxRenderOutput@2@@Z 00000001801611c0 f   GuPCMContactSphereMesh.obj
 0001:00161cc0       ?processTriangle@PCMSphereVsMeshContactGeneration@Gu@physx@@QEAA_NPEBV?$PxVec3T@M@3@IEPEBI@Z 0000000180162cc0 f   GuPCMContactSphereMesh.obj
 0001:001620b0       ?recreate@?$PxArray@IV?$PxInlineAllocator@$0PAA@V?$PxReflectionAllocator@I@physx@@@physx@@@physx@@IEAAXI@Z 00000001801630b0 f i GuPCMContactSphereMesh.obj
 0001:00162170       ?pcmContactSpherePlane@Gu@physx@@YA_NAEBVPxGeometry@2@0AEBUPxTransformPadded@2@1AEBUNarrowPhaseParams@12@AEAUCache@12@AEAVPxContactBuffer@2@PEAVPxRenderOutput@2@@Z 0000000180163170 f   GuPCMContactSpherePlane.obj
 0001:001622f0       ?pcmContactSphereSphere@Gu@physx@@YA_NAEBVPxGeometry@2@0AEBUPxTransformPadded@2@1AEBUNarrowPhaseParams@12@AEAUCache@12@AEAVPxContactBuffer@2@PEAVPxRenderOutput@2@@Z 00000001801632f0 f   GuPCMContactSphereSphere.obj
 0001:00162b60       ?pcmContactGeometryCustomGeometry@Gu@physx@@YA_NAEBVPxGeometry@2@0AEBUPxTransformPadded@2@1AEBUNarrowPhaseParams@12@AEAUCache@12@AEAVPxContactBuffer@2@PEAVPxRenderOutput@2@@Z 0000000180163b60 f   GuPCMContactCustomGeometry.obj
 0001:00162c10       ?getPCMConvexData@Gu@physx@@YAXAEBVConvexHullV@12@_NAEAUPolygonalData@12@@Z 0000000180163c10 f   GuPCMShapeConvex.obj
 0001:00162db0       ?getPCMConvexData@Gu@physx@@YA_NAEBVPxConvexMeshGeometry@2@AEAVFastVertex2ShapeScaling@Cm@2@AEAVPxBounds3@2@AEAUPolygonalData@12@@Z 0000000180163db0 f   GuPCMShapeConvex.obj
 0001:00163180       ?getPolygonalData@PCMPolygonalBox@Gu@physx@@QEBAXPEIAUPolygonalData@23@@Z 0000000180164180 f   GuPCMShapeConvex.obj
 0001:00163200       ?generatePolyDataContactManifold@PCMConvexVsMeshContactGeneration@Gu@physx@@QEAA_NAEBVTriangleV@23@IIEPEAVMeshPersistentContact@23@AEAIAEBT__m128@@AEAT6@@Z 0000000180164200 f   GuPCMTriangleContactGen.obj
 0001:00163310       ?generateTriangleFullContactManifold@PCMConvexVsMeshContactGeneration@Gu@physx@@QEAA_NAEBVTriangleV@23@IPEBIEAEBUPolygonalData@23@PEBV?$SupportLocalImpl@VTriangleV@Gu@physx@@@23@PEBVSupportLocal@23@PEAVMeshPersistentContact@23@AEAIAEBT__m128@@AEAT9@@Z 0000000180164310 f   GuPCMTriangleContactGen.obj
 0001:00163840       ?generateTriangleFullContactManifold@PCMConvexVsMeshContactGeneration@Gu@physx@@SA_NAEBVTriangleV@23@IEAEBUPolygonalData@23@PEBV?$SupportLocalImpl@VTriangleV@Gu@physx@@@23@PEBVSupportLocal@23@PEAVMeshPersistentContact@23@AEAIAEBT__m128@@AEAT9@PEAVPxRenderOutput@3@@Z 0000000180164840 f   GuPCMTriangleContactGen.obj
 0001:001658b0       ?addBatchManifoldContacts2@PersistentContactManifold@Gu@physx@@QEAAXPEBVPersistentContact@23@I@Z 00000001801668b0 f   GuPersistentContactManifold.obj
 0001:00165920       ?addBatchManifoldContacts@PersistentContactManifold@Gu@physx@@QEAAXPEBVPersistentContact@23@IM@Z 0000000180166920 f   GuPersistentContactManifold.obj
 0001:001659a0       ?addBatchManifoldContactsCluster@PersistentContactManifold@Gu@physx@@QEAAXPEBVPersistentContact@23@I@Z 00000001801669a0 f   GuPersistentContactManifold.obj
 0001:00165c20       ?addManifoldContactPoints@MultiplePersistentContactManifold@Gu@physx@@QEAAXPEAVMeshPersistentContact@23@IPEAPEAUPCMContactPatch@23@IAEBT__m128@@2E@Z 0000000180166c20 f   GuPersistentContactManifold.obj
 0001:00166000       ?addManifoldContactsToContactBuffer@MultiplePersistentContactManifold@Gu@physx@@QEAA_NAEAVPxContactBuffer@3@AEBVPxTransformV@aos@3@1AEBT__m128@@@Z 0000000180167000 f   GuPersistentContactManifold.obj
 0001:001662a0       ?addManifoldContactsToContactBuffer@MultiplePersistentContactManifold@Gu@physx@@QEAA_NAEAVPxContactBuffer@3@AEBVPxTransformV@aos@3@@Z 00000001801672a0 f   GuPersistentContactManifold.obj
 0001:00166520       ?addManifoldContactsToContactBuffer@PersistentContactManifold@Gu@physx@@QEAAXAEAVPxContactBuffer@3@AEBT__m128@@1AEBVPxTransformV@aos@3@11@Z 0000000180167520 f   GuPersistentContactManifold.obj
 0001:001666d0       ?addManifoldContactsToContactBuffer@PersistentContactManifold@Gu@physx@@QEAAXAEAVPxContactBuffer@3@AEBT__m128@@AEBVPxMatTransformV@aos@3@@Z 00000001801676d0 f   GuPersistentContactManifold.obj
 0001:001667a0       ?addManifoldContactsToContactBuffer@PersistentContactManifold@Gu@physx@@QEAAXAEAVPxContactBuffer@3@AEBT__m128@@AEBVPxTransformV@aos@3@1@Z 00000001801677a0 f   GuPersistentContactManifold.obj
 0001:00166900       ?addManifoldPoint2@PersistentContactManifold@Gu@physx@@QEAAIAEBT__m128@@000@Z 0000000180167900 f   GuPersistentContactManifold.obj
 0001:00166a30       ?addManifoldPoint@Gu@physx@@YAXPEAVPersistentContact@12@AEAVPersistentContactManifold@12@AEAUGjkOutput@12@AEBVPxMatTransformV@aos@2@T__m128@@@Z 0000000180167a30 f   GuPersistentContactManifold.obj
 0001:00166bf0       ?addManifoldPoint@PersistentContactManifold@Gu@physx@@QEAAIAEBT__m128@@000@Z 0000000180167bf0 f   GuPersistentContactManifold.obj
 0001:00167030       ?drawLine@MultiplePersistentContactManifold@Gu@physx@@SAXAEAVPxRenderOutput@3@AEBT__m128@@1I@Z 0000000180168030 f   GuPersistentContactManifold.obj
 0001:001670e0       ?drawLine@MultiplePersistentContactManifold@Gu@physx@@SAXAEAVPxRenderOutput@3@V?$PxVec3T@M@3@1I@Z 00000001801680e0 f   GuPersistentContactManifold.obj
 0001:00167150       ?drawManifold@MultiplePersistentContactManifold@Gu@physx@@QEBAXAEAVPxRenderOutput@3@AEBVPxTransformV@aos@3@1@Z 0000000180168150 f   GuPersistentContactManifold.obj
 0001:001677e0       ?drawPoint@MultiplePersistentContactManifold@Gu@physx@@SAXAEAVPxRenderOutput@3@AEBT__m128@@MI@Z 00000001801687e0 f   GuPersistentContactManifold.obj
 0001:001679f0       ?drawPolygon@MultiplePersistentContactManifold@Gu@physx@@SAXAEAVPxRenderOutput@3@AEBVPxTransformV@aos@3@PEAT__m128@@II@Z 00000001801689f0 f   GuPersistentContactManifold.obj
 0001:00167c50       ?findRotationMatrixFromZAxis@Gu@physx@@YA?AUMat33V@aos@2@AEBT__m128@@@Z 0000000180168c50 f   GuPersistentContactManifold.obj
 0001:00167ee0       ?fromBuffer@MultiplePersistentContactManifold@Gu@physx@@QEAAXPEIAE@Z 0000000180168ee0 f   GuPersistentContactManifold.obj
 0001:00168040       ?reduceBatchContacts2@PersistentContactManifold@Gu@physx@@QEAAXPEBVPersistentContact@23@I@Z 0000000180169040 f   GuPersistentContactManifold.obj
 0001:00168250       ?reduceBatchContacts@PersistentContactManifold@Gu@physx@@QEAAXPEBVPersistentContact@23@IM@Z 0000000180169250 f   GuPersistentContactManifold.obj
 0001:00168720       ?reduceBatchContactsCapsule@SinglePersistentContactManifold@Gu@physx@@QEAA?AT__m128@@PEBVMeshPersistentContact@23@IAEAUPCMContactPatch@23@@Z 0000000180169720 f   GuPersistentContactManifold.obj
 0001:001689c0       ?reduceBatchContactsCluster@PersistentContactManifold@Gu@physx@@QEAAXPEBVPersistentContact@23@I@Z 00000001801699c0 f   GuPersistentContactManifold.obj
 0001:00168e50       ?reduceBatchContactsConvex@SinglePersistentContactManifold@Gu@physx@@QEAA?AT__m128@@PEBVMeshPersistentContact@23@IAEAUPCMContactPatch@23@@Z 0000000180169e50 f   GuPersistentContactManifold.obj
 0001:00169440       ?reduceContacts@SinglePersistentContactManifold@Gu@physx@@SAIPEAVMeshPersistentContact@23@I@Z 000000018016a440 f   GuPersistentContactManifold.obj
 0001:001699d0       ?reduceContactsForPCM@PersistentContactManifold@Gu@physx@@QEAAIAEBT__m128@@00@Z 000000018016a9d0 f   GuPersistentContactManifold.obj
 0001:00169f60       ?refreshContactPoints@SinglePersistentContactManifold@Gu@physx@@QEAA?AT__m128@@AEBVPxMatTransformV@aos@3@AEBT4@1@Z 000000018016af60 f   GuPersistentContactManifold.obj
 0001:0016a0c0       ?replaceManifoldPoint@PersistentContactManifold@Gu@physx@@QEAA_NAEBT__m128@@000@Z 000000018016b0c0 f   GuPersistentContactManifold.obj
 0001:0016a180       ?toBuffer@MultiplePersistentContactManifold@Gu@physx@@QEBAXPEIAE@Z 000000018016b180 f   GuPersistentContactManifold.obj
 0001:0016a260       ?contains@Gu@physx@@YA_NPEAT__m128@@IAEBT3@11@Z 000000018016b260 f   GuPCMContactGenUtil.obj
 0001:0016a420       ?getPolygonIndex@Gu@physx@@YAHAEBUPolygonalData@12@PEBVSupportLocal@12@AEBT__m128@@AEAH@Z 000000018016b420 f   GuPCMContactGenUtil.obj
 0001:0016a6c0       ?getWitnessPolygonIndex@Gu@physx@@YAIAEBUPolygonalData@12@PEBVSupportLocal@12@AEBT__m128@@2M@Z 000000018016b6c0 f   GuPCMContactGenUtil.obj
 0001:0016ac10       ?sweepBoxBox@Gu@physx@@YA_NAEBVBox@12@0AEBV?$PxVec3T@M@2@MV?$PxFlags@W4Enum@PxHitFlag@physx@@G@2@AEAUPxGeomSweepHit@2@@Z 000000018016bc10 f   GuSweepBoxBox.obj
 0001:0016c260       ?sweepBoxSphere@Gu@physx@@YA_NAEBVBox@12@MAEBV?$PxVec3T@M@2@1MAEAMAEAV42@V?$PxFlags@W4Enum@PxHitFlag@physx@@G@2@@Z 000000018016d260 f   GuSweepBoxSphere.obj
 0001:0016cd40       ?sweepBoxTriangle@Gu@physx@@YA_NAEBVPxTriangle@2@AEBVPxBounds3@2@AEBV?$PxVec3T@M@2@2AEAV52@3AEAM_N@Z 000000018016dd40 f   GuSweepBoxTriangle_FeatureBased.obj
 0001:0016e220       ?triBoxSweepTestBoxSpace@Gu@physx@@YAHAEBVPxTriangle@2@AEBV?$PxVec3T@M@2@11MAEAM_N@Z 000000018016f220 f   GuSweepBoxTriangle_SAT.obj
 0001:0016fb10       ?sweepCapsuleBox@Gu@physx@@YA_NAEBVCapsule@12@AEBV?$PxTransformT@M@2@AEBV?$PxVec3T@M@2@2MAEAV52@AEAM3V?$PxFlags@W4Enum@PxHitFlag@physx@@G@2@@Z 0000000180170b10 f   GuSweepCapsuleBox.obj
 0001:0016fe40       ?distancePointSegmentSquared@Gu@physx@@YAMAEBVSegment@12@AEBV?$PxVec3T@M@2@PEAM@Z 0000000180170e40 f i GuSweepCapsuleCapsule.obj
 0001:0016ff80       ?edgeEdgeDist@@YAXAEAV?$PxVec3T@M@physx@@0AEBV12@111@Z 0000000180170f80 f   GuSweepCapsuleCapsule.obj
 0001:00170210       ?sweepCapsuleCapsule@Gu@physx@@YA_NAEBVCapsule@12@0AEBV?$PxVec3T@M@2@MAEAMAEAV42@3IAEAG@Z 0000000180171210 f   GuSweepCapsuleCapsule.obj
 0001:00171030       ?sweepCapsuleTriangles_Precise@Gu@physx@@YA_NIPEIBVPxTriangle@2@AEBVCapsule@12@AEBV?$PxVec3T@M@2@MPEIBIAEAUPxGeomSweepHit@2@AEAV52@V?$PxFlags@W4Enum@PxHitFlag@physx@@G@2@_NPEBVBoxPadded@12@@Z 0000000180172030 f   GuSweepCapsuleTriangle.obj
 0001:001730c0       ?sweepSphereCapsule@Gu@physx@@YA_NAEBVSphere@12@AEBVCapsule@12@AEBV?$PxVec3T@M@2@MAEAMAEAV52@4V?$PxFlags@W4Enum@PxHitFlag@physx@@G@2@@Z 00000001801740c0 f   GuSweepSphereCapsule.obj
 0001:00173770       ?sweepSphereSphere@Gu@physx@@YA_NAEBV?$PxVec3T@M@2@M0M0AEAMAEAV32@@Z 0000000180174770 f   GuSweepSphereSphere.obj
 0001:001739f0       ?sweepSphereTriangles@Gu@physx@@YA_NIPEIBVPxTriangle@2@AEBV?$PxVec3T@M@2@M1MPEIBIAEAUPxGeomSweepHit@2@AEAV42@_N555@Z 00000001801749f0 f   GuSweepSphereTriangle.obj
 0001:00174290       ?sweepSphereVSQuad@Gu@physx@@YA_NPEIBV?$PxVec3T@M@2@AEBV32@1M1AEAM@Z 0000000180175290 f   GuSweepSphereTriangle.obj
 0001:00175260       ?sweepSphereVSTri@Gu@physx@@YA_NPEIBV?$PxVec3T@M@2@AEBV32@1M1AEAMAEA_N_N@Z 0000000180176260 f   GuSweepSphereTriangle.obj
 0001:00175eb0       ??$gjk@U?$LocalConvex@VTriangleV@Gu@physx@@@Gu@physx@@U?$LocalConvex@VBoxV@Gu@physx@@@23@@Gu@physx@@YA?AW4GjkStatus@01@AEBU?$LocalConvex@VTriangleV@Gu@physx@@@01@AEBU?$LocalConvex@VBoxV@Gu@physx@@@01@AEBT__m128@@2AEAT5@333@Z 0000000180176eb0 f i GuSweepTriangleUtils.obj
 0001:00176b00       ?computeBoxTriImpactData@Gu@physx@@YAXAEAV?$PxVec3T@M@2@0AEBV32@1AEBVPxTriangle@2@M@Z 0000000180177b00 f   GuSweepTriangleUtils.obj
 0001:00176d80       ?computeEdgeEdgeNormal@Gu@physx@@YAXAEAV?$PxVec3T@M@2@AEBV32@1111M@Z 0000000180177d80 f   GuSweepTriangleUtils.obj
 0001:00177050       ?computeSphereTriImpactData@Gu@physx@@YAXAEAV?$PxVec3T@M@2@0AEBV32@1MAEBVPxTriangle@2@@Z 0000000180178050 f   GuSweepTriangleUtils.obj
 0001:00177530       ??0ShapeData@Gu@physx@@QEAA@AEBVPxGeometry@2@AEBV?$PxTransformT@M@2@M@Z 0000000180178530 f   GuBounds.obj
 0001:00177aa0       ?computeBounds@Gu@physx@@YAXAEAVPxBounds3@2@AEBVPxGeometry@2@AEBV?$PxTransformT@M@2@MM@Z 0000000180178aa0 f   GuBounds.obj
 0001:001787c0       ?computeBoundsAroundVertices@Gu@physx@@YAXAEAVPxBounds3@2@IPEIBV?$PxVec3T@M@2@@Z 00000001801797c0 f   GuBounds.obj
 0001:00178860       ?computeGlobalBox@Gu@physx@@YAXAEAVPxBounds3@2@IPEIBV32@PEIBI@Z 0000000180179860 f   GuBounds.obj
 0001:001788d0       ?computeLocalBoundsAndGeomEpsilon@Gu@physx@@YAXPEBV?$PxVec3T@M@2@IAEAVPxBounds3@2@AEAM@Z 00000001801798d0 f   GuBounds.obj
 0001:001799d0       ?computeTightBounds@Gu@physx@@YAXAEAVPxBounds3@2@IPEIBV?$PxVec3T@M@2@AEBV?$PxTransformT@M@2@AEBVPxMeshScale@2@MM@Z 000000018017a9d0 f   GuBounds.obj
 0001:00179d80       ??0AABBTree@Gu@physx@@QEAA@XZ 000000018017ad80 f   GuAABBTree.obj
 0001:00179db0       ??0BVHPartialRefitData@Gu@physx@@QEAA@XZ 000000018017adb0 f   GuAABBTree.obj
 0001:00179de0       ??0NodeAllocator@Gu@physx@@QEAA@XZ 000000018017ade0 f   GuAABBTree.obj
 0001:00179e00       ??1AABBTree@Gu@physx@@QEAA@XZ 000000018017ae00 f   GuAABBTree.obj
 0001:00179e20       ??1BVHPartialRefitData@Gu@physx@@QEAA@XZ 000000018017ae20 f   GuAABBTree.obj
 0001:00179ed0       ??1NodeAllocator@Gu@physx@@QEAA@XZ 000000018017aed0 f   GuAABBTree.obj
 0001:00179f20       ?addRuntimeChilds@AABBTree@Gu@physx@@AEAAXAEAIAEBVAABBTreeMergeData@23@@Z 000000018017af20 f   GuAABBTree.obj
 0001:0017a020       ?allocate@?$PxArray@PEAVAABBTreeBuildNode@Gu@physx@@V?$PxInlineAllocator@$0IAA@V?$PxReflectionAllocator@PEAVAABBTreeBuildNode@Gu@physx@@@physx@@@3@@physx@@IEAAPEAPEAVAABBTreeBuildNode@Gu@2@IPEAI@Z 000000018017b020 f i GuAABBTree.obj
 0001:0017a0e0       ?build@AABBTree@Gu@physx@@QEAA_NAEBVAABBTreeBuildParams@23@AEAVNodeAllocator@23@@Z 000000018017b0e0 f   GuAABBTree.obj
 0001:0017a190       ?buildAABBTree@Gu@physx@@YAPEAIAEBVAABBTreeBuildParams@12@AEAVNodeAllocator@12@AEAUBuildStats@12@@Z 000000018017b190 f   GuAABBTree.obj
 0001:0017a200       ?buildAABBTree@Gu@physx@@YAXIAEBVAABBTreeBounds@12@AEAV?$PxArray@UBVHNode@Gu@physx@@V?$PxReflectionAllocator@UBVHNode@Gu@physx@@@3@@2@@Z 000000018017b200 f   GuAABBTree.obj
 0001:0017a3e0       ?buildEnd@AABBTree@Gu@physx@@AEAAXAEBVAABBTreeBuildParams@23@AEAVNodeAllocator@23@AEBUBuildStats@23@@Z 000000018017b3e0 f   GuAABBTree.obj
 0001:0017a750       ?constructFromTetrahedra@TinyBVH@Gu@physx@@SAXPEBIIPEBV?$PxVec3T@M@3@AEAU123@M@Z 000000018017b750 f   GuAABBTree.obj
 0001:0017aa50       ?constructFromTriangles@TinyBVH@Gu@physx@@SAXPEBIIPEBV?$PxVec3T@M@3@AEAU123@M@Z 000000018017ba50 f   GuAABBTree.obj
 0001:0017ae00       ?createUpdateMap@BVHPartialRefitData@Gu@physx@@QEAAXI@Z 000000018017be00 f   GuAABBTree.obj
 0001:0017af20       ?flattenTree@Gu@physx@@YAXAEBVNodeAllocator@12@PEAUBVHNode@12@PEBI@Z 000000018017bf20 f   GuAABBTree.obj
 0001:0017b100       ?fullRefit@BVHCoreData@Gu@physx@@QEAAXPEBVPxBounds3@3@@Z 000000018017c100 f   GuAABBTree.obj
 0001:0017b2d0       ?getBiNode@NodeAllocator@Gu@physx@@QEAAPEAVAABBTreeBuildNode@23@XZ 000000018017c2d0 f   GuAABBTree.obj
 0001:0017b400       ?getParentIndices@BVHPartialRefitData@Gu@physx@@IEAAPEAIXZ 000000018017c400 f   GuAABBTree.obj
 0001:0017b490       ?growAndPushBack@?$PxArray@PEAVAABBTreeBuildNode@Gu@physx@@V?$PxReflectionAllocator@PEAVAABBTreeBuildNode@Gu@physx@@@3@@physx@@IEAAAEAPEAVAABBTreeBuildNode@Gu@2@AEBQEAV342@@Z 000000018017c490 f i GuAABBTree.obj
 0001:0017b5b0       ?growAndPushBack@?$PxArray@USlab@NodeAllocator@Gu@physx@@V?$PxReflectionAllocator@USlab@NodeAllocator@Gu@physx@@@4@@physx@@IEAAAEAUSlab@NodeAllocator@Gu@2@AEBU3452@@Z 000000018017c5b0 f i GuAABBTree.obj
 0001:0017b6d0       ?init@AABBTreeBounds@Gu@physx@@QEAAXIPEBVPxBounds3@3@@Z 000000018017c6d0 f   GuAABBTree.obj
 0001:0017b790       ?init@NodeAllocator@Gu@physx@@QEAAXII@Z 000000018017c790 f   GuAABBTree.obj
 0001:0017bad0       ?initTree@AABBTree@Gu@physx@@QEAAXAEBVAABBTreeMergeData@23@@Z 000000018017cad0 f   GuAABBTree.obj
 0001:0017bc20       ?markNodeForRefit@BVHPartialRefitData@Gu@physx@@QEAAXI@Z 000000018017cc20 f   GuAABBTree.obj
 0001:0017bd40       ?mergeRuntimeLeaf@AABBTree@Gu@physx@@AEAAXAEAUBVHNode@23@AEBVAABBTreeMergeData@23@I@Z 000000018017cd40 f   GuAABBTree.obj
 0001:0017bfc0       ?mergeRuntimeNode@AABBTree@Gu@physx@@AEAAXAEAUBVHNode@23@AEBVAABBTreeMergeData@23@I@Z 000000018017cfc0 f   GuAABBTree.obj
 0001:0017c360       ?mergeTree@AABBTree@Gu@physx@@QEAAXAEBVAABBTreeMergeData@23@@Z 000000018017d360 f   GuAABBTree.obj
 0001:0017c630       ?progressiveBuild@AABBTree@Gu@physx@@QEAAIAEBVAABBTreeBuildParams@23@AEAVNodeAllocator@23@AEAUBuildStats@23@II@Z 000000018017d630 f   GuAABBTree.obj
 0001:0017c8e0       ?recreate@?$PxArray@PEAVAABBTreeBuildNode@Gu@physx@@V?$PxInlineAllocator@$0IAA@V?$PxReflectionAllocator@PEAVAABBTreeBuildNode@Gu@physx@@@physx@@@3@@physx@@IEAAXI@Z 000000018017d8e0 f i GuAABBTree.obj
 0001:0017c9a0       ?refitMarkedNodes@BVHPartialRefitData@Gu@physx@@QEAAXPEBVPxBounds3@3@@Z 000000018017d9a0 f   GuAABBTree.obj
 0001:0017cb10       ?release@AABBTree@Gu@physx@@QEAAX_N@Z 000000018017db10 f   GuAABBTree.obj
 0001:0017cc00       ?release@AABBTreeBounds@Gu@physx@@QEAAXXZ 000000018017dc00 f   GuAABBTree.obj
 0001:0017cc50       ?release@NodeAllocator@Gu@physx@@QEAAXXZ 000000018017dc50 f   GuAABBTree.obj
 0001:0017cd00       ?releasePartialRefitData@BVHPartialRefitData@Gu@physx@@QEAAX_N@Z 000000018017dd00 f   GuAABBTree.obj
 0001:0017cda0       ?reshuffle@Gu@physx@@YAIIQEIAIPEIBV?$PxVec3T@M@2@MI@Z 000000018017dda0 f   GuAABBTree.obj
 0001:0017cee0       ?resize@?$PxArray@USlab@NodeAllocator@Gu@physx@@V?$PxReflectionAllocator@USlab@NodeAllocator@Gu@physx@@@4@@physx@@QEAAXIAEBUSlab@NodeAllocator@Gu@2@@Z 000000018017dee0 f i GuAABBTree.obj
 0001:0017cf60       ?resize@AABBTreeBounds@Gu@physx@@QEAAXII@Z 000000018017df60 f   GuAABBTree.obj
 0001:0017d010       ?resizeUninitialized@?$PxArray@PEAVAABBTreeBuildNode@Gu@physx@@V?$PxInlineAllocator@$0IAA@V?$PxReflectionAllocator@PEAVAABBTreeBuildNode@Gu@physx@@@physx@@@3@@physx@@QEAAXI@Z 000000018017e010 f i GuAABBTree.obj
 0001:0017d060       ?shiftIndices@AABBTree@Gu@physx@@QEAAXI@Z 000000018017e060 f   GuAABBTree.obj
 0001:0017d080       ?shiftOrigin@AABBTree@Gu@physx@@QEAAXAEBV?$PxVec3T@M@3@@Z 000000018017e080 f   GuAABBTree.obj
 0001:0017d2f0       ?subdivide@AABBTreeBuildNode@Gu@physx@@QEAAXAEBVAABBTreeBuildParams@23@AEAUBuildStats@23@AEAVNodeAllocator@23@QEAI@Z 000000018017e2f0 f   GuAABBTree.obj
 0001:0017d4d0       ?subdivideSAH@AABBTreeBuildNode@Gu@physx@@QEAAXAEBVAABBTreeBuildParams@23@AEAUSAH_Buffers@23@AEAUBuildStats@23@AEAVNodeAllocator@23@QEAI@Z 000000018017e4d0 f   GuAABBTree.obj
 0001:0017d5c0       ?traverseRuntimeNode@AABBTree@Gu@physx@@AEAAXAEAUBVHNode@23@AEBVAABBTreeMergeData@23@I@Z 000000018017e5c0 f   GuAABBTree.obj
 0001:0017d6c0       ?initMap@AABBTreeUpdateMap@Gu@physx@@QEAAXIAEBVAABBTree@23@@Z 000000018017e6c0 f   GuAABBTreeUpdateMap.obj
 0001:0017d850       ?invalidate@AABBTreeUpdateMap@Gu@physx@@QEAAXIIAEAVAABBTree@23@@Z 000000018017e850 f   GuAABBTreeUpdateMap.obj
 0001:0017db00       ?visualizeTree@@YAXAEAVPxRenderOutput@physx@@IPEBVAABBTree@Gu@2@@Z 000000018017eb00 f   GuSqInternal.obj
 0001:0017db70       ?visualizeTree@@YAXAEAVPxRenderOutput@physx@@IPEBVBVH@Gu@2@@Z 000000018017eb70 f   GuSqInternal.obj
 0001:0017dbe0       ?visualizeTree@@YAXAEAVPxRenderOutput@physx@@IPEBVIncrementalAABBTree@Gu@2@PEAVDebugVizCallback@2@@Z 000000018017ebe0 f   GuSqInternal.obj
 0001:0017dc60       ??$PxSort@PEAXU?$PxLess@PEAX@physx@@V?$PxReflectionAllocator@UAABBTreeIndices@Gu@physx@@@2@@physx@@YAXPEAPEAXIAEBU?$PxLess@PEAX@0@AEBV?$PxReflectionAllocator@UAABBTreeIndices@Gu@physx@@@0@I@Z 000000018017ec60 f i GuIncrementalAABBTree.obj
 0001:0017e0e0       ??$PxSort@PEAXU?$PxLess@PEAX@physx@@V?$PxReflectionAllocator@UIncrementalAABBTreeNodePair@Gu@physx@@@2@@physx@@YAXPEAPEAXIAEBU?$PxLess@PEAX@0@AEBV?$PxReflectionAllocator@UIncrementalAABBTreeNodePair@Gu@physx@@@0@I@Z 000000018017f0e0 f i GuIncrementalAABBTree.obj
 0001:0017e560       ??0IncrementalAABBTree@Gu@physx@@QEAA@XZ 000000018017f560 f   GuIncrementalAABBTree.obj
 0001:0017e5e0       ??1?$PxPoolBase@UAABBTreeIndices@Gu@physx@@V?$PxReflectionAllocator@UAABBTreeIndices@Gu@physx@@@3@@physx@@QEAA@XZ 000000018017f5e0 f i GuIncrementalAABBTree.obj
 0001:0017e750       ??1?$PxPoolBase@UIncrementalAABBTreeNodePair@Gu@physx@@V?$PxReflectionAllocator@UIncrementalAABBTreeNodePair@Gu@physx@@@3@@physx@@QEAA@XZ 000000018017f750 f i GuIncrementalAABBTree.obj
 0001:0017e8c0       ??1IncrementalAABBTree@Gu@physx@@QEAA@XZ 000000018017f8c0 f   GuIncrementalAABBTree.obj
 0001:0017e900       ?allocate@?$PxPoolBase@UAABBTreeIndices@Gu@physx@@V?$PxReflectionAllocator@UAABBTreeIndices@Gu@physx@@@3@@physx@@QEAAPEAUAABBTreeIndices@Gu@2@XZ 000000018017f900 f i GuIncrementalAABBTree.obj
 0001:0017e9f0       ?allocate@?$PxPoolBase@UIncrementalAABBTreeNodePair@Gu@physx@@V?$PxReflectionAllocator@UIncrementalAABBTreeNodePair@Gu@physx@@@3@@physx@@QEAAPEAUIncrementalAABBTreeNodePair@Gu@2@XZ 000000018017f9f0 f i GuIncrementalAABBTree.obj
 0001:0017eae0       ?build@IncrementalAABBTree@Gu@physx@@QEAA_NAEBVAABBTreeBuildParams@23@AEAV?$PxArray@PEAVIncrementalAABBTreeNode@Gu@physx@@V?$PxReflectionAllocator@PEAVIncrementalAABBTreeNode@Gu@physx@@@3@@3@@Z 000000018017fae0 f   GuIncrementalAABBTree.obj
 0001:0017ece0       ?clone@IncrementalAABBTree@Gu@physx@@AEAAXAEAV?$PxArray@PEAVIncrementalAABBTreeNode@Gu@physx@@V?$PxReflectionAllocator@PEAVIncrementalAABBTreeNode@Gu@physx@@@3@@3@PEBIPEAPEAVIncrementalAABBTreeNode@23@@Z 000000018017fce0 f   GuIncrementalAABBTree.obj
 0001:0017f200       ?copy@IncrementalAABBTree@Gu@physx@@QEAAXAEBVBVH@23@AEAV?$PxArray@PEAVIncrementalAABBTreeNode@Gu@physx@@V?$PxReflectionAllocator@PEAVIncrementalAABBTreeNode@Gu@physx@@@3@@3@@Z 0000000180180200 f   GuIncrementalAABBTree.obj
 0001:0017f2a0       ?copyNode@IncrementalAABBTree@Gu@physx@@AEAAXAEAVIncrementalAABBTreeNode@23@AEBUBVHNode@23@PEBU523@PEAV423@PEBIAEAV?$PxArray@PEAVIncrementalAABBTreeNode@Gu@physx@@V?$PxReflectionAllocator@PEAVIncrementalAABBTreeNode@Gu@physx@@@3@@3@@Z 00000001801802a0 f   GuIncrementalAABBTree.obj
 0001:0017f450       ?fixupTreeIndices@IncrementalAABBTree@Gu@physx@@QEAAXPEAVIncrementalAABBTreeNode@23@II@Z 0000000180180450 f   GuIncrementalAABBTree.obj
 0001:0017f480       ?getTreeLeafDepth@IncrementalAABBTree@Gu@physx@@QEAAIPEAVIncrementalAABBTreeNode@23@@Z 0000000180180480 f   GuIncrementalAABBTree.obj
 0001:0017f4a0       ?growAndPushBack@?$PxArray@PEAVIncrementalAABBTreeNode@Gu@physx@@V?$PxReflectionAllocator@PEAVIncrementalAABBTreeNode@Gu@physx@@@3@@physx@@IEAAAEAPEAVIncrementalAABBTreeNode@Gu@2@AEBQEAV342@@Z 00000001801804a0 f i GuIncrementalAABBTree.obj
 0001:0017f5c0       ?growAndPushBack@?$PxArray@PEAXV?$PxReflectionAllocator@UAABBTreeIndices@Gu@physx@@@physx@@@physx@@IEAAAEAPEAXAEBQEAX@Z 00000001801805c0 f i GuIncrementalAABBTree.obj
 0001:0017f6e0       ?growAndPushBack@?$PxArray@PEAXV?$PxReflectionAllocator@UIncrementalAABBTreeNodePair@Gu@physx@@@physx@@@physx@@IEAAAEAPEAXAEBQEAX@Z 00000001801806e0 f i GuIncrementalAABBTree.obj
 0001:0017f800       ?hierarchyCheck@IncrementalAABBTree@Gu@physx@@QEAAXIPEBVPxBounds3@3@@Z 0000000180180800 f   GuIncrementalAABBTree.obj
 0001:0017f950       ?hierarchyCheck@IncrementalAABBTree@Gu@physx@@QEAAXPEBVPxBounds3@3@@Z 0000000180180950 f   GuIncrementalAABBTree.obj
 0001:0017faa0       ?insert@IncrementalAABBTree@Gu@physx@@QEAAPEAVIncrementalAABBTreeNode@23@IPEBVPxBounds3@3@AEAV?$PxArray@PEAVIncrementalAABBTreeNode@Gu@physx@@V?$PxReflectionAllocator@PEAVIncrementalAABBTreeNode@Gu@physx@@@3@@3@@Z 0000000180180aa0 f   GuIncrementalAABBTree.obj
 0001:00180110       ?recreate@?$PxArray@PEAXV?$PxReflectionAllocator@UAABBTreeIndices@Gu@physx@@@physx@@@physx@@IEAAXI@Z 0000000180181110 f i GuIncrementalAABBTree.obj
 0001:00180210       ?recreate@?$PxArray@PEAXV?$PxReflectionAllocator@UIncrementalAABBTreeNodePair@Gu@physx@@@physx@@@physx@@IEAAXI@Z 0000000180181210 f i GuIncrementalAABBTree.obj
 0001:00180310       ?release@IncrementalAABBTree@Gu@physx@@QEAAXXZ 0000000180181310 f   GuIncrementalAABBTree.obj
 0001:00180340       ?releaseNode@IncrementalAABBTree@Gu@physx@@AEAAXPEAVIncrementalAABBTreeNode@23@@Z 0000000180181340 f   GuIncrementalAABBTree.obj
 0001:001803d0       ?remove@IncrementalAABBTree@Gu@physx@@QEAAPEAVIncrementalAABBTreeNode@23@PEAV423@IPEBVPxBounds3@3@@Z 00000001801813d0 f   GuIncrementalAABBTree.obj
 0001:00180730       ?rotateTree@IncrementalAABBTree@Gu@physx@@AEAAXPEAVIncrementalAABBTreeNode@23@AEAV?$PxArray@PEAVIncrementalAABBTreeNode@Gu@physx@@V?$PxReflectionAllocator@PEAVIncrementalAABBTreeNode@Gu@physx@@@3@@3@IPEBVPxBounds3@3@_N@Z 0000000180181730 f   GuIncrementalAABBTree.obj
 0001:00181060       ?shiftOrigin@IncrementalAABBTree@Gu@physx@@QEAAXAEBV?$PxVec3T@M@3@@Z 0000000180182060 f   GuIncrementalAABBTree.obj
 0001:001810c0       ?splitLeafNode@IncrementalAABBTree@Gu@physx@@AEAAPEAVIncrementalAABBTreeNode@23@PEAV423@IAEBT__m128@@1PEBVPxBounds3@3@@Z 00000001801820c0 f   GuIncrementalAABBTree.obj
 0001:001813b0       ?update@IncrementalAABBTree@Gu@physx@@QEAAPEAVIncrementalAABBTreeNode@23@PEAV423@IPEBVPxBounds3@3@AEAV?$PxArray@PEAVIncrementalAABBTreeNode@Gu@physx@@V?$PxReflectionAllocator@PEAVIncrementalAABBTreeNode@Gu@physx@@@3@@3@@Z 00000001801823b0 f   GuIncrementalAABBTree.obj
 0001:00181470       ?updateFast@IncrementalAABBTree@Gu@physx@@QEAAPEAVIncrementalAABBTreeNode@23@PEAV423@IPEBVPxBounds3@3@AEAV?$PxArray@PEAVIncrementalAABBTreeNode@Gu@physx@@V?$PxReflectionAllocator@PEAVIncrementalAABBTreeNode@Gu@physx@@@3@@3@@Z 0000000180182470 f   GuIncrementalAABBTree.obj
 0001:00181690       ??0SAH_Buffers@Gu@physx@@QEAA@I@Z 0000000180182690 f   GuSAH.obj
 0001:001817a0       ??1SAH_Buffers@Gu@physx@@QEAA@XZ 00000001801827a0 f   GuSAH.obj
 0001:00181860       ?split@SAH_Buffers@Gu@physx@@QEAA_NAEAIIPEIBIPEIBVPxBounds3@3@PEIBV?$PxVec3T@M@3@@Z 0000000180182860 f   GuSAH.obj
 0001:00181ee0       ??0BVH@Gu@physx@@QEAA@AEBUPxBVHInternalData@2@@Z 0000000180182ee0 f   GuBVH.obj
 0001:00181fa0       ??0BVH@Gu@physx@@QEAA@PEAVMeshFactory@12@@Z 0000000180182fa0 f   GuBVH.obj
 0001:00182010       ??0BVH@Gu@physx@@QEAA@PEAVMeshFactory@12@AEAVBVHData@12@@Z 0000000180183010 f   GuBVH.obj
 0001:001820c0       ??1BVHData@Gu@physx@@QEAA@XZ 00000001801830c0 f i GuBVH.obj
 0001:00185804       ??_EBVH@Gu@physx@@WBA@EAAPEAXI@Z 0000000180186804 f i GuBVH.obj
 0001:00185810       ??_EBVH@Gu@physx@@UEAAPEAXI@Z 0000000180186810 f i GuBVH.obj
 0001:00185810       ??_GBVH@Gu@physx@@UEAAPEAXI@Z 0000000180186810 f i GuBVH.obj
 0001:001858a0       ??_ERefCountable@Cm@physx@@UEAAPEAXI@Z 00000001801868a0 f i GuBVH.obj
 0001:001858a0       ??_GRefCountable@Cm@physx@@UEAAPEAXI@Z 00000001801868a0 f i GuBVH.obj
 0001:00185ae0       ?allocate@?$PxArray@PEBUBVHNode@Gu@physx@@V?$PxInlineAllocator@$0IAA@V?$PxReflectionAllocator@PEBUBVHNode@Gu@physx@@@physx@@@3@@physx@@IEAAPEAPEBUBVHNode@Gu@2@IPEAI@Z 0000000180186ae0 f i GuBVH.obj
 0001:00185ba0       ?build@BVHData@Gu@physx@@QEAA_NIPEBXIMIW4BVHBuildStrategy@23@@Z 0000000180186ba0 f   GuBVH.obj
 0001:00185fa0       ?cull@BVH@Gu@physx@@UEBA_NIPEBVPxPlane@3@AEAUOverlapCallback@PxBVH@3@V?$PxFlags@W4Enum@PxGeometryQueryFlag@physx@@I@3@@Z 0000000180186fa0 f   GuBVH.obj
 0001:001868b0       ?getConcreteTypeName@PxBVH@physx@@UEBAPEBDXZ 00000001801878b0 f i GuBVH.obj
 0001:001868c0       ?init@BVH@Gu@physx@@QEAA_NIPEAVAABBTreeBounds@23@PEBXIW4BVHBuildStrategy@23@IM@Z 00000001801878c0 f   GuBVH.obj
 0001:00186ce0       ?isKindOf@PxBVH@physx@@MEBA_NPEBD@Z 0000000180187ce0 f i GuBVH.obj
 0001:00186d60       ?load@BVH@Gu@physx@@QEAA_NAEAVPxInputStream@3@@Z 0000000180187d60 f   GuBVH.obj
 0001:00186f00       ?onRefCountZero@BVH@Gu@physx@@UEAAXXZ 0000000180187f00 f   GuBVH.obj
 0001:00186fe0       ?onRefCountZero@RefCountable@Cm@physx@@UEAAXXZ 0000000180187fe0 f i GuBVH.obj
 0001:00187000       ?overlap@BVH@Gu@physx@@QEBA_NAEBVShapeData@23@AEAUOverlapCallback@PxBVH@3@V?$PxFlags@W4Enum@PxGeometryQueryFlag@physx@@I@3@@Z 0000000180188000 f   GuBVH.obj
 0001:001876e0       ?overlap@BVH@Gu@physx@@UEBA_NAEBVPxGeometry@3@AEBV?$PxTransformT@M@3@AEAUOverlapCallback@PxBVH@3@V?$PxFlags@W4Enum@PxGeometryQueryFlag@physx@@I@3@@Z 00000001801886e0 f   GuBVH.obj
 0001:00187740       ?partialRefit@BVH@Gu@physx@@UEAAXXZ 0000000180188740 f   GuBVH.obj
 0001:00187750       ?raycast@BVH@Gu@physx@@UEBA_NAEBV?$PxVec3T@M@3@0MAEAURaycastCallback@PxBVH@3@V?$PxFlags@W4Enum@PxGeometryQueryFlag@physx@@I@3@@Z 0000000180188750 f   GuBVH.obj
 0001:00187830       ?recreate@?$PxArray@PEBUBVHNode@Gu@physx@@V?$PxInlineAllocator@$0IAA@V?$PxReflectionAllocator@PEBUBVHNode@Gu@physx@@@physx@@@3@@physx@@IEAAXI@Z 0000000180188830 f i GuBVH.obj
 0001:001878f0       ?refit@BVH@Gu@physx@@UEAAXXZ 00000001801888f0 f   GuBVH.obj
 0001:00187900       ?release@BVH@Gu@physx@@UEAAXXZ 0000000180188900 f   GuBVH.obj
 0001:00187930       ?resizeUninitialized@?$PxArray@PEBUBVHNode@Gu@physx@@V?$PxInlineAllocator@$0IAA@V?$PxReflectionAllocator@PEBUBVHNode@Gu@physx@@@physx@@@3@@physx@@QEAAXI@Z 0000000180188930 f i GuBVH.obj
 0001:00187980       ?save@BVHData@Gu@physx@@QEBA_NAEAVPxOutputStream@3@_N@Z 0000000180188980 f   GuBVH.obj
 0001:00187af0       ?sweep@BVH@Gu@physx@@QEBA_NAEBVShapeData@23@AEBV?$PxVec3T@M@3@MAEAURaycastCallback@PxBVH@3@V?$PxFlags@W4Enum@PxGeometryQueryFlag@physx@@I@3@@Z 0000000180188af0 f   GuBVH.obj
 0001:00187cd0       ?sweep@BVH@Gu@physx@@UEBA_NAEBVPxGeometry@3@AEBV?$PxTransformT@M@3@AEBV?$PxVec3T@M@3@MAEAURaycastCallback@PxBVH@3@V?$PxFlags@W4Enum@PxGeometryQueryFlag@physx@@I@3@@Z 0000000180188cd0 f   GuBVH.obj
 0001:00187ed0       ?traverse@BVH@Gu@physx@@UEBA_NAEAUTraversalCallback@PxBVH@3@@Z 0000000180188ed0 f   GuBVH.obj
 0001:00188050       ?updateBounds@BVH@Gu@physx@@UEAA_NIAEBVPxBounds3@3@@Z 0000000180189050 f   GuBVH.obj
 0001:00188100       ?updateBoundsInternal@BVH@Gu@physx@@QEAA_NIAEBVPxBounds3@3@@Z 0000000180189100 f   GuBVH.obj
 0001:001881b0       PxFindOverlap              00000001801891b0 f   GuBVH.obj
 0001:001882b0       PxGetBVHInternalData       00000001801892b0 f   GuBVH.obj
 0001:001882f0       ??0IncrementalAABBPrunerCore@Gu@physx@@QEAA@PEBVPruningPool@12@@Z 00000001801892f0 f   GuIncrementalAABBPrunerCore.obj
 0001:00188410       ??1IncrementalAABBPrunerCore@Gu@physx@@QEAA@XZ 0000000180189410 f   GuIncrementalAABBPrunerCore.obj
 0001:00188580       ??R?$AABBTreeOverlap@$00U?$OBBAABBTests@$00@Gu@physx@@VIncrementalAABBTree@23@VIncrementalAABBTreeNode@23@UOverlapCallbackAdapter@23@@Gu@physx@@QEAA_NAEBVAABBTreeBounds@12@AEBVIncrementalAABBTree@12@AEBU?$OBBAABBTests@$00@12@AEAUOverlapCallbackAdapter@12@@Z 0000000180189580 f i GuIncrementalAABBPrunerCore.obj
 0001:00188b20       ??R?$AABBTreeOverlap@$00UAABBAABBTest@Gu@physx@@VIncrementalAABBTree@23@VIncrementalAABBTreeNode@23@UOverlapCallbackAdapter@23@@Gu@physx@@QEAA_NAEBVAABBTreeBounds@12@AEBVIncrementalAABBTree@12@AEBUAABBAABBTest@12@AEAUOverlapCallbackAdapter@12@@Z 0000000180189b20 f i GuIncrementalAABBPrunerCore.obj
 0001:00188d80       ??R?$AABBTreeOverlap@$00UCapsuleAABBTest@Gu@physx@@VIncrementalAABBTree@23@VIncrementalAABBTreeNode@23@UOverlapCallbackAdapter@23@@Gu@physx@@QEAA_NAEBVAABBTreeBounds@12@AEBVIncrementalAABBTree@12@AEBUCapsuleAABBTest@12@AEAUOverlapCallbackAdapter@12@@Z 0000000180189d80 f i GuIncrementalAABBPrunerCore.obj
 0001:001890c0       ??R?$AABBTreeRaycast@$00$00VIncrementalAABBTree@Gu@physx@@VIncrementalAABBTreeNode@23@URaycastCallbackAdapter@23@@Gu@physx@@QEAA_NAEBVAABBTreeBounds@12@AEBVIncrementalAABBTree@12@AEBV?$PxVec3T@M@2@2AEAM2AEAURaycastCallbackAdapter@12@@Z 000000018018a0c0 f i GuIncrementalAABBPrunerCore.obj
 0001:00189750       ??R?$AABBTreeRaycast@$0A@$00VIncrementalAABBTree@Gu@physx@@VIncrementalAABBTreeNode@23@URaycastCallbackAdapter@23@@Gu@physx@@QEAA_NAEBVAABBTreeBounds@12@AEBVIncrementalAABBTree@12@AEBV?$PxVec3T@M@2@2AEAM2AEAURaycastCallbackAdapter@12@@Z 000000018018a750 f i GuIncrementalAABBPrunerCore.obj
 0001:00189d40       ?addObject@IncrementalAABBPrunerCore@Gu@physx@@QEAA_NII@Z 000000018018ad40 f   GuIncrementalAABBPrunerCore.obj
 0001:00189e30       ?allocate@?$PxArray@PEBVIncrementalAABBTreeNode@Gu@physx@@V?$PxInlineAllocator@$0IAA@V?$PxReflectionAllocator@PEBVIncrementalAABBTreeNode@Gu@physx@@@physx@@@3@@physx@@IEAAPEAPEBVIncrementalAABBTreeNode@Gu@2@IPEAI@Z 000000018018ae30 f i GuIncrementalAABBPrunerCore.obj
 0001:00189ef0       ?clear@?$PxHashMapBase@IPEAVIncrementalAABBTreeNode@Gu@physx@@U?$PxHash@I@3@VPxAllocator@3@@physx@@QEAAXXZ 000000018018aef0 f i GuIncrementalAABBPrunerCore.obj
 0001:00189ef0       ?clear@?$PxHashMapBase@UPrunerPayload@Gu@physx@@UExtendedBucketPrunerData@23@UExtendedBucketPrunerHash@23@VPxAllocator@3@@physx@@QEAAXXZ 000000018018aef0 f i GuExtendedBucketPruner.obj
 0001:00189f80       ?create@?$PxHashBase@V?$PxPair@$$CBIPEAVIncrementalAABBTreeNode@Gu@physx@@@physx@@IU?$PxHash@I@2@UGetKey@?$PxHashMapBase@IPEAVIncrementalAABBTreeNode@Gu@physx@@U?$PxHash@I@3@VPxAllocator@3@@2@VPxAllocator@2@$00@physx@@QEAAPEAV?$PxPair@$$CBIPEAVIncrementalAABBTreeNode@Gu@physx@@@2@AEBIAEA_N@Z 000000018018af80 f i GuIncrementalAABBPrunerCore.obj
 0001:0018a0d0       ?erase@?$PxHashBase@V?$PxPair@$$CBIPEAVIncrementalAABBTreeNode@Gu@physx@@@physx@@IU?$PxHash@I@2@UGetKey@?$PxHashMapBase@IPEAVIncrementalAABBTreeNode@Gu@physx@@U?$PxHash@I@3@VPxAllocator@3@@2@VPxAllocator@2@$00@physx@@QEAA_NAEBIAEAV?$PxPair@$$CBIPEAVIncrementalAABBTreeNode@Gu@physx@@@2@@Z 000000018018b0d0 f i GuIncrementalAABBPrunerCore.obj
 0001:0018a240       ?getCurrentWorldBoxes@PruningPool@Gu@physx@@QEAAPEAVPxBounds3@3@XZ 000000018018b240 f i GuIncrementalAABBPrunerCore.obj
 0001:0018a240       ?getCurrentWorldBoxes@PruningPool@Gu@physx@@QEBAPEBVPxBounds3@3@XZ 000000018018b240 f i GuIncrementalAABBPrunerCore.obj
 0001:0018a240       ?getMesh@CollisionTetrahedronMeshData@Gu@physx@@UEAAPEAVPxTetrahedronMeshData@3@XZ 000000018018b240 f i GuCookingTetrahedronMesh.obj
 0001:0018a240       ?getMesh@CollisionTetrahedronMeshData@Gu@physx@@UEBAPEBVPxTetrahedronMeshData@3@XZ 000000018018b240 f i GuCookingTetrahedronMesh.obj
 0001:0018a240       ?getMesh@SimulationTetrahedronMeshData@Gu@physx@@UEAAPEAVPxTetrahedronMeshData@3@XZ 000000018018b240 f i GuCookingTetrahedronMesh.obj
 0001:0018a250       ?getGlobalBounds@IncrementalAABBPrunerCore@Gu@physx@@QEBAXAEAVPxBounds3@3@@Z 000000018018b250 f   GuIncrementalAABBPrunerCore.obj
 0001:0018a390       ?getIndex@PruningPool@Gu@physx@@QEBAII@Z 000000018018b390 f i GuIncrementalAABBPrunerCore.obj
 0001:0018a3a0       ?getPayloadData@PruningPool@Gu@physx@@QEBAAEBUPrunerPayload@23@IPEAUPrunerPayloadData@23@@Z 000000018018b3a0 f i GuIncrementalAABBPrunerCore.obj
 0001:0018a3f0       ?overlap@IncrementalAABBPrunerCore@Gu@physx@@QEBA_NAEBVShapeData@23@AEAUPrunerOverlapCallback@23@@Z 000000018018b3f0 f   GuIncrementalAABBPrunerCore.obj
 0001:0018ae20       ?raycast@IncrementalAABBPrunerCore@Gu@physx@@QEBA_NAEBV?$PxVec3T@M@3@0AEAMAEAUPrunerRaycastCallback@23@@Z 000000018018be20 f   GuIncrementalAABBPrunerCore.obj
 0001:0018af30       ?recreate@?$PxArray@PEAVIncrementalAABBTreeNode@Gu@physx@@V?$PxReflectionAllocator@PEAVIncrementalAABBTreeNode@Gu@physx@@@3@@physx@@IEAAXI@Z 000000018018bf30 f i GuIncrementalAABBPrunerCore.obj
 0001:0018b030       ?recreate@?$PxArray@PEBVIncrementalAABBTreeNode@Gu@physx@@V?$PxInlineAllocator@$0IAA@V?$PxReflectionAllocator@PEBVIncrementalAABBTreeNode@Gu@physx@@@physx@@@3@@physx@@IEAAXI@Z 000000018018c030 f i GuIncrementalAABBPrunerCore.obj
 0001:0018b0f0       ?release@IncrementalAABBPrunerCore@Gu@physx@@QEAAXXZ 000000018018c0f0 f   GuIncrementalAABBPrunerCore.obj
 0001:0018b1f0       ?removeMarkedObjects@IncrementalAABBPrunerCore@Gu@physx@@QEAAII@Z 000000018018c1f0 f   GuIncrementalAABBPrunerCore.obj
 0001:0018b250       ?removeObject@IncrementalAABBPrunerCore@Gu@physx@@QEAA_NIIAEAI@Z 000000018018c250 f   GuIncrementalAABBPrunerCore.obj
 0001:0018b470       ?reserveInternal@?$PxHashBase@V?$PxPair@$$CBIPEAVIncrementalAABBTreeNode@Gu@physx@@@physx@@IU?$PxHash@I@2@UGetKey@?$PxHashMapBase@IPEAVIncrementalAABBTreeNode@Gu@physx@@U?$PxHash@I@3@VPxAllocator@3@@2@VPxAllocator@2@$00@physx@@AEAAXI@Z 000000018018c470 f i GuIncrementalAABBPrunerCore.obj
 0001:0018b630       ?resizeUninitialized@?$PxArray@PEBVIncrementalAABBTreeNode@Gu@physx@@V?$PxInlineAllocator@$0IAA@V?$PxReflectionAllocator@PEBVIncrementalAABBTreeNode@Gu@physx@@@physx@@@3@@physx@@QEAAXI@Z 000000018018c630 f i GuIncrementalAABBPrunerCore.obj
 0001:0018b680       ?setTransform@PruningPool@Gu@physx@@QEAA_NIAEBV?$PxTransformT@M@3@@Z 000000018018c680 f i GuIncrementalAABBPrunerCore.obj
 0001:0018b6e0       ?shiftOrigin@IncrementalAABBPrunerCore@Gu@physx@@QEAAXAEBV?$PxVec3T@M@3@@Z 000000018018c6e0 f   GuIncrementalAABBPrunerCore.obj
 0001:0018b720       ?swapIndex@IncrementalAABBPrunerCore@Gu@physx@@QEAAXII@Z 000000018018c720 f   GuIncrementalAABBPrunerCore.obj
 0001:0018b800       ?sweep@IncrementalAABBPrunerCore@Gu@physx@@QEBA_NAEBVShapeData@23@AEBV?$PxVec3T@M@3@AEAMAEAUPrunerRaycastCallback@23@@Z 000000018018c800 f   GuIncrementalAABBPrunerCore.obj
 0001:0018ba10       ?updateMapping@IncrementalAABBPrunerCore@Gu@physx@@AEAAXAEAV?$PxHashMap@IPEAVIncrementalAABBTreeNode@Gu@physx@@U?$PxHash@I@3@VPxAllocator@3@@3@IPEAVIncrementalAABBTreeNode@23@@Z 000000018018ca10 f   GuIncrementalAABBPrunerCore.obj
 0001:0018bb80       ?updateObject@IncrementalAABBPrunerCore@Gu@physx@@QEAA_NI@Z 000000018018cb80 f   GuIncrementalAABBPrunerCore.obj
 0001:0018bd20       ?visualize@IncrementalAABBPrunerCore@Gu@physx@@QEBAXAEAVPxRenderOutput@3@I@Z 000000018018cd20 f   GuIncrementalAABBPrunerCore.obj
 0001:0018bd80       ??0IncrementalAABBPruner@Gu@physx@@QEAA@I_K@Z 000000018018cd80 f   GuIncrementalAABBPruner.obj
 0001:0018be30       ??R?$AABBTreeOverlap@$00USphereAABBTest@Gu@physx@@VIncrementalAABBTree@23@VIncrementalAABBTreeNode@23@UOverlapCallbackAdapter@23@@Gu@physx@@QEAA_NAEBVAABBTreeBounds@12@AEBVIncrementalAABBTree@12@AEBUSphereAABBTest@12@AEAUOverlapCallbackAdapter@12@@Z 000000018018ce30 f i GuIncrementalAABBPruner.obj
 0001:0018c100       ??_EBasePruner@Gu@physx@@UEAAPEAXI@Z 000000018018d100 f i GuIncrementalAABBPruner.obj
 0001:0018c100       ??_GBasePruner@Gu@physx@@UEAAPEAXI@Z 000000018018d100 f i GuIncrementalAABBPruner.obj
 0001:0018c160       ??_EIncrementalAABBPruner@Gu@physx@@UEAAPEAXI@Z 000000018018d160 f i GuIncrementalAABBPruner.obj
 0001:0018c160       ??_GIncrementalAABBPruner@Gu@physx@@UEAAPEAXI@Z 000000018018d160 f i GuIncrementalAABBPruner.obj
 0001:0018c280       ?addObjects@IncrementalAABBPruner@Gu@physx@@UEAA_NPEAIPEBVPxBounds3@3@PEBUPrunerPayload@23@PEBV?$PxTransformT@M@3@I_N@Z 000000018018d280 f   GuIncrementalAABBPruner.obj
 0001:0018c420       ?commit@IncrementalAABBPruner@Gu@physx@@UEAAXXZ 000000018018d420 f   GuIncrementalAABBPruner.obj
 0001:0018c560       ?getGlobalBounds@IncrementalAABBPruner@Gu@physx@@UEBAXAEAVPxBounds3@3@@Z 000000018018d560 f   GuIncrementalAABBPruner.obj
 0001:0018c5e0       ?getPayloadData@IncrementalAABBPruner@Gu@physx@@UEBAAEBUPrunerPayload@23@IPEAUPrunerPayloadData@23@@Z 000000018018d5e0 f i GuIncrementalAABBPruner.obj
 0001:0018c630       ?overlap@IncrementalAABBPruner@Gu@physx@@UEBA_NAEBVShapeData@23@AEAUPrunerOverlapCallback@23@@Z 000000018018d630 f   GuIncrementalAABBPruner.obj
 0001:0018cc40       ?preallocate@IncrementalAABBPruner@Gu@physx@@UEAAXI@Z 000000018018dc40 f i GuIncrementalAABBPruner.obj
 0001:0018cc50       ?purge@IncrementalAABBPruner@Gu@physx@@UEAAXXZ 000000018018dc50 f   GuIncrementalAABBPruner.obj
 0001:0018cca0       ?raycast@IncrementalAABBPruner@Gu@physx@@UEBA_NAEBV?$PxVec3T@M@3@0AEAMAEAUPrunerRaycastCallback@23@@Z 000000018018dca0 f   GuIncrementalAABBPruner.obj
 0001:0018cd20       ?removeObjects@IncrementalAABBPruner@Gu@physx@@UEAAXPEBIIPEAUPrunerPayloadRemovalCallback@23@@Z 000000018018dd20 f   GuIncrementalAABBPruner.obj
 0001:0018ce70       ?resize@?$PxArray@PEAVIncrementalAABBTreeNode@Gu@physx@@V?$PxReflectionAllocator@PEAVIncrementalAABBTreeNode@Gu@physx@@@3@@physx@@QEAAXIAEBQEAVIncrementalAABBTreeNode@Gu@2@@Z 000000018018de70 f i GuIncrementalAABBPruner.obj
 0001:0018cf30       ?resizeUninitialized@?$PxArray@PEAVIncrementalAABBTreeNode@Gu@physx@@V?$PxReflectionAllocator@PEAVIncrementalAABBTreeNode@Gu@physx@@@3@@physx@@QEAAXI@Z 000000018018df30 f i GuIncrementalAABBPruner.obj
 0001:0018cf70       ?setTransform@IncrementalAABBPruner@Gu@physx@@UEAA_NIAEBV?$PxTransformT@M@3@@Z 000000018018df70 f i GuIncrementalAABBPruner.obj
 0001:0018cfd0       ?shiftOrigin@IncrementalAABBPruner@Gu@physx@@UEAAXAEBV?$PxVec3T@M@3@@Z 000000018018dfd0 f   GuIncrementalAABBPruner.obj
 0001:0018d010       ?sweep@IncrementalAABBPruner@Gu@physx@@UEBA_NAEBVShapeData@23@AEBV?$PxVec3T@M@3@AEAMAEAUPrunerRaycastCallback@23@@Z 000000018018e010 f   GuIncrementalAABBPruner.obj
 0001:0018d140       ?updateObjects@IncrementalAABBPruner@Gu@physx@@UEAAXPEBIIM0PEBVPxBounds3@3@PEBUPxTransformPadded@3@@Z 000000018018e140 f   GuIncrementalAABBPruner.obj
 0001:0018d310       ?visualize@IncrementalAABBPruner@Gu@physx@@UEBAXAEAVPxRenderOutput@3@II@Z 000000018018e310 f   GuIncrementalAABBPruner.obj
 0001:0018d520       ??0PruningPool@Gu@physx@@QEAA@_KW4TransformCacheMode@12@@Z 000000018018e520 f   GuPruningPool.obj
 0001:0018d550       ??1PruningPool@Gu@physx@@QEAA@XZ 000000018018e550 f   GuPruningPool.obj
 0001:0018d620       ?addObjects@PruningPool@Gu@physx@@QEAAIPEAIPEBVPxBounds3@3@PEBUPrunerPayload@23@PEBV?$PxTransformT@M@3@I@Z 000000018018e620 f   GuPruningPool.obj
 0001:0018d810       ?preallocate@PruningPool@Gu@physx@@QEAAXI@Z 000000018018e810 f   GuPruningPool.obj
 0001:0018d820       ?removeObject@PruningPool@Gu@physx@@QEAAIIPEAUPrunerPayloadRemovalCallback@23@@Z 000000018018e820 f   GuPruningPool.obj
 0001:0018d990       ?resize@PruningPool@Gu@physx@@QEAA_NI@Z 000000018018e990 f   GuPruningPool.obj
 0001:0018dca0       ?shiftOrigin@PruningPool@Gu@physx@@QEAAXAEBV?$PxVec3T@M@3@@Z 000000018018eca0 f   GuPruningPool.obj
 0001:0018e070       ?updateAndInflateBounds@PruningPool@Gu@physx@@QEAAXPEBI0PEBVPxBounds3@3@PEBUPxTransformPadded@3@IM@Z 000000018018f070 f   GuPruningPool.obj
 0001:0018fa30       ??0BucketPruner@Gu@physx@@QEAA@_K@Z 0000000180190a30 f   GuBucketPruner.obj
 0001:0018fa80       ??0BucketPrunerCore@Gu@physx@@QEAA@_N@Z 0000000180190a80 f   GuBucketPruner.obj
 0001:0018fe10       ??1BucketPrunerCore@Gu@physx@@QEAA@XZ 0000000180190e10 f   GuBucketPruner.obj
 0001:0018fe30       ??R?$BucketPrunerOverlapTraversal@UBucketPrunerAABBAABBTest@@$00@@QEBA_NAEBVBucketPrunerCore@Gu@physx@@AEBUBucketPrunerAABBAABBTest@@AEAUPrunerOverlapCallback@23@AEBVPxBounds3@3@@Z 0000000180190e30 f i GuBucketPruner.obj
 0001:00190400       ??R?$BucketPrunerOverlapTraversal@UOBBAABBTest_SIMD@@$0A@@@QEBA_NAEBVBucketPrunerCore@Gu@physx@@AEBUOBBAABBTest_SIMD@@AEAUPrunerOverlapCallback@23@AEBVPxBounds3@3@@Z 0000000180191400 f i GuBucketPruner.obj
 0001:00190c60       ??R?$BucketPrunerOverlapTraversal@USphereAABBTest_SIMD@@$00@@QEBA_NAEBVBucketPrunerCore@Gu@physx@@AEBUSphereAABBTest_SIMD@@AEAUPrunerOverlapCallback@23@AEBVPxBounds3@3@@Z 0000000180191c60 f i GuBucketPruner.obj
 0001:00191210       ??_FBucketPrunerCore@Gu@physx@@QEAAXXZ 0000000180192210 f i GuBucketPruner.obj
 0001:00191220       ??_EBucketPruner@Gu@physx@@UEAAPEAXI@Z 0000000180192220 f i GuBucketPruner.obj
 0001:00191220       ??_GBucketPruner@Gu@physx@@UEAAPEAXI@Z 0000000180192220 f i GuBucketPruner.obj
 0001:001912c0       ?addObject@BucketPrunerCore@Gu@physx@@QEAA_NAEBUPrunerPayload@23@AEBVPxBounds3@3@AEBV?$PxTransformT@M@3@I@Z 00000001801922c0 f   GuBucketPruner.obj
 0001:001915f0       ?addObjects@BucketPruner@Gu@physx@@UEAA_NPEAIPEBVPxBounds3@3@PEBUPrunerPayload@23@PEBV?$PxTransformT@M@3@I_N@Z 00000001801925f0 f   GuBucketPruner.obj
 0001:00191680       ?addPair@BucketPrunerMap@Gu@physx@@QEAAPEAUBucketPrunerPair@23@AEBUPrunerPayload@23@II@Z 0000000180192680 f   GuBucketPruner.obj
 0001:00191870       ?allocateSortedMemory@BucketPrunerCore@Gu@physx@@AEAAXI@Z 0000000180192870 f   GuBucketPruner.obj
 0001:00191a30       ?classifyBoxes@BucketPrunerCore@Gu@physx@@AEAAXXZ 0000000180192a30 f   GuBucketPruner.obj
 0001:001922c0       ?classifyBoxes@BucketPrunerNode@Gu@physx@@QEAAXMMIPEIAUBucketBox@23@PEIBUPrunerPayload@23@PEIBV?$PxTransformT@M@3@0PEIAU523@PEIAV63@_NI@Z 00000001801932c0 f   GuBucketPruner.obj
 0001:00192bd0       ?build@CompanionPrunerBucket@@UEAAXXZ 0000000180193bd0 f   GuSecondaryPruner.obj
 0001:00192bd0       ?commit@BucketPruner@Gu@physx@@UEAAXXZ 0000000180193bd0 f   GuBucketPruner.obj
 0001:00192be0       ?findPair@BucketPrunerMap@Gu@physx@@QEBAPEBUBucketPrunerPair@23@AEBUPrunerPayload@23@@Z 0000000180193be0 f   GuBucketPruner.obj
 0001:00192fd0       ?getGlobalBounds@BucketPruner@Gu@physx@@UEBAXAEAVPxBounds3@3@@Z 0000000180193fd0 f   GuBucketPruner.obj
 0001:00193040       ?getGlobalBounds@BucketPrunerCore@Gu@physx@@QEBAXAEAVPxBounds3@3@@Z 0000000180194040 f   GuBucketPruner.obj
 0001:001930b0       ?getPayloadData@BucketPruner@Gu@physx@@UEBAAEBUPrunerPayload@23@IPEAUPrunerPayloadData@23@@Z 00000001801940b0 f i GuBucketPruner.obj
 0001:00193110       ?overlap@BucketPruner@Gu@physx@@UEBA_NAEBVShapeData@23@AEAUPrunerOverlapCallback@23@@Z 0000000180194110 f   GuBucketPruner.obj
 0001:00193130       ?overlap@BucketPrunerCore@Gu@physx@@QEBA_NAEBVShapeData@23@AEAUPrunerOverlapCallback@23@@Z 0000000180194130 f   GuBucketPruner.obj
 0001:00193420       ?preallocate@BucketPruner@Gu@physx@@UEAAXI@Z 0000000180194420 f i GuBucketPruner.obj
 0001:001935f0       ?purge@BucketPrunerMap@Gu@physx@@QEAAXXZ 00000001801945f0 f   GuBucketPruner.obj
 0001:00193690       ?raycast@BucketPruner@Gu@physx@@UEBA_NAEBV?$PxVec3T@M@3@0AEAMAEAUPrunerRaycastCallback@23@@Z 0000000180194690 f   GuBucketPruner.obj
 0001:001936e0       ?raycast@BucketPrunerCore@Gu@physx@@QEBA_NAEBV?$PxVec3T@M@3@0AEAMAEAUPrunerRaycastCallback@23@@Z 00000001801946e0 f   GuBucketPruner.obj
 0001:00193720       ?reallocPairs@BucketPrunerMap@Gu@physx@@QEAAXXZ 0000000180194720 f   GuBucketPruner.obj
 0001:00193970       ?release@BucketPrunerCore@Gu@physx@@QEAAXXZ 0000000180194970 f   GuBucketPruner.obj
 0001:00193ad0       ?removeMarkedObjects@BucketPrunerCore@Gu@physx@@QEAAII@Z 0000000180194ad0 f   GuBucketPruner.obj
 0001:00193ed0       ?removeObject@BucketPrunerCore@Gu@physx@@QEAA_NAEBUPrunerPayload@23@AEAI@Z 0000000180194ed0 f   GuBucketPruner.obj
 0001:001941a0       ?removeObjects@BucketPruner@Gu@physx@@UEAAXPEBIIPEAUPrunerPayloadRemovalCallback@23@@Z 00000001801951a0 f   GuBucketPruner.obj
 0001:00194250       ?removePair@BucketPrunerMap@Gu@physx@@QEAA_NAEBUPrunerPayload@23@AEAI1@Z 0000000180195250 f   GuBucketPruner.obj
 0001:001943d0       ?removePairInternal@BucketPrunerMap@Gu@physx@@QEAAXAEBUPrunerPayload@23@II@Z 00000001801953d0 f   GuBucketPruner.obj
 0001:00194570       ?resizeCore@BucketPrunerCore@Gu@physx@@AEAAXXZ 0000000180195570 f   GuBucketPruner.obj
 0001:001947e0       ?setTransform@BucketPruner@Gu@physx@@UEAA_NIAEBV?$PxTransformT@M@3@@Z 00000001801957e0 f i GuBucketPruner.obj
 0001:00194850       ?shiftOrigin@BucketPruner@Gu@physx@@UEAAXAEBV?$PxVec3T@M@3@@Z 0000000180195850 f   GuBucketPruner.obj
 0001:00194850       ?shiftOrigin@CompanionPrunerBucket@@UEAAXAEBV?$PxVec3T@M@physx@@@Z 0000000180195850 f   GuSecondaryPruner.obj
 0001:00194860       ?shiftOrigin@BucketPrunerCore@Gu@physx@@QEAAXAEBV?$PxVec3T@M@3@@Z 0000000180195860 f   GuBucketPruner.obj
 0001:001957a0       ?sweep@BucketPruner@Gu@physx@@UEBA_NAEBVShapeData@23@AEBV?$PxVec3T@M@3@AEAMAEAUPrunerRaycastCallback@23@@Z 00000001801967a0 f   GuBucketPruner.obj
 0001:001957c0       ?sweep@BucketPrunerCore@Gu@physx@@QEBA_NAEBVShapeData@23@AEBV?$PxVec3T@M@3@AEAMAEAUPrunerRaycastCallback@23@@Z 00000001801967c0 f   GuBucketPruner.obj
 0001:00195880       ?updateObject@BucketPrunerCore@Gu@physx@@QEAA_NAEBVPxBounds3@3@AEBUPrunerPayload@23@AEBV?$PxTransformT@M@3@@Z 0000000180196880 f   GuBucketPruner.obj
 0001:001958e0       ?updateObjects@BucketPruner@Gu@physx@@UEAAXPEBIIM0PEBVPxBounds3@3@PEBUPxTransformPadded@3@@Z 00000001801968e0 f   GuBucketPruner.obj
 0001:001959f0       ?visualize@BucketPruner@Gu@physx@@UEBAXAEAVPxRenderOutput@3@II@Z 00000001801969f0 f   GuBucketPruner.obj
 0001:001959f0       ?visualize@CompanionPrunerBucket@@UEBAXAEAVPxRenderOutput@physx@@I@Z 00000001801969f0 f   GuSecondaryPruner.obj
 0001:00195a00       ?visualize@BucketPrunerCore@Gu@physx@@QEBAXAEAVPxRenderOutput@3@I@Z 0000000180196a00 f   GuBucketPruner.obj
 0001:00195f20       ?addObject@MaverickNode@Gu@physx@@QEAA_NAEBUPrunerPayload@23@IAEBVPxBounds3@3@AEBV?$PxTransformT@M@3@I@Z 0000000180196f20 f   GuMaverickNode.obj
 0001:00196000       ?removeMarkedObjects@MaverickNode@Gu@physx@@QEAAII@Z 0000000180197000 f   GuMaverickNode.obj
 0001:00196190       ?removeObject@MaverickNode@Gu@physx@@QEAA_NIAEAI@Z 0000000180197190 f   GuMaverickNode.obj
 0001:00196320       ?shiftOrigin@MaverickNode@Gu@physx@@QEAAXAEBV?$PxVec3T@M@3@@Z 0000000180197320 f   GuMaverickNode.obj
 0001:00196430       ?updateObject@MaverickNode@Gu@physx@@QEAA_NIAEBVPxBounds3@3@AEBV?$PxTransformT@M@3@@Z 0000000180197430 f   GuMaverickNode.obj
 0001:00196510       ??0ExtendedBucketPruner@Gu@physx@@QEAA@_KW4CompanionPrunerType@12@PEBVPruningPool@12@@Z 0000000180197510 f   GuExtendedBucketPruner.obj
 0001:00196750       ??1ExtendedBucketPruner@Gu@physx@@QEAA@XZ 0000000180197750 f   GuExtendedBucketPruner.obj
 0001:001968d0       ??R?$AABBTreeOverlap@$00U?$OBBAABBTests@$00@Gu@physx@@VAABBTree@23@UBVHNode@23@U?$MainTreeOverlapPrunerCallback@U?$OBBAABBTests@$00@Gu@physx@@@@@Gu@physx@@QEAA_NAEBVAABBTreeBounds@12@AEBVAABBTree@12@AEBU?$OBBAABBTests@$00@12@AEAU?$MainTreeOverlapPrunerCallback@U?$OBBAABBTests@$00@Gu@physx@@@@@Z 00000001801978d0 f i GuExtendedBucketPruner.obj
 0001:00196eb0       ??R?$AABBTreeOverlap@$00U?$OBBAABBTests@$00@Gu@physx@@VAABBTree@23@UBVHNode@23@UOverlapCallbackAdapter@23@@Gu@physx@@QEAA_NAEBVAABBTreeBounds@12@AEBVAABBTree@12@AEBU?$OBBAABBTests@$00@12@AEAUOverlapCallbackAdapter@12@@Z 0000000180197eb0 f i GuExtendedBucketPruner.obj
 0001:00197460       ??R?$AABBTreeOverlap@$00UAABBAABBTest@Gu@physx@@VAABBTree@23@UBVHNode@23@U?$MainTreeOverlapPrunerCallback@UAABBAABBTest@Gu@physx@@@@@Gu@physx@@QEAA_NAEBVAABBTreeBounds@12@AEBVAABBTree@12@AEBUAABBAABBTest@12@AEAU?$MainTreeOverlapPrunerCallback@UAABBAABBTest@Gu@physx@@@@@Z 0000000180198460 f i GuExtendedBucketPruner.obj
 0001:00197710       ??R?$AABBTreeOverlap@$00UAABBAABBTest@Gu@physx@@VAABBTree@23@UBVHNode@23@UOverlapCallbackAdapter@23@@Gu@physx@@QEAA_NAEBVAABBTreeBounds@12@AEBVAABBTree@12@AEBUAABBAABBTest@12@AEAUOverlapCallbackAdapter@12@@Z 0000000180198710 f i GuExtendedBucketPruner.obj
 0001:001979a0       ??R?$AABBTreeOverlap@$00UCapsuleAABBTest@Gu@physx@@VAABBTree@23@UBVHNode@23@U?$MainTreeOverlapPrunerCallback@UCapsuleAABBTest@Gu@physx@@@@@Gu@physx@@QEAA_NAEBVAABBTreeBounds@12@AEBVAABBTree@12@AEBUCapsuleAABBTest@12@AEAU?$MainTreeOverlapPrunerCallback@UCapsuleAABBTest@Gu@physx@@@@@Z 00000001801989a0 f i GuExtendedBucketPruner.obj
 0001:00197d50       ??R?$AABBTreeOverlap@$00UCapsuleAABBTest@Gu@physx@@VAABBTree@23@UBVHNode@23@UOverlapCallbackAdapter@23@@Gu@physx@@QEAA_NAEBVAABBTreeBounds@12@AEBVAABBTree@12@AEBUCapsuleAABBTest@12@AEAUOverlapCallbackAdapter@12@@Z 0000000180198d50 f i GuExtendedBucketPruner.obj
 0001:001980e0       ??R?$AABBTreeOverlap@$00USphereAABBTest@Gu@physx@@VAABBTree@23@UBVHNode@23@U?$MainTreeOverlapPrunerCallback@USphereAABBTest@Gu@physx@@@@@Gu@physx@@QEAA_NAEBVAABBTreeBounds@12@AEBVAABBTree@12@AEBUSphereAABBTest@12@AEAU?$MainTreeOverlapPrunerCallback@USphereAABBTest@Gu@physx@@@@@Z 00000001801990e0 f i GuExtendedBucketPruner.obj
 0001:001983f0       ??R?$AABBTreeOverlap@$00USphereAABBTest@Gu@physx@@VAABBTree@23@UBVHNode@23@UOverlapCallbackAdapter@23@@Gu@physx@@QEAA_NAEBVAABBTreeBounds@12@AEBVAABBTree@12@AEBUSphereAABBTest@12@AEAUOverlapCallbackAdapter@12@@Z 00000001801993f0 f i GuExtendedBucketPruner.obj
 0001:001986e0       ??R?$AABBTreeRaycast@$00$00VAABBTree@Gu@physx@@UBVHNode@23@U?$MainTreeRaycastPrunerCallback@$00@@@Gu@physx@@QEAA_NAEBVAABBTreeBounds@12@AEBVAABBTree@12@AEBV?$PxVec3T@M@2@2AEAM2AEAU?$MainTreeRaycastPrunerCallback@$00@@@Z 00000001801996e0 f i GuExtendedBucketPruner.obj
 0001:00198e10       ??R?$AABBTreeRaycast@$00$00VAABBTree@Gu@physx@@UBVHNode@23@URaycastCallbackAdapter@23@@Gu@physx@@QEAA_NAEBVAABBTreeBounds@12@AEBVAABBTree@12@AEBV?$PxVec3T@M@2@2AEAM2AEAURaycastCallbackAdapter@12@@Z 0000000180199e10 f i GuExtendedBucketPruner.obj
 0001:001994f0       ??R?$AABBTreeRaycast@$0A@$00VAABBTree@Gu@physx@@UBVHNode@23@U?$MainTreeRaycastPrunerCallback@$0A@@@@Gu@physx@@QEAA_NAEBVAABBTreeBounds@12@AEBVAABBTree@12@AEBV?$PxVec3T@M@2@2AEAM2AEAU?$MainTreeRaycastPrunerCallback@$0A@@@@Z 000000018019a4f0 f i GuExtendedBucketPruner.obj
 0001:00199b60       ??R?$AABBTreeRaycast@$0A@$00VAABBTree@Gu@physx@@UBVHNode@23@URaycastCallbackAdapter@23@@Gu@physx@@QEAA_NAEBVAABBTreeBounds@12@AEBVAABBTree@12@AEBV?$PxVec3T@M@2@2AEAM2AEAURaycastCallbackAdapter@12@@Z 000000018019ab60 f i GuExtendedBucketPruner.obj
 0001:0019a1a0       ?addTree@ExtendedBucketPruner@Gu@physx@@QEAAXAEBVAABBTreeMergeData@23@I@Z 000000018019b1a0 f   GuExtendedBucketPruner.obj
 0001:0019a330       ?buildMainAABBTree@ExtendedBucketPruner@Gu@physx@@AEAAXXZ 000000018019b330 f   GuExtendedBucketPruner.obj
 0001:0019a3e0       ?create@?$PxHashBase@V?$PxPair@$$CBUPrunerPayload@Gu@physx@@UExtendedBucketPrunerData@23@@physx@@UPrunerPayload@Gu@2@UExtendedBucketPrunerHash@42@UGetKey@?$PxHashMapBase@UPrunerPayload@Gu@physx@@UExtendedBucketPrunerData@23@UExtendedBucketPrunerHash@23@VPxAllocator@3@@2@VPxAllocator@2@$00@physx@@QEAAPEAV?$PxPair@$$CBUPrunerPayload@Gu@physx@@UExtendedBucketPrunerData@23@@2@AEBUPrunerPayload@Gu@2@AEA_N@Z 000000018019b3e0 f i GuExtendedBucketPruner.obj
 0001:0019a5c0       ?eraseInternal@?$PxHashBase@V?$PxPair@$$CBUPrunerPayload@Gu@physx@@UExtendedBucketPrunerData@23@@physx@@UPrunerPayload@Gu@2@UExtendedBucketPrunerHash@42@UGetKey@?$PxHashMapBase@UPrunerPayload@Gu@physx@@UExtendedBucketPrunerData@23@UExtendedBucketPrunerHash@23@VPxAllocator@3@@2@VPxAllocator@2@$00@physx@@AEAA_NPEAI@Z 000000018019b5c0 f i GuExtendedBucketPruner.obj
 0001:0019a6d0       ?find@?$PxHashMapBase@UPrunerPayload@Gu@physx@@UExtendedBucketPrunerData@23@UExtendedBucketPrunerHash@23@VPxAllocator@3@@physx@@QEBAPEBV?$PxPair@$$CBUPrunerPayload@Gu@physx@@UExtendedBucketPrunerData@23@@2@AEBUPrunerPayload@Gu@2@@Z 000000018019b6d0 f i GuExtendedBucketPruner.obj
 0001:0019a7c0       ?getGlobalBounds@ExtendedBucketPruner@Gu@physx@@QEBAXAEAVPxBounds3@3@@Z 000000018019b7c0 f   GuExtendedBucketPruner.obj
 0001:0019a890       ?invalidateObject@ExtendedBucketPruner@Gu@physx@@AEAAXAEBUExtendedBucketPrunerData@23@IAEBUPrunerPayload@23@I@Z 000000018019b890 f   GuExtendedBucketPruner.obj
 0001:0019a9d0       ?overlap@ExtendedBucketPruner@Gu@physx@@QEBA_NAEBVShapeData@23@AEAUPrunerOverlapCallback@23@@Z 000000018019b9d0 f   GuExtendedBucketPruner.obj
 0001:0019b0b0       ?raycast@ExtendedBucketPruner@Gu@physx@@QEBA_NAEBV?$PxVec3T@M@3@0AEAMAEAUPrunerRaycastCallback@23@@Z 000000018019c0b0 f   GuExtendedBucketPruner.obj
 0001:0019b190       ?refitMarkedNodes@ExtendedBucketPruner@Gu@physx@@QEAAXPEBVPxBounds3@3@@Z 000000018019c190 f   GuExtendedBucketPruner.obj
 0001:0019b740       ?release@ExtendedBucketPruner@Gu@physx@@QEAAXXZ 000000018019c740 f   GuExtendedBucketPruner.obj
 0001:0019b810       ?removeMarkedObjects@ExtendedBucketPruner@Gu@physx@@QEAAII@Z 000000018019c810 f   GuExtendedBucketPruner.obj
 0001:0019bb30       ?removeObject@ExtendedBucketPruner@Gu@physx@@QEAA_NAEBUPrunerPayload@23@II0I@Z 000000018019cb30 f   GuExtendedBucketPruner.obj
 0001:0019bd20       ?reserveInternal@?$PxHashBase@V?$PxPair@$$CBUPrunerPayload@Gu@physx@@UExtendedBucketPrunerData@23@@physx@@UPrunerPayload@Gu@2@UExtendedBucketPrunerHash@42@UGetKey@?$PxHashMapBase@UPrunerPayload@Gu@physx@@UExtendedBucketPrunerData@23@UExtendedBucketPrunerHash@23@VPxAllocator@3@@2@VPxAllocator@2@$00@physx@@AEAAXI@Z 000000018019cd20 f i GuExtendedBucketPruner.obj
 0001:0019bf20       ?resize@ExtendedBucketPruner@Gu@physx@@AEAAXI@Z 000000018019cf20 f   GuExtendedBucketPruner.obj
 0001:0019c0d0       ?shiftOrigin@ExtendedBucketPruner@Gu@physx@@QEAAXAEBV?$PxVec3T@M@3@@Z 000000018019d0d0 f   GuExtendedBucketPruner.obj
 0001:0019c150       ?swapIndex@ExtendedBucketPruner@Gu@physx@@QEAAXIAEBUPrunerPayload@23@I_N@Z 000000018019d150 f   GuExtendedBucketPruner.obj
 0001:0019c220       ?sweep@ExtendedBucketPruner@Gu@physx@@QEBA_NAEBVShapeData@23@AEBV?$PxVec3T@M@3@AEAMAEAUPrunerRaycastCallback@23@@Z 000000018019d220 f   GuExtendedBucketPruner.obj
 0001:0019c3a0       ?updateObject@ExtendedBucketPruner@Gu@physx@@QEAA_NAEBVPxBounds3@3@AEBV?$PxTransformT@M@3@AEBUPrunerPayload@23@II@Z 000000018019d3a0 f   GuExtendedBucketPruner.obj
 0001:0019c470       ?visualize@ExtendedBucketPruner@Gu@physx@@QEBAXAEAVPxRenderOutput@3@I@Z 000000018019d470 f   GuExtendedBucketPruner.obj
 0001:0019c500       ??0?$OBBAABBTests@$00@Gu@physx@@QEAA@AEBV?$PxVec3T@M@2@AEBV?$PxMat33T@M@2@0@Z 000000018019d500 f i GuSecondaryPruner.obj
 0001:0019e3c0       ??_ECompanionPruner@Gu@physx@@UEAAPEAXI@Z 000000018019f3c0 f i GuSecondaryPruner.obj
 0001:0019e3c0       ??_GCompanionPruner@Gu@physx@@UEAAPEAXI@Z 000000018019f3c0 f i GuSecondaryPruner.obj
 0001:0019e420       ??_ECompanionPrunerAABBTree@@UEAAPEAXI@Z 000000018019f420 f i GuSecondaryPruner.obj
 0001:0019e420       ??_GCompanionPrunerAABBTree@@UEAAPEAXI@Z 000000018019f420 f i GuSecondaryPruner.obj
 0001:0019e4e0       ??_ECompanionPrunerBucket@@UEAAPEAXI@Z 000000018019f4e0 f i GuSecondaryPruner.obj
 0001:0019e4e0       ??_GCompanionPrunerBucket@@UEAAPEAXI@Z 000000018019f4e0 f i GuSecondaryPruner.obj
 0001:0019e560       ??_ECompanionPrunerIncremental@@UEAAPEAXI@Z 000000018019f560 f i GuSecondaryPruner.obj
 0001:0019e560       ??_GCompanionPrunerIncremental@@UEAAPEAXI@Z 000000018019f560 f i GuSecondaryPruner.obj
 0001:0019e5e0       ?addObject@CompanionPrunerAABBTree@@UEAA_NAEBUPrunerPayload@Gu@physx@@IAEBVPxBounds3@4@AEBV?$PxTransformT@M@4@II@Z 000000018019f5e0 f   GuSecondaryPruner.obj
 0001:0019e840       ?addObject@CompanionPrunerBucket@@UEAA_NAEBUPrunerPayload@Gu@physx@@IAEBVPxBounds3@4@AEBV?$PxTransformT@M@4@II@Z 000000018019f840 f i GuSecondaryPruner.obj
 0001:0019e860       ?addObject@CompanionPrunerIncremental@@UEAA_NAEBUPrunerPayload@Gu@physx@@IAEBVPxBounds3@4@AEBV?$PxTransformT@M@4@II@Z 000000018019f860 f i GuSecondaryPruner.obj
 0001:0019e880       ?addObjectInternal@CompanionPrunerAABBTree@@QEAA_NII@Z 000000018019f880 f   GuSecondaryPruner.obj
 0001:0019ea30       ?build@CompanionPrunerAABBTree@@UEAAXXZ 000000018019fa30 f   GuSecondaryPruner.obj
 0001:0019ef20       ?createCompanionPruner@Gu@physx@@YAPEAVCompanionPruner@12@_KW4CompanionPrunerType@12@PEBVPruningPool@12@@Z 000000018019ff20 f   GuSecondaryPruner.obj
 0001:0019f120       ?getGlobalBounds@CompanionPrunerAABBTree@@UEBAXAEAVPxBounds3@physx@@@Z 00000001801a0120 f   GuSecondaryPruner.obj
 0001:0019f210       ?getGlobalBounds@CompanionPrunerBucket@@UEBAXAEAVPxBounds3@physx@@@Z 00000001801a0210 f i GuSecondaryPruner.obj
 0001:0019f220       ?getGlobalBounds@CompanionPrunerIncremental@@UEBAXAEAVPxBounds3@physx@@@Z 00000001801a0220 f i GuSecondaryPruner.obj
 0001:0019f230       ?getNbObjects@CompanionPrunerAABBTree@@UEBAIXZ 00000001801a0230 f   GuSecondaryPruner.obj
 0001:0019f240       ?getNbObjects@CompanionPrunerBucket@@UEBAIXZ 00000001801a0240 f i GuSecondaryPruner.obj
 0001:0019f250       ?getNbObjects@CompanionPrunerIncremental@@UEBAIXZ 00000001801a0250 f i GuSecondaryPruner.obj
 0001:0019f260       ?growAndPushBack@?$PxArray@ULocalData@CompanionPrunerAABBTree@@V?$PxReflectionAllocator@ULocalData@CompanionPrunerAABBTree@@@physx@@@physx@@IEAAAEAULocalData@CompanionPrunerAABBTree@@AEBU34@@Z 00000001801a0260 f i GuSecondaryPruner.obj
 0001:0019f380       ?overlap@CompanionPrunerAABBTree@@UEBA_NAEBVShapeData@Gu@physx@@AEAUPrunerOverlapCallback@34@@Z 00000001801a0380 f   GuSecondaryPruner.obj
 0001:001a0270       ?overlap@CompanionPrunerBucket@@UEBA_NAEBVShapeData@Gu@physx@@AEAUPrunerOverlapCallback@34@@Z 00000001801a1270 f i GuSecondaryPruner.obj
 0001:001a0290       ?overlap@CompanionPrunerIncremental@@UEBA_NAEBVShapeData@Gu@physx@@AEAUPrunerOverlapCallback@34@@Z 00000001801a1290 f i GuSecondaryPruner.obj
 0001:001a02b0       ?raycast@CompanionPrunerAABBTree@@UEBA_NAEBV?$PxVec3T@M@physx@@0AEAMAEAUPrunerRaycastCallback@Gu@3@@Z 00000001801a12b0 f   GuSecondaryPruner.obj
 0001:001a0660       ?raycast@CompanionPrunerBucket@@UEBA_NAEBV?$PxVec3T@M@physx@@0AEAMAEAUPrunerRaycastCallback@Gu@3@@Z 00000001801a1660 f i GuSecondaryPruner.obj
 0001:001a0680       ?raycast@CompanionPrunerIncremental@@UEBA_NAEBV?$PxVec3T@M@physx@@0AEAMAEAUPrunerRaycastCallback@Gu@3@@Z 00000001801a1680 f i GuSecondaryPruner.obj
 0001:001a06a0       ?release@CompanionPrunerAABBTree@@UEAAXXZ 00000001801a16a0 f   GuSecondaryPruner.obj
 0001:001a06b0       ?release@CompanionPrunerBucket@@UEAAXXZ 00000001801a16b0 f i GuSecondaryPruner.obj
 0001:001a06c0       ?release@CompanionPrunerIncremental@@UEAAXXZ 00000001801a16c0 f i GuSecondaryPruner.obj
 0001:001a06d0       ?releaseInternal@CompanionPrunerAABBTree@@QEAAXXZ 00000001801a16d0 f   GuSecondaryPruner.obj
 0001:001a0750       ?removeMarkedObjects@CompanionPrunerAABBTree@@UEAAII@Z 00000001801a1750 f   GuSecondaryPruner.obj
 0001:001a0770       ?removeMarkedObjects@CompanionPrunerBucket@@UEAAII@Z 00000001801a1770 f i GuSecondaryPruner.obj
 0001:001a0780       ?removeMarkedObjects@CompanionPrunerIncremental@@UEAAII@Z 00000001801a1780 f i GuSecondaryPruner.obj
 0001:001a0790       ?removeObject@CompanionPrunerAABBTree@@UEAA_NAEBUPrunerPayload@Gu@physx@@III@Z 00000001801a1790 f   GuSecondaryPruner.obj
 0001:001a0830       ?removeObject@CompanionPrunerBucket@@UEAA_NAEBUPrunerPayload@Gu@physx@@III@Z 00000001801a1830 f i GuSecondaryPruner.obj
 0001:001a0850       ?removeObject@CompanionPrunerIncremental@@UEAA_NAEBUPrunerPayload@Gu@physx@@III@Z 00000001801a1850 f i GuSecondaryPruner.obj
 0001:001a0870       ?shiftOrigin@CompanionPrunerAABBTree@@UEAAXAEBV?$PxVec3T@M@physx@@@Z 00000001801a1870 f   GuSecondaryPruner.obj
 0001:001a0970       ?shiftOrigin@CompanionPrunerIncremental@@UEAAXAEBV?$PxVec3T@M@physx@@@Z 00000001801a1970 f i GuSecondaryPruner.obj
 0001:001a0980       ?swapIndex@CompanionPrunerIncremental@@UEAAXII@Z 00000001801a1980 f i GuSecondaryPruner.obj
 0001:001a0990       ?sweep@CompanionPrunerAABBTree@@UEBA_NAEBVShapeData@Gu@physx@@AEBV?$PxVec3T@M@4@AEAMAEAUPrunerRaycastCallback@34@@Z 00000001801a1990 f   GuSecondaryPruner.obj
 0001:001a0e70       ?sweep@CompanionPrunerBucket@@UEBA_NAEBVShapeData@Gu@physx@@AEBV?$PxVec3T@M@4@AEAMAEAUPrunerRaycastCallback@34@@Z 00000001801a1e70 f i GuSecondaryPruner.obj
 0001:001a0e90       ?sweep@CompanionPrunerIncremental@@UEBA_NAEBVShapeData@Gu@physx@@AEBV?$PxVec3T@M@4@AEAMAEAUPrunerRaycastCallback@34@@Z 00000001801a1e90 f i GuSecondaryPruner.obj
 0001:001a0eb0       ?timeStampChange@CompanionPrunerIncremental@@UEAAXXZ 00000001801a1eb0 f i GuSecondaryPruner.obj
 0001:001a0ed0       ?updateObject@CompanionPrunerAABBTree@@UEAA_NAEBUPrunerPayload@Gu@physx@@IAEBVPxBounds3@4@AEBV?$PxTransformT@M@4@I@Z 00000001801a1ed0 f   GuSecondaryPruner.obj
 0001:001a0f50       ?updateObject@CompanionPrunerBucket@@UEAA_NAEBUPrunerPayload@Gu@physx@@IAEBVPxBounds3@4@AEBV?$PxTransformT@M@4@I@Z 00000001801a1f50 f i GuSecondaryPruner.obj
 0001:001a0f70       ?updateObject@CompanionPrunerIncremental@@UEAA_NAEBUPrunerPayload@Gu@physx@@IAEBVPxBounds3@4@AEBV?$PxTransformT@M@4@I@Z 00000001801a1f70 f i GuSecondaryPruner.obj
 0001:001a0f80       ?visualize@CompanionPrunerAABBTree@@UEBAXAEAVPxRenderOutput@physx@@I@Z 00000001801a1f80 f   GuSecondaryPruner.obj
 0001:001a0fa0       ?visualize@CompanionPrunerIncremental@@UEBAXAEAVPxRenderOutput@physx@@I@Z 00000001801a1fa0 f i GuSecondaryPruner.obj
 0001:001a0fb0       ??0AABBPruner@Gu@physx@@QEAA@_N_KW4CompanionPrunerType@12@W4BVHBuildStrategy@12@I@Z 00000001801a1fb0 f   GuAABBPruner.obj
 0001:001a10e0       ??1AABBPruner@Gu@physx@@UEAA@XZ 00000001801a20e0 f   GuAABBPruner.obj
 0001:001a1250       ??_EAABBPruner@Gu@physx@@UEAAPEAXI@Z 00000001801a2250 f i GuAABBPruner.obj
 0001:001a1250       ??_GAABBPruner@Gu@physx@@UEAAPEAXI@Z 00000001801a2250 f i GuAABBPruner.obj
 0001:001a12c0       ?addObjects@AABBPruner@Gu@physx@@UEAA_NPEAIPEBVPxBounds3@3@PEBUPrunerPayload@23@PEBV?$PxTransformT@M@3@I_N@Z 00000001801a22c0 f   GuAABBPruner.obj
 0001:001a1420       ?buildStep@AABBPruner@Gu@physx@@UEAA_N_N@Z 00000001801a2420 f   GuAABBPruner.obj
 0001:001a1650       ?commit@AABBPruner@Gu@physx@@UEAAXXZ 00000001801a2650 f   GuAABBPruner.obj
 0001:001a1a60       ?getGlobalBounds@AABBPruner@Gu@physx@@UEBAXAEAVPxBounds3@3@@Z 00000001801a2a60 f   GuAABBPruner.obj
 0001:001a1b80       ?getPayloadData@AABBPruner@Gu@physx@@UEBAAEBUPrunerPayload@23@IPEAUPrunerPayloadData@23@@Z 00000001801a2b80 f i GuAABBPruner.obj
 0001:001a1be0       ?growAndPushBack@?$PxArray@UNewTreeFixup@AABBPruner@Gu@physx@@V?$PxReflectionAllocator@UNewTreeFixup@AABBPruner@Gu@physx@@@4@@physx@@IEAAAEAUNewTreeFixup@AABBPruner@Gu@2@AEBU3452@@Z 00000001801a2be0 f i GuAABBPruner.obj
 0001:001a1d00       ?isDynamic@AABBPruner@Gu@physx@@UEBA_NXZ 00000001801a2d00 f i GuAABBPruner.obj
 0001:001a1d10       ?merge@AABBPruner@Gu@physx@@UEAAXPEBX@Z 00000001801a2d10 f   GuAABBPruner.obj
 0001:001a1d90       ?overlap@AABBPruner@Gu@physx@@UEBA_NAEBVShapeData@23@AEAUPrunerOverlapCallback@23@@Z 00000001801a2d90 f   GuAABBPruner.obj
 0001:001a2370       ?preallocate@AABBPruner@Gu@physx@@UEAAXI@Z 00000001801a3370 f i GuAABBPruner.obj
 0001:001a2380       ?prepareBuild@AABBPruner@Gu@physx@@UEAA_NXZ 00000001801a3380 f   GuAABBPruner.obj
 0001:001a2510       ?purge@AABBPruner@Gu@physx@@UEAAXXZ 00000001801a3510 f   GuAABBPruner.obj
 0001:001a2530       ?raycast@AABBPruner@Gu@physx@@UEBA_NAEBV?$PxVec3T@M@3@0AEAMAEAUPrunerRaycastCallback@23@@Z 00000001801a3530 f   GuAABBPruner.obj
 0001:001a2620       ?release@AABBPruner@Gu@physx@@QEAAXXZ 00000001801a3620 f   GuAABBPruner.obj
 0001:001a2760       ?removeObjects@AABBPruner@Gu@physx@@UEAAXPEBIIPEAUPrunerPayloadRemovalCallback@23@@Z 00000001801a3760 f   GuAABBPruner.obj
 0001:001a2950       ?setRebuildRateHint@AABBPruner@Gu@physx@@UEAAXI@Z 00000001801a3950 f   GuAABBPruner.obj
 0001:001a2970       ?setTransform@AABBPruner@Gu@physx@@UEAA_NIAEBV?$PxTransformT@M@3@@Z 00000001801a3970 f i GuAABBPruner.obj
 0001:001a29e0       ?shiftOrigin@AABBPruner@Gu@physx@@UEAAXAEBV?$PxVec3T@M@3@@Z 00000001801a39e0 f   GuAABBPruner.obj
 0001:001a2a50       ?sweep@AABBPruner@Gu@physx@@UEBA_NAEBVShapeData@23@AEBV?$PxVec3T@M@3@AEAMAEAUPrunerRaycastCallback@23@@Z 00000001801a3a50 f   GuAABBPruner.obj
 0001:001a2bd0       ?updateObjects@AABBPruner@Gu@physx@@UEAAXPEBIIM0PEBVPxBounds3@3@PEBUPxTransformPadded@3@@Z 00000001801a3bd0 f   GuAABBPruner.obj
 0001:001a2d90       ?visualize@AABBPruner@Gu@physx@@UEBAXAEAVPxRenderOutput@3@II@Z 00000001801a3d90 f   GuAABBPruner.obj
 0001:001a2e40       ??0ActorShapeMap@Gu@physx@@QEAA@XZ 00000001801a3e40 f   GuActorShapeMap.obj
 0001:001a2ea0       ??1ActorShapeMap@Gu@physx@@QEAA@XZ 00000001801a3ea0 f   GuActorShapeMap.obj
 0001:001a2f00       ?add@ActorShapeMap@Gu@physx@@QEAA_NIPEBX0_K@Z 00000001801a3f00 f   GuActorShapeMap.obj
 0001:001a30b0       ?create@?$PxHashBase@V?$PxPair@$$CBUActorShape@ActorShapeMap@Gu@physx@@_K@physx@@UActorShape@ActorShapeMap@Gu@2@U?$PxHash@UActorShape@ActorShapeMap@Gu@physx@@@2@UGetKey@?$PxHashMapBase@UActorShape@ActorShapeMap@Gu@physx@@_KU?$PxHash@UActorShape@ActorShapeMap@Gu@physx@@@4@VPxAllocator@4@@2@VPxAllocator@2@$00@physx@@QEAAPEAV?$PxPair@$$CBUActorShape@ActorShapeMap@Gu@physx@@_K@2@AEBUActorShape@ActorShapeMap@Gu@2@AEA_N@Z 00000001801a40b0 f i GuActorShapeMap.obj
 0001:001a3290       ?erase@?$PxHashBase@V?$PxPair@$$CBUActorShape@ActorShapeMap@Gu@physx@@_K@physx@@UActorShape@ActorShapeMap@Gu@2@U?$PxHash@UActorShape@ActorShapeMap@Gu@physx@@@2@UGetKey@?$PxHashMapBase@UActorShape@ActorShapeMap@Gu@physx@@_KU?$PxHash@UActorShape@ActorShapeMap@Gu@physx@@@4@VPxAllocator@4@@2@VPxAllocator@2@$00@physx@@QEAA_NAEBUActorShape@ActorShapeMap@Gu@2@AEAV?$PxPair@$$CBUActorShape@ActorShapeMap@Gu@physx@@_K@2@@Z 00000001801a4290 f i GuActorShapeMap.obj
 0001:001a34a0       ?find@ActorShapeMap@Gu@physx@@QEBA_KIPEBX0@Z 00000001801a44a0 f   GuActorShapeMap.obj
 0001:001a3590       ?remove@ActorShapeMap@Gu@physx@@QEAA_NIPEBX0PEA_K@Z 00000001801a4590 f   GuActorShapeMap.obj
 0001:001a3620       ?reserveInternal@?$PxHashBase@V?$PxPair@$$CBUActorShape@ActorShapeMap@Gu@physx@@_K@physx@@UActorShape@ActorShapeMap@Gu@2@U?$PxHash@UActorShape@ActorShapeMap@Gu@physx@@@2@UGetKey@?$PxHashMapBase@UActorShape@ActorShapeMap@Gu@physx@@_KU?$PxHash@UActorShape@ActorShapeMap@Gu@physx@@@4@VPxAllocator@4@@2@VPxAllocator@2@$00@physx@@AEAAXI@Z 00000001801a4620 f i GuActorShapeMap.obj
 0001:001a3820       ??0QuerySystem@Gu@physx@@QEAA@_KMAEBVAdapter@12@_N@Z 00000001801a4820 f   GuQuerySystem.obj
 0001:001a38f0       ??1QuerySystem@Gu@physx@@QEAA@XZ 00000001801a48f0 f   GuQuerySystem.obj
 0001:001a3b20       ??_GPrunerExt@QuerySystem@Gu@physx@@QEAAPEAXI@Z 00000001801a4b20 f i GuQuerySystem.obj
 0001:001a3c40       ?addPruner@QuerySystem@Gu@physx@@QEAAIPEAVPruner@23@I@Z 00000001801a4c40 f   GuQuerySystem.obj
 0001:001a3d60       ?addPrunerShape@QuerySystem@Gu@physx@@QEAA_KAEBUPrunerPayload@23@I_NAEBV?$PxTransformT@M@3@PEBVPxBounds3@3@@Z 00000001801a4d60 f   GuQuerySystem.obj
 0001:001a3eb0       ?addToDirtyList@PrunerExt@QuerySystem@Gu@physx@@QEAAXIIAEBV?$PxTransformT@M@4@PEBVPxBounds3@4@@Z 00000001801a4eb0 f   GuQuerySystem.obj
 0001:001a4110       ?commitUpdates@QuerySystem@Gu@physx@@QEAAXXZ 00000001801a5110 f   GuQuerySystem.obj
 0001:001a41c0       ?createTreeOfPruners@QuerySystem@Gu@physx@@QEAAXXZ 00000001801a51c0 f   GuQuerySystem.obj
 0001:001a4330       ?flushMemory@QuerySystem@Gu@physx@@QEAAXXZ 00000001801a5330 f   GuQuerySystem.obj
 0001:001a43c0       ?getPayloadData@QuerySystem@Gu@physx@@QEBAAEBUPrunerPayload@23@_KPEAUPrunerPayloadData@23@@Z 00000001801a53c0 f   GuQuerySystem.obj
 0001:001a43e0       ?growAndPushBack@?$PxArray@PEAUPrunerExt@QuerySystem@Gu@physx@@V?$PxReflectionAllocator@PEAUPrunerExt@QuerySystem@Gu@physx@@@4@@physx@@IEAAAEAPEAUPrunerExt@QuerySystem@Gu@2@AEBQEAU3452@@Z 00000001801a53e0 f i GuQuerySystem.obj
 0001:001a4500       ?overlap@QuerySystem@Gu@physx@@QEBAXAEBVShapeData@23@AEAUPrunerOverlapCallback@23@PEBVPrunerFilter@23@@Z 00000001801a5500 f   GuQuerySystem.obj
 0001:001a4600       ?processDirtyLists@QuerySystem@Gu@physx@@AEAAXXZ 00000001801a5600 f   GuQuerySystem.obj
 0001:001a48e0       ?raycast@QuerySystem@Gu@physx@@QEBAXAEBV?$PxVec3T@M@3@0AEAMAEAUPrunerRaycastCallback@23@PEBVPrunerFilter@23@@Z 00000001801a58e0 f   GuQuerySystem.obj
 0001:001a4a10       ?recreate@?$PxArray@UData@PrunerExt@QuerySystem@Gu@physx@@V?$PxReflectionAllocator@UData@PrunerExt@QuerySystem@Gu@physx@@@5@@physx@@IEAAXI@Z 00000001801a5a10 f i GuQuerySystem.obj
 0001:001a4db0       ?removePruner@QuerySystem@Gu@physx@@QEAAXI@Z 00000001801a5db0 f   GuQuerySystem.obj
 0001:001a4e90       ?removePrunerShape@QuerySystem@Gu@physx@@QEAAX_KPEAUPrunerPayloadRemovalCallback@23@@Z 00000001801a5e90 f   GuQuerySystem.obj
 0001:001a50f0       ?sweep@QuerySystem@Gu@physx@@QEBAXAEBVShapeData@23@AEBV?$PxVec3T@M@3@AEAMAEAUPrunerRaycastCallback@23@PEBVPrunerFilter@23@@Z 00000001801a60f0 f   GuQuerySystem.obj
 0001:001a5220       ?sync@QuerySystem@Gu@physx@@QEAAXIPEBI0PEBVPxBounds3@3@PEBUPxTransformPadded@3@I@Z 00000001801a6220 f   GuQuerySystem.obj
 0001:001a52d0       ?update@QuerySystem@Gu@physx@@QEAAX_N0@Z 00000001801a62d0 f   GuQuerySystem.obj
 0001:001a53a0       ?updatePrunerShape@QuerySystem@Gu@physx@@QEAAX_K_NAEBV?$PxTransformT@M@3@PEBVPxBounds3@3@@Z 00000001801a63a0 f   GuQuerySystem.obj
 0001:001a5590       createAABBPruner           00000001801a6590 f   GuFactory.obj
 0001:001a5650       createBucketPruner         00000001801a6650 f   GuFactory.obj
 0001:001a56e0       createIncrementalPruner    00000001801a66e0 f   GuFactory.obj
 0001:001a5770       ??$PxSmallSort@I$$CBUSortBoundsPredicate@physx@@@physx@@YAXPEAIHHAEBUSortBoundsPredicate@0@@Z 00000001801a6770 f i GuRTreeCooking.obj
 0001:001a59d0       ??$PxSort@IU?$PxLess@I@physx@@V?$PxReflectionAllocator@I@2@@physx@@YAXPEAIIAEBU?$PxLess@I@0@AEBV?$PxReflectionAllocator@I@0@I@Z 00000001801a69d0 f i GuRTreeCooking.obj
 0001:001a5e50       ??$PxSort@IUSortBoundsPredicate@physx@@V?$PxReflectionAllocator@I@2@@physx@@YAXPEAIIAEBUSortBoundsPredicate@0@AEBV?$PxReflectionAllocator@I@0@I@Z 00000001801a6e50 f i GuRTreeCooking.obj
 0001:001a6370       ??$quickSelectFirstK@UBoundsLTE@physx@@@quickSelect@physx@@YAXPEIAIIIIAEBUBoundsLTE@1@@Z 00000001801a7370 f i GuRTreeCooking.obj
 0001:001a6540       ?allocate@?$PxArray@UInterval@physx@@V?$PxInlineAllocator@$0CAAA@V?$PxReflectionAllocator@UInterval@physx@@@physx@@@2@@physx@@IEAAPEAUInterval@2@IPEAI@Z 00000001801a7540 f i GuRTreeCooking.obj
 0001:001a7310       ?buildFromTriangles@RTreeCooker@physx@@SAXAEAURTree@Gu@2@PEBV?$PxVec3T@M@2@IPEBGPEBIIAEAV?$PxArray@IV?$PxReflectionAllocator@I@physx@@@2@PEAURemapCallback@12@MW4Enum@PxMeshCookingHint@2@@Z 00000001801a8310 f   GuRTreeCooking.obj
 0001:001a75d0       ?copy@?$PxArray@URTreeNodeNQ@physx@@V?$PxReflectionAllocator@URTreeNodeNQ@physx@@@2@@physx@@KAXPEAURTreeNodeNQ@2@0PEBU32@@Z 00000001801a85d0 f i GuRTreeCooking.obj
 0001:001a7770       ?growAndPushBack@?$PxArray@UInterval@physx@@V?$PxInlineAllocator@$0CAAA@V?$PxReflectionAllocator@UInterval@physx@@@physx@@@2@@physx@@IEAAAEAUInterval@2@AEBU32@@Z 00000001801a8770 f i GuRTreeCooking.obj
 0001:001a7860       ?growAndPushBack@?$PxArray@UPxBounds3V@physx@@V?$PxReflectionAllocator@UPxBounds3V@physx@@@2@@physx@@IEAAAEAUPxBounds3V@2@AEBU32@@Z 00000001801a8860 f i GuRTreeCooking.obj
 0001:001a7990       ?growAndPushBack@?$PxArray@URTreeNodeNQ@physx@@V?$PxReflectionAllocator@URTreeNodeNQ@physx@@@2@@physx@@IEAAAEAURTreeNodeNQ@2@AEBU32@@Z 00000001801a8990 f i GuRTreeCooking.obj
 0001:001a7ae0       ?growAndPushBack@?$PxArray@URTreeNodeQ@Gu@physx@@V?$PxReflectionAllocator@URTreeNodeQ@Gu@physx@@@3@@physx@@IEAAAEAURTreeNodeQ@Gu@2@AEBU342@@Z 00000001801a8ae0 f i GuRTreeCooking.obj
 0001:001a7c20       ?recreate@?$PxArray@UPxBounds3V@physx@@V?$PxReflectionAllocator@UPxBounds3V@physx@@@2@@physx@@IEAAXI@Z 00000001801a8c20 f i GuRTreeCooking.obj
 0001:001a7d30       ?recreate@?$PxArray@URTreeNodeNQ@physx@@V?$PxReflectionAllocator@URTreeNodeNQ@physx@@@2@@physx@@IEAAXI@Z 00000001801a8d30 f i GuRTreeCooking.obj
 0001:001a7e10       ?recreate@?$PxArray@URTreeNodeQ@Gu@physx@@V?$PxReflectionAllocator@URTreeNodeQ@Gu@physx@@@3@@physx@@IEAAXI@Z 00000001801a8e10 f i GuRTreeCooking.obj
 0001:001a7f20       ?resizeUninitialized@?$PxArray@URTreeNodeNQ@physx@@V?$PxReflectionAllocator@URTreeNodeNQ@physx@@@2@@physx@@QEAAXI@Z 00000001801a8f20 f i GuRTreeCooking.obj
 0001:001a7f60       ?sort4@SubSortQuick@physx@@QEAAXPEIAIIAEAV?$PxArray@URTreeNodeNQ@physx@@V?$PxReflectionAllocator@URTreeNodeNQ@physx@@@2@@2@AEAIAEAUPxBounds3V@2@I@Z 00000001801a8f60 f i GuRTreeCooking.obj
 0001:001a8300       ?sort4@SubSortSAH@physx@@QEAAXPEAIIAEAV?$PxArray@URTreeNodeNQ@physx@@V?$PxReflectionAllocator@URTreeNodeNQ@physx@@@2@@2@AEAIIPEAURTreeNodeNQ@2@@Z 00000001801a9300 f i GuRTreeCooking.obj
 0001:001a8c40       ?split@SubSortSAH@physx@@QEAAIPEAII@Z 00000001801a9c40 f i GuRTreeCooking.obj
 0001:001a9720       cookBVH                    00000001801aa720 f   GuCookingBVH.obj
 0001:001a98b0       createBVH                  00000001801aa8b0 f   GuCookingBVH.obj
 0001:001a9a40       cookHeightField            00000001801aaa40 f   GuCookingHF.obj
 0001:001a9b50       createHeightField          00000001801aab50 f   GuCookingHF.obj
 0001:001aa1e0       ?isFinite@?$PxVec3T@M@physx@@QEBA_NXZ 00000001801ab1e0 f i GuCookingConvexMesh.obj
 0001:001aa240       computeHullPolygons        00000001801ab240 f   GuCookingConvexMesh.obj
 0001:001aa430       cookConvexMesh             00000001801ab430 f   GuCookingConvexMesh.obj
 0001:001aa570       createConvexMesh           00000001801ab570 f   GuCookingConvexMesh.obj
 0001:001aa6f0       validateConvexMesh         00000001801ab6f0 f   GuCookingConvexMesh.obj
 0001:001aa840       ??1BV4TriangleMeshBuilder@physx@@UEAA@XZ 00000001801ab840 f   GuCookingTriangleMesh.obj
 0001:001aa8d0       ??1RTreeTriangleMeshBuilder@physx@@UEAA@XZ 00000001801ab8d0 f   GuCookingTriangleMesh.obj
 0001:001aa940       ??_EBV4TriangleMeshBuilder@physx@@UEAAPEAXI@Z 00000001801ab940 f i GuCookingTriangleMesh.obj
 0001:001aa940       ??_GBV4TriangleMeshBuilder@physx@@UEAAPEAXI@Z 00000001801ab940 f i GuCookingTriangleMesh.obj
 0001:001aa980       ??_ERTreeTriangleMeshBuilder@physx@@UEAAPEAXI@Z 00000001801ab980 f i GuCookingTriangleMesh.obj
 0001:001aa980       ??_GRTreeTriangleMeshBuilder@physx@@UEAAPEAXI@Z 00000001801ab980 f i GuCookingTriangleMesh.obj
 0001:001aa9c0       ??_ETriangleMeshBuilder@physx@@UEAAPEAXI@Z 00000001801ab9c0 f i GuCookingTriangleMesh.obj
 0001:001aa9c0       ??_GTriangleMeshBuilder@physx@@UEAAPEAXI@Z 00000001801ab9c0 f i GuCookingTriangleMesh.obj
 0001:001aaef0       ?buildInertiaTensor@TriangleMeshBuilder@physx@@IEAAX_N@Z 00000001801abef0 f   GuCookingTriangleMesh.obj
 0001:001ab050       ?buildInertiaTensorFromSDF@TriangleMeshBuilder@physx@@IEAAXXZ 00000001801ac050 f   GuCookingTriangleMesh.obj
 0001:001ab290       ?checkMeshIndicesSize@TriangleMeshBuilder@physx@@QEAAXXZ 00000001801ac290 f   GuCookingTriangleMesh.obj
 0001:001ab5c0       ?cleanMesh@TriangleMeshBuilder@physx@@QEAA_N_NPEAW4Enum@PxTriangleMeshCookingResult@2@@Z 00000001801ac5c0 f   GuCookingTriangleMesh.obj
 0001:001abab0       ?createGRBMidPhaseAndData@TriangleMeshBuilder@physx@@QEAA_NI@Z 00000001801acab0 f   GuCookingTriangleMesh.obj
 0001:001abc70       ?createMidPhaseStructure@BV32TriangleMeshBuilder@physx@@SA_NAEBUPxCookingParams@2@AEAVTriangleMeshData@Gu@2@AEAVBV32Tree@52@@Z 00000001801acc70 f   GuCookingTriangleMesh.obj
 0001:001abec0       ?createMidPhaseStructure@BV4TriangleMeshBuilder@physx@@UEAA_NXZ 00000001801acec0 f   GuCookingTriangleMesh.obj
 0001:001ac170       ?createMidPhaseStructure@RTreeTriangleMeshBuilder@physx@@UEAA_NXZ 00000001801ad170 f   GuCookingTriangleMesh.obj
 0001:001ac260       ?createSharedEdgeData@TriangleMeshBuilder@physx@@QEAAX_N0@Z 00000001801ad260 f   GuCookingTriangleMesh.obj
 0001:001ac800       ?createVertMapping@TriangleMeshBuilder@physx@@QEAAXXZ 00000001801ad800 f   GuCookingTriangleMesh.obj
 0001:001acb70       ?importMesh@TriangleMeshBuilder@physx@@IEAA_NAEBVPxTriangleMeshDesc@2@PEAW4Enum@PxTriangleMeshCookingResult@2@_N@Z 00000001801adb70 f   GuCookingTriangleMesh.obj
 0001:001ad0d0       ?isValid@PxTriangleMeshDesc@physx@@QEBA_NXZ 00000001801ae0d0 f i GuCookingTriangleMesh.obj
 0001:001ad1a0       ?loadFromDescInternal@TriangleMeshBuilder@physx@@IEAA_NAEAVPxTriangleMeshDesc@2@PEAW4Enum@PxTriangleMeshCookingResult@2@_N@Z 00000001801ae1a0 f   GuCookingTriangleMesh.obj
 0001:001ad3d0       ?onMeshIndexFormatChange@BV4TriangleMeshBuilder@physx@@UEAAXXZ 00000001801ae3d0 f   GuCookingTriangleMesh.obj
 0001:001ad410       ?remap@RTreeCookerRemap@@UEAAXPEAIII@Z 00000001801ae410 f i GuCookingTriangleMesh.obj
 0001:001ad430       ?remapTopology@TriangleMeshBuilder@physx@@QEAAXPEBI@Z 00000001801ae430 f   GuCookingTriangleMesh.obj
 0001:001ad6d0       ?save@TriangleMeshBuilder@physx@@QEBA_NAEAVPxOutputStream@2@_NAEBUPxCookingParams@2@@Z 00000001801ae6d0 f   GuCookingTriangleMesh.obj
 0001:001ade80       ?saveMidPhaseStructure@BV32TriangleMeshBuilder@physx@@SAXPEAVBV32Tree@Gu@2@AEAVPxOutputStream@2@_N@Z 00000001801aee80 f   GuCookingTriangleMesh.obj
 0001:001ae080       ?saveMidPhaseStructure@BV4TriangleMeshBuilder@physx@@UEBAXAEAVPxOutputStream@2@_N@Z 00000001801af080 f   GuCookingTriangleMesh.obj
 0001:001ae230       ?saveMidPhaseStructure@RTreeTriangleMeshBuilder@physx@@UEBAXAEAVPxOutputStream@2@_N@Z 00000001801af230 f   GuCookingTriangleMesh.obj
 0001:001ae470       cookTriangleMesh           00000001801af470 f   GuCookingTriangleMesh.obj
 0001:001ae760       createTriangleMesh         00000001801af760 f   GuCookingTriangleMesh.obj
 0001:001ae980       validateTriangleMesh       00000001801af980 f   GuCookingTriangleMesh.obj
 0001:001aec20       ??0DeformableVolumeCollisionData@Gu@physx@@QEAA@XZ 00000001801afc20 f i GuCookingTetrahedronMesh.obj
 0001:001aec80       ??_ECollisionTetrahedronMeshData@Gu@physx@@UEAAPEAXI@Z 00000001801afc80 f i GuCookingTetrahedronMesh.obj
 0001:001aec80       ??_GCollisionTetrahedronMeshData@Gu@physx@@UEAAPEAXI@Z 00000001801afc80 f i GuCookingTetrahedronMesh.obj
 0001:001aed60       ??_EPxCollisionTetrahedronMeshData@physx@@UEAAPEAXI@Z 00000001801afd60 f i GuCookingTetrahedronMesh.obj
 0001:001aed60       ??_GPxCollisionTetrahedronMeshData@physx@@UEAAPEAXI@Z 00000001801afd60 f i GuCookingTetrahedronMesh.obj
 0001:001aedc0       ??_EPxSimulationTetrahedronMeshData@physx@@UEAAPEAXI@Z 00000001801afdc0 f i GuCookingTetrahedronMesh.obj
 0001:001aedc0       ??_GPxSimulationTetrahedronMeshData@physx@@UEAAPEAXI@Z 00000001801afdc0 f i GuCookingTetrahedronMesh.obj
 0001:001aee20       ??_ESimulationTetrahedronMeshData@Gu@physx@@UEAAPEAXI@Z 00000001801afe20 f i GuCookingTetrahedronMesh.obj
 0001:001aee20       ??_GSimulationTetrahedronMeshData@Gu@physx@@UEAAPEAXI@Z 00000001801afe20 f i GuCookingTetrahedronMesh.obj
 0001:001aef00       ?PointOutsideOfPlane4@Gu@physx@@YA?AV?$PxVec4T@M@2@AEBV?$PxVec3T@M@2@0000@Z 00000001801aff00 f i GuCookingTetrahedronMesh.obj
 0001:001af370       ?classifyTetrahedrons@@YAXPEBU?$TetrahedronT@I@Gu@physx@@IIIPEAI1AEAV?$PxArray@IV?$PxReflectionAllocator@I@physx@@@3@@Z 00000001801b0370 f   GuCookingTetrahedronMesh.obj
 0001:001af500       ?combineGridModelPartitions@@YAXAEBVTetrahedronMeshData@Gu@physx@@AEAVDeformableVolumeSimulationData@23@PEAPEAI@Z 00000001801b0500 f   GuCookingTetrahedronMesh.obj
 0001:001afd80       ?combineGridModelPartitionsHexMesh_parallelGS@@YAXAEBVTetrahedronMeshData@Gu@physx@@AEAVDeformableVolumeSimulationData@23@PEAPEAI@Z 00000001801b0d80 f   GuCookingTetrahedronMesh.obj
 0001:001b0160       ?computeCollisionData@TetrahedronMeshBuilder@physx@@SA_NAEBVPxTetrahedronMeshDesc@2@AEAVTetrahedronMeshData@Gu@2@AEAVDeformableVolumeCollisionData@52@AEBUPxCookingParams@2@_N@Z 00000001801b1160 f   GuCookingTetrahedronMesh.obj
 0001:001b03b0       ?computeGridModelTetrahedronPartitions@@YAPEAIAEBVTetrahedronMeshData@Gu@physx@@AEAVDeformableVolumeSimulationData@23@@Z 00000001801b13b0 f   GuCookingTetrahedronMesh.obj
 0001:001b0760       ?computeGridModelVoxelPartitions@@YAPEAIAEBVTetrahedronMeshData@Gu@physx@@AEAVDeformableVolumeSimulationData@23@@Z 00000001801b1760 f   GuCookingTetrahedronMesh.obj
 0001:001b1020       ?computeModelsMapping@TetrahedronMeshBuilder@physx@@SAXAEAVTetrahedronMeshData@Gu@2@AEBV342@AEBVDeformableVolumeCollisionData@42@AEAVCollisionMeshMappingData@42@_NPEBUPxBoundedData@2@@Z 00000001801b2020 f   GuCookingTetrahedronMesh.obj
 0001:001b1a40       ?computeRestPoseAndPointMass@@YAXPEAU?$TetrahedronT@I@Gu@physx@@IPEBV?$PxVec3T@M@3@PEAMPEAV?$PxMat33T@M@3@@Z 00000001801b2a40 f   GuCookingTetrahedronMesh.obj
 0001:001b1f60       ?computeSimData@TetrahedronMeshBuilder@physx@@SAXAEBVPxTetrahedronMeshDesc@2@AEAVTetrahedronMeshData@Gu@2@AEAVDeformableVolumeSimulationData@52@AEBUPxCookingParams@2@@Z 00000001801b2f60 f   GuCookingTetrahedronMesh.obj
 0001:001b2670       ?computeTetData@TetrahedronMeshBuilder@physx@@SAXAEBVPxTetrahedronMeshDesc@2@AEAVTetrahedronMeshData@Gu@2@@Z 00000001801b3670 f   GuCookingTetrahedronMesh.obj
 0001:001b2760       ?computeTetrahedronPartition@@YAIPEBU?$TetrahedronT@I@Gu@physx@@IPEAII@Z 00000001801b3760 f   GuCookingTetrahedronMesh.obj
 0001:001b2850       ?create@?$PxHashBase@IIU?$PxHash@I@physx@@UGetKey@?$PxHashSetBase@IU?$PxHash@I@physx@@VPxAllocator@2@$0A@@2@VPxAllocator@2@$0A@@physx@@QEAAPEAIAEBIAEA_N@Z 00000001801b3850 f i GuCookingTetrahedronMesh.obj
 0001:001b29b0       ?createCollisionModelMapping@TetrahedronMeshBuilder@physx@@SAXAEBVTetrahedronMeshData@Gu@2@AEBVDeformableVolumeCollisionData@42@AEAVCollisionMeshMappingData@42@@Z 00000001801b39b0 f   GuCookingTetrahedronMesh.obj
 0001:001b2ff0       ?createGRBMidPhaseAndData@TetrahedronMeshBuilder@physx@@SA_NIAEAVTetrahedronMeshData@Gu@2@AEAVDeformableVolumeCollisionData@42@AEBUPxCookingParams@2@@Z 00000001801b3ff0 f   GuCookingTetrahedronMesh.obj
 0001:001b3d20       ?createMidPhaseStructure@BV32TetrahedronMeshBuilder@physx@@SA_NAEBUPxCookingParams@2@AEAVTetrahedronMeshData@Gu@2@AEAVBV32Tree@52@AEAVDeformableVolumeCollisionData@52@@Z 00000001801b4d20 f   GuCookingTetrahedronMesh.obj
 0001:001b4010       ?createMidPhaseStructure@TetrahedronMeshBuilder@physx@@SA_NAEAVTetrahedronMeshData@Gu@2@AEAVDeformableVolumeCollisionData@42@AEBUPxCookingParams@2@@Z 00000001801b5010 f   GuCookingTetrahedronMesh.obj
 0001:001b4cb0       ?getData@CollisionTetrahedronMeshData@Gu@physx@@UEAAPEAVPxDeformableVolumeCollisionData@3@XZ 00000001801b5cb0 f i GuCookingTetrahedronMesh.obj
 0001:001b4cb0       ?getData@CollisionTetrahedronMeshData@Gu@physx@@UEBAPEBVPxDeformableVolumeCollisionData@3@XZ 00000001801b5cb0 f i GuCookingTetrahedronMesh.obj
 0001:001b4cb0       ?getData@SimulationTetrahedronMeshData@Gu@physx@@UEAAPEAVPxDeformableVolumeSimulationData@3@XZ 00000001801b5cb0 f i GuCookingTetrahedronMesh.obj
 0001:001b4cd0       ?importMesh@TetrahedronMeshBuilder@physx@@SA_NAEBVPxTetrahedronMeshDesc@2@AEBUPxCookingParams@2@AEAVTetrahedronMeshData@Gu@2@AEAVDeformableVolumeCollisionData@62@_N@Z 00000001801b5cd0 f   GuCookingTetrahedronMesh.obj
 0001:001b4fe0       ?isValid@PxTetrahedronMeshDesc@physx@@QEBA_NXZ 00000001801b5fe0 f i GuCookingTetrahedronMesh.obj
 0001:001b5060       ?loadFromDesc@TetrahedronMeshBuilder@physx@@SA_NAEBVPxTetrahedronMeshDesc@2@0VPxDeformableVolumeSimulationDataDesc@2@AEAVTetrahedronMeshData@Gu@2@AEAVDeformableVolumeSimulationData@62@2AEAVDeformableVolumeCollisionData@62@AEAVCollisionMeshMappingData@62@AEBUPxCookingParams@2@_N@Z 00000001801b6060 f   GuCookingTetrahedronMesh.obj
 0001:001b51d0       ?recreate@?$PxArray@V?$PxArray@IV?$PxReflectionAllocator@I@physx@@@physx@@V?$PxReflectionAllocator@V?$PxArray@IV?$PxReflectionAllocator@I@physx@@@physx@@@2@@physx@@IEAAXI@Z 00000001801b61d0 f i GuCookingTetrahedronMesh.obj
 0001:001b52e0       ?release@CollisionTetrahedronMeshData@Gu@physx@@UEAAXXZ 00000001801b62e0 f i GuCookingTetrahedronMesh.obj
 0001:001b5300       ?reserveInternal@?$PxHashBase@IIU?$PxHash@I@physx@@UGetKey@?$PxHashSetBase@IU?$PxHash@I@physx@@VPxAllocator@2@$0A@@2@VPxAllocator@2@$0A@@physx@@AEAAXI@Z 00000001801b6300 f i GuCookingTetrahedronMesh.obj
 0001:001b56c0       ?reserveInternal@?$PxHashBase@V?$PxPair@$$CBVSortedTriangleInds@@I@physx@@VSortedTriangleInds@@USortedTriangleIndsHash@@UGetKey@?$PxHashMapBase@VSortedTriangleInds@@IUSortedTriangleIndsHash@@VPxAllocator@physx@@@2@VPxAllocator@2@$00@physx@@AEAAXI@Z 00000001801b66c0 f i GuCookingTetrahedronMesh.obj
 0001:001b5900       ?resize@?$PxArray@V?$PxArray@IV?$PxReflectionAllocator@I@physx@@@physx@@V?$PxReflectionAllocator@V?$PxArray@IV?$PxReflectionAllocator@I@physx@@@physx@@@2@@physx@@QEAAXIAEBV?$PxArray@IV?$PxReflectionAllocator@I@physx@@@2@@Z 00000001801b6900 f i GuCookingTetrahedronMesh.obj
 0001:001b59a0       ?saveDeformableVolumeMeshData@TetrahedronMeshBuilder@physx@@SA_NAEAVPxOutputStream@2@_NAEBUPxCookingParams@2@AEBVTetrahedronMeshData@Gu@2@AEBVDeformableVolumeSimulationData@62@3AEBVDeformableVolumeCollisionData@62@AEBVCollisionMeshMappingData@62@@Z 00000001801b69a0 f   GuCookingTetrahedronMesh.obj
 0001:001b60d0       ?saveTetrahedronMeshData@TetrahedronMeshBuilder@physx@@SA_NAEAVPxOutputStream@2@_NAEBUPxCookingParams@2@AEBVTetrahedronMeshData@Gu@2@@Z 00000001801b70d0 f   GuCookingTetrahedronMesh.obj
 0001:001b6280       ?smoothMassRatiosWhilePreservingTotalMass@@YAXPEAMIPEBIHMM@Z 00000001801b7280 f   GuCookingTetrahedronMesh.obj
 0001:001b6780       ?support@?$LocalConvex@VTetrahedronV@Gu@physx@@@Gu@physx@@UEBA?AT__m128@@AEBT4@@Z 00000001801b7780 f i GuCookingTetrahedronMesh.obj
 0001:001b6840       ?support@?$LocalConvex@VTetrahedronV@Gu@physx@@@Gu@physx@@UEBA?AT__m128@@AEBT4@AEAH@Z 00000001801b7840 f i GuCookingTetrahedronMesh.obj
 0001:001b6a00       assembleDeformableVolumeMesh 00000001801b7a00 f   GuCookingTetrahedronMesh.obj
 0001:001b6a60       computeCollisionData       00000001801b7a60 f   GuCookingTetrahedronMesh.obj
 0001:001b6c70       computeModelsMapping       00000001801b7c70 f   GuCookingTetrahedronMesh.obj
 0001:001b6d70       computeSimulationData      00000001801b7d70 f   GuCookingTetrahedronMesh.obj
 0001:001b6f50       cookDeformableVolumeMesh   00000001801b7f50 f   GuCookingTetrahedronMesh.obj
 0001:001b75b0       cookTetrahedronMesh        00000001801b85b0 f   GuCookingTetrahedronMesh.obj
 0001:001b76b0       createDeformableVolumeMesh 00000001801b86b0 f   GuCookingTetrahedronMesh.obj
 0001:001b7d90       createTetrahedronMesh      00000001801b8d90 f   GuCookingTetrahedronMesh.obj
 0001:001b9af0       ?computeVolumeIntegrals@physx@@YA_NAEBVPxSimpleTriangleMesh@1@MAEAUPxIntegrals@1@@Z 00000001801baaf0 f   GuCookingVolumeIntegration.obj
 0001:001b9b30       ?computeVolumeIntegralsEberly@physx@@YA_NAEBVPxConvexMeshDesc@1@MAEAUPxIntegrals@1@AEBV?$PxVec3T@M@1@_N@Z 00000001801bab30 f   GuCookingVolumeIntegration.obj
 0001:001ba1a0       ??0QuickHull@local@@QEAA@AEBUPxCookingParams@physx@@AEBVPxConvexMeshDesc@3@@Z 00000001801bb1a0 f   GuCookingQuickHullConvexHullLib.obj
 0001:001ba250       ??0QuickHullConvexHullLib@physx@@QEAA@AEBVPxConvexMeshDesc@1@AEBUPxCookingParams@1@@Z 00000001801bb250 f   GuCookingQuickHullConvexHullLib.obj
 0001:001ba330       ??1?$MemBlock@UQuickHullFace@local@@$00@local@@QEAA@XZ 00000001801bb330 f i GuCookingQuickHullConvexHullLib.obj
 0001:001ba330       ??1?$MemBlock@UQuickHullHalfEdge@local@@$0A@@local@@QEAA@XZ 00000001801bb330 f i GuCookingQuickHullConvexHullLib.obj
 0001:001ba3f0       ??1QuickHull@local@@QEAA@XZ 00000001801bb3f0 f   GuCookingQuickHullConvexHullLib.obj
 0001:001ba560       ??_GConvexHull@physx@@QEAAPEAXI@Z 00000001801bb560 f i GuCookingQuickHullConvexHullLib.obj
 0001:001ba660       ??_EConvexHullLib@physx@@UEAAPEAXI@Z 00000001801bb660 f i GuCookingQuickHullConvexHullLib.obj
 0001:001ba660       ??_GConvexHullLib@physx@@UEAAPEAXI@Z 00000001801bb660 f i GuCookingQuickHullConvexHullLib.obj
 0001:001ba6a0       ??_EQuickHullConvexHullLib@physx@@UEAAPEAXI@Z 00000001801bb6a0 f i GuCookingQuickHullConvexHullLib.obj
 0001:001ba6a0       ??_GQuickHullConvexHullLib@physx@@UEAAPEAXI@Z 00000001801bb6a0 f i GuCookingQuickHullConvexHullLib.obj
 0001:001ba7d0       ?addPointToHull@QuickHull@local@@IEAA_NPEBUQuickHullVertex@2@AEAUQuickHullFace@2@AEA_N@Z 00000001801bb7d0 f   GuCookingQuickHullConvexHullLib.obj
 0001:001baaa0       ?addSimplex@QuickHull@local@@IEAA_NPEAUQuickHullVertex@2@_N@Z 00000001801bbaa0 f   GuCookingQuickHullConvexHullLib.obj
 0001:001bafc0       ?buildHull@QuickHull@local@@QEAA?AW4Enum@QuickHullResult@2@XZ 00000001801bbfc0 f   GuCookingQuickHullConvexHullLib.obj
 0001:001bb210       ?calculateHorizon@QuickHull@local@@IEAAXAEBV?$PxVec3T@M@physx@@PEAUQuickHullHalfEdge@2@AEAUQuickHullFace@2@AEAV?$PxArray@PEAUQuickHullHalfEdge@local@@V?$PxReflectionAllocator@PEAUQuickHullHalfEdge@local@@@physx@@@4@AEAV?$PxArray@PEAUQuickHullFace@local@@V?$PxReflectionAllocator@PEAUQuickHullFace@local@@@physx@@@4@@Z 00000001801bc210 f   GuCookingQuickHullConvexHullLib.obj
 0001:001bb3c0       ?canMergeFaces@QuickHull@local@@IEAA_NAEBUQuickHullHalfEdge@2@@Z 00000001801bc3c0 f   GuCookingQuickHullConvexHullLib.obj
 0001:001bbbe0       ?cleanupForSimplex@QuickHullConvexHullLib@physx@@IEAA_NPEAV?$PxVec3T@M@2@IPEAUQuickHullVertex@local@@1AEAM2@Z 00000001801bcbe0 f   GuCookingQuickHullConvexHullLib.obj
 0001:001bcb80       ?computeMinMaxVerts@QuickHull@local@@IEAAXXZ 00000001801bdb80 f   GuCookingQuickHullConvexHullLib.obj
 0001:001bcf60       ?connectHalfEdges@QuickHullFace@local@@AEAAPEAU12@PEAUQuickHullHalfEdge@2@0@Z 00000001801bdf60 f   GuCookingQuickHullConvexHullLib.obj
 0001:001bd2d0       ?copy@?$PxArray@UExpandPoint@local@@V?$PxReflectionAllocator@UExpandPoint@local@@@physx@@@physx@@KAXPEAUExpandPoint@local@@0PEBU34@@Z 00000001801be2d0 f i GuCookingQuickHullConvexHullLib.obj
 0001:001bd520       ?copy@?$PxArray@VPxPlane@physx@@V?$PxReflectionAllocator@VPxPlane@physx@@@2@@physx@@KAXPEAVPxPlane@2@0PEBV32@@Z 00000001801be520 f i GuCookingQuickHullConvexHullLib.obj
 0001:001bd610       ?createConvexHull@QuickHullConvexHullLib@physx@@UEAA?AW4Enum@PxConvexMeshCookingResult@2@XZ 00000001801be610 f   GuCookingQuickHullConvexHullLib.obj
 0001:001bda30       ?createEdgeList@QuickHullConvexHullLib@physx@@UEAA_NIPEBEPEAPEAEPEAPEAG2@Z 00000001801bea30 f   GuCookingQuickHullConvexHullLib.obj
 0001:001bdc60       ?createTriangle@QuickHull@local@@IEAAPEAUQuickHullFace@2@AEBUQuickHullVertex@2@00@Z 00000001801bec60 f   GuCookingQuickHullConvexHullLib.obj
 0001:001be040       ?doAdjacentMerge@QuickHull@local@@IEAA_NAEAUQuickHullFace@2@_NAEA_N@Z 00000001801bf040 f   GuCookingQuickHullConvexHullLib.obj
 0001:001be390       ?expandHull@QuickHullConvexHullLib@physx@@IEAA?AW4Enum@PxConvexMeshCookingResult@2@XZ 00000001801bf390 f   GuCookingQuickHullConvexHullLib.obj
 0001:001becd0       ?expandHullOBB@QuickHullConvexHullLib@physx@@IEAA?AW4Enum@PxConvexMeshCookingResult@2@XZ 00000001801bfcd0 f   GuCookingQuickHullConvexHullLib.obj
 0001:001bf110       ?fillConvexMeshDesc@QuickHullConvexHullLib@physx@@UEAAXAEAVPxConvexMeshDesc@2@@Z 00000001801c0110 f   GuCookingQuickHullConvexHullLib.obj
 0001:001bf160       ?fillConvexMeshDescFromCroppedHull@QuickHullConvexHullLib@physx@@IEAAXAEAVPxConvexMeshDesc@2@@Z 00000001801c0160 f   GuCookingQuickHullConvexHullLib.obj
 0001:001bf350       ?fillConvexMeshDescFromQuickHull@QuickHullConvexHullLib@physx@@IEAAXAEAVPxConvexMeshDesc@2@@Z 00000001801c0350 f   GuCookingQuickHullConvexHullLib.obj
 0001:001bf6f0       ?findSimplex@QuickHull@local@@IEAA_NXZ 00000001801c06f0 f   GuCookingQuickHullConvexHullLib.obj
 0001:001c0320       ?getFreeItem@?$MemBlock@UQuickHullFace@local@@$00@local@@QEAAPEAUQuickHullFace@2@XZ 00000001801c1320 f i GuCookingQuickHullConvexHullLib.obj
 0001:001c0460       ?getFreeItem@?$MemBlock@UQuickHullHalfEdge@local@@$0A@@local@@QEAAPEAUQuickHullHalfEdge@2@XZ 00000001801c1460 f i GuCookingQuickHullConvexHullLib.obj
 0001:001c0530       ?growAndPushBack@?$PxArray@PEAUQuickHullFace@local@@V?$PxReflectionAllocator@PEAUQuickHullFace@local@@@physx@@@physx@@IEAAAEAPEAUQuickHullFace@local@@AEBQEAU34@@Z 00000001801c1530 f i GuCookingQuickHullConvexHullLib.obj
 0001:001c0650       ?growAndPushBack@?$PxArray@PEAUQuickHullHalfEdge@local@@V?$PxReflectionAllocator@PEAUQuickHullHalfEdge@local@@@physx@@@physx@@IEAAAEAPEAUQuickHullHalfEdge@local@@AEBQEAU34@@Z 00000001801c1650 f i GuCookingQuickHullConvexHullLib.obj
 0001:001c0770       ?growAndPushBack@?$PxArray@PEAUQuickHullVertex@local@@V?$PxReflectionAllocator@PEAUQuickHullVertex@local@@@physx@@@physx@@IEAAAEAPEAUQuickHullVertex@local@@AEBQEAU34@@Z 00000001801c1770 f i GuCookingQuickHullConvexHullLib.obj
 0001:001c0890       ?growAndPushBack@?$PxArray@UExpandPoint@local@@V?$PxReflectionAllocator@UExpandPoint@local@@@physx@@@physx@@IEAAAEAUExpandPoint@local@@AEBU34@@Z 00000001801c1890 f i GuCookingQuickHullConvexHullLib.obj
 0001:001c0a10       ?growAndPushBack@?$PxArray@VPxPlane@physx@@V?$PxReflectionAllocator@VPxPlane@physx@@@2@@physx@@IEAAAEAVPxPlane@2@AEBV32@@Z 00000001801c1a10 f i GuCookingQuickHullConvexHullLib.obj
 0001:001c0b40       ?init@?$MemBlock@UQuickHullFace@local@@$00@local@@QEAAXI@Z 00000001801c1b40 f i GuCookingQuickHullConvexHullLib.obj
 0001:001c0c40       ?init@?$MemBlock@UQuickHullHalfEdge@local@@$0A@@local@@QEAAXI@Z 00000001801c1c40 f i GuCookingQuickHullConvexHullLib.obj
 0001:001c0ce0       ?mergeAdjacentFace@QuickHullFace@local@@QEAA_NPEAUQuickHullHalfEdge@2@AEAV?$PxArray@PEAUQuickHullFace@local@@V?$PxReflectionAllocator@PEAUQuickHullFace@local@@@physx@@@physx@@@Z 00000001801c1ce0 f   GuCookingQuickHullConvexHullLib.obj
 0001:001c1130       ?nextPointToAdd@QuickHull@local@@IEAAPEAUQuickHullVertex@2@AEAPEAUQuickHullFace@2@@Z 00000001801c2130 f   GuCookingQuickHullConvexHullLib.obj
 0001:001c12b0       ?parseInputVertices@QuickHull@local@@QEAAXPEBV?$PxVec3T@M@physx@@I@Z 00000001801c22b0 f   GuCookingQuickHullConvexHullLib.obj
 0001:001c1430       ?postMergeHull@QuickHull@local@@IEAAXXZ 00000001801c2430 f   GuCookingQuickHullConvexHullLib.obj
 0001:001c1690       ?preallocate@QuickHull@local@@QEAAXI@Z 00000001801c2690 f   GuCookingQuickHullConvexHullLib.obj
 0001:001c17d0       ?recreate@?$PxArray@PEAUQuickHullFace@local@@V?$PxReflectionAllocator@PEAUQuickHullFace@local@@@physx@@@physx@@IEAAXI@Z 00000001801c27d0 f i GuCookingQuickHullConvexHullLib.obj
 0001:001c18d0       ?recreate@?$PxArray@PEAUQuickHullHalfEdge@local@@V?$PxReflectionAllocator@PEAUQuickHullHalfEdge@local@@@physx@@@physx@@IEAAXI@Z 00000001801c28d0 f i GuCookingQuickHullConvexHullLib.obj
 0001:001c19d0       ?recreate@?$PxArray@PEAUQuickHullVertex@local@@V?$PxReflectionAllocator@PEAUQuickHullVertex@local@@@physx@@@physx@@IEAAXI@Z 00000001801c29d0 f i GuCookingQuickHullConvexHullLib.obj
 0001:001c1ad0       ?recreate@?$PxArray@UExpandPoint@local@@V?$PxReflectionAllocator@UExpandPoint@local@@@physx@@@physx@@IEAAXI@Z 00000001801c2ad0 f i GuCookingQuickHullConvexHullLib.obj
 0001:001c1ba0       ?recreate@?$PxArray@VPxPlane@physx@@V?$PxReflectionAllocator@VPxPlane@physx@@@2@@physx@@IEAAXI@Z 00000001801c2ba0 f i GuCookingQuickHullConvexHullLib.obj
 0001:001c1c80       ?resolveUnclaimedPoints@QuickHull@local@@IEAAXAEBV?$PxArray@PEAUQuickHullFace@local@@V?$PxReflectionAllocator@PEAUQuickHullFace@local@@@physx@@@physx@@@Z 00000001801c2c80 f   GuCookingQuickHullConvexHullLib.obj
 0001:001c1f00       ??$copy@V?$PxReflectionAllocator@VPair@@@physx@@@?$PxArray@VPair@@V?$PxReflectionAllocator@VPair@@@physx@@@physx@@IEAAXAEBV01@@Z 00000001801c2f00 f i GuCookingConvexPolygonsBuilder.obj
 0001:001c1f80       ??0ConvexPolygonsBuilder@physx@@QEAA@PEAUConvexHullData@Gu@1@_N@Z 00000001801c2f80 f   GuCookingConvexPolygonsBuilder.obj
 0001:001c1fa0       ??1ConvexPolygonsBuilder@physx@@QEAA@XZ 00000001801c2fa0 f   GuCookingConvexPolygonsBuilder.obj
 0001:001c27e0       ?allocate@?$PxArray@VPair@@V?$PxReflectionAllocator@VPair@@@physx@@@physx@@IEAAPEAVPair@@IPEAI@Z 00000001801c37e0 f i GuCookingConvexPolygonsBuilder.obj
 0001:001c32f0       ?computeHullPolygons@ConvexPolygonsBuilder@physx@@QEAA_NAEBIPEBV?$PxVec3T@M@2@0PEBI@Z 00000001801c42f0 f   GuCookingConvexPolygonsBuilder.obj
 0001:001c4910       ?createPolygonData@ConvexPolygonsBuilder@physx@@AEAA_NXZ 00000001801c5910 f   GuCookingConvexPolygonsBuilder.obj
 0001:001c53c0       ?createTrianglesFromPolygons@ConvexPolygonsBuilder@physx@@AEAA_NXZ 00000001801c63c0 f   GuCookingConvexPolygonsBuilder.obj
 0001:001c6a80       ?growAndPushBack@?$PxArray@VPair@@V?$PxReflectionAllocator@VPair@@@physx@@@physx@@IEAAAEAVPair@@AEBV3@@Z 00000001801c7a80 f i GuCookingConvexPolygonsBuilder.obj
 0001:001c6ca0       ??0ConvexMeshBuilder@physx@@QEAA@_N@Z 00000001801c7ca0 f   GuCookingConvexMeshBuilder.obj
 0001:001c6d10       ??1ConvexMeshBuilder@physx@@QEAA@XZ 00000001801c7d10 f   GuCookingConvexMeshBuilder.obj
 0001:001c71c0       ?build@ConvexMeshBuilder@physx@@QEAA_NAEBVPxConvexMeshDesc@2@I_NPEAVConvexHullLib@2@@Z 00000001801c81c0 f   GuCookingConvexMeshBuilder.obj
 0001:001c7540       ?checkExtentRadiusRatio@ConvexMeshBuilder@physx@@QEAA_NXZ 00000001801c8540 f   GuCookingConvexMeshBuilder.obj
 0001:001c7570       ?computeHullPolygons@ConvexMeshBuilder@physx@@QEAA_NAEBIPEBV?$PxVec3T@M@2@0PEBIAEAVPxAllocatorCallback@2@AEAIAEAPEAV32@4AEAPEAI4AEAPEAUPxHullPolygon@2@@Z 00000001801c8570 f   GuCookingConvexMeshBuilder.obj
 0001:001c7770       ?computeMassInfo@ConvexMeshBuilder@physx@@QEAAX_N@Z 00000001801c8770 f   GuCookingConvexMeshBuilder.obj
 0001:001c7b90       ?computeSDF@ConvexMeshBuilder@physx@@QEAAXAEBVPxConvexMeshDesc@2@@Z 00000001801c8b90 f   GuCookingConvexMeshBuilder.obj
 0001:001c8000       ?copy@ConvexMeshBuilder@physx@@QEAA_NAEAUConvexHullInitData@Gu@2@@Z 00000001801c9000 f   GuCookingConvexMeshBuilder.obj
 0001:001c8160       ?loadConvexHull@ConvexMeshBuilder@physx@@QEAA_NAEBVPxConvexMeshDesc@2@PEAVConvexHullLib@2@@Z 00000001801c9160 f   GuCookingConvexMeshBuilder.obj
 0001:001c83c0       ?save@ConvexMeshBuilder@physx@@QEBA_NAEAVPxOutputStream@2@_N@Z 00000001801c93c0 f   GuCookingConvexMeshBuilder.obj
 0001:001c87e0       ??0ConvexHull@physx@@QEAA@AEBV?$PxVec3T@M@1@AEBV?$PxTransformT@M@1@AEBV?$PxArray@VPxPlane@physx@@V?$PxReflectionAllocator@VPxPlane@physx@@@2@@1@@Z 00000001801c97e0 f   GuCookingConvexHullUtils.obj
 0001:001c9950       ?assertIntact@ConvexHull@physx@@QEBA_NM@Z 00000001801ca950 f   GuCookingConvexHullUtils.obj
 0001:001c9c60       ?computeOBBFromConvex@physx@@YA_NAEBVPxConvexMeshDesc@1@AEAV?$PxVec3T@M@1@AEAV?$PxTransformT@M@1@@Z 00000001801cac60 f   GuCookingConvexHullUtils.obj
 0001:001ca330       ?computeOBBSIMD@local@@YAXIPEBT__m128@@AEAT2@AEBT2@1@Z 00000001801cb330 f   GuCookingConvexHullUtils.obj
 0001:001ca6e0       ?convexHullCrop@physx@@YAPEAVConvexHull@1@AEBV21@AEBVPxPlane@1@M@Z 00000001801cb6e0 f   GuCookingConvexHullUtils.obj
 0001:001cb510       ?findCandidatePlane@ConvexHull@physx@@QEBAHMM@Z 00000001801cc510 f   GuCookingConvexHullUtils.obj
 0001:001cb960       ?growAndPushBack@?$PxArray@VHalfEdge@ConvexHull@physx@@V?$PxReflectionAllocator@VHalfEdge@ConvexHull@physx@@@3@@physx@@IEAAAEAVHalfEdge@ConvexHull@2@AEBV342@@Z 00000001801cc960 f i GuCookingConvexHullUtils.obj
 0001:001cba80       ?maxNumVertsPerFace@ConvexHull@physx@@QEBAIXZ 00000001801cca80 f   GuCookingConvexHullUtils.obj
 0001:001cbb20       ?recreate@?$PxArray@VHalfEdge@ConvexHull@physx@@V?$PxReflectionAllocator@VHalfEdge@ConvexHull@physx@@@3@@physx@@IEAAXI@Z 00000001801ccb20 f i GuCookingConvexHullUtils.obj
 0001:001cbc20       ?resize@?$PxArray@VHalfEdge@ConvexHull@physx@@V?$PxReflectionAllocator@VHalfEdge@ConvexHull@physx@@@3@@physx@@QEAAXIAEBVHalfEdge@ConvexHull@2@@Z 00000001801ccc20 f i GuCookingConvexHullUtils.obj
 0001:001cbce0       ?resize@?$PxArray@VPxPlane@physx@@V?$PxReflectionAllocator@VPxPlane@physx@@@2@@physx@@QEAAXIAEBVPxPlane@2@@Z 00000001801ccce0 f i GuCookingConvexHullUtils.obj
 0001:001cbdf0       ??1ConvexHullLib@physx@@UEAA@XZ 00000001801ccdf0 f   GuCookingConvexHullLib.obj
 0001:001cc3a0       ?cleanupVertices@ConvexHullLib@physx@@IEAA_NIPEBV?$PxVec3T@M@2@IAEAIPEAV32@@Z 00000001801cd3a0 f   GuCookingConvexHullLib.obj
 0001:001cc4e0       ?shiftAndcleanupVertices@ConvexHullLib@physx@@IEAA_NIPEBV?$PxVec3T@M@2@IAEAIPEAV32@@Z 00000001801cd4e0 f   GuCookingConvexHullLib.obj
 0001:001cca90       ?shiftConvexMeshDesc@ConvexHullLib@physx@@IEAAXAEAVPxConvexMeshDesc@2@@Z 00000001801cda90 f   GuCookingConvexHullLib.obj
 0001:001ccb50       ?swapLargestFace@ConvexHullLib@physx@@IEAAXAEAVPxConvexMeshDesc@2@@Z 00000001801cdb50 f   GuCookingConvexHullLib.obj
 0001:001ccdd0       ??0ConvexHullBuilder@physx@@QEAA@PEAUConvexHullData@Gu@1@_N@Z 00000001801cddd0 f   GuCookingConvexHullBuilder.obj
 0001:001cce00       ??1ConvexHullBuilder@physx@@QEAA@XZ 00000001801cde00 f   GuCookingConvexHullBuilder.obj
 0001:001ccf30       ?calculateVertexMapTable@ConvexHullBuilder@physx@@QEAA_NI_N@Z 00000001801cdf30 f   GuCookingConvexHullBuilder.obj
 0001:001cd100       ?checkHullPolygons@ConvexHullBuilder@physx@@QEBA_NXZ 00000001801ce100 f   GuCookingConvexHullBuilder.obj
 0001:001cd8c0       ?copy@ConvexHullBuilder@physx@@QEAA_NAEAUConvexHullData@Gu@2@AEAI@Z 00000001801ce8c0 f   GuCookingConvexHullBuilder.obj
 0001:001cdb60       ?createEdgeList@ConvexHullBuilder@physx@@QEAA_N_NI@Z 00000001801ceb60 f   GuCookingConvexHullBuilder.obj
 0001:001ce2c0       ?init@ConvexHullBuilder@physx@@QEAA_NIPEBV?$PxVec3T@M@2@PEBIIIPEBUPxHullPolygon@2@_NPEAVConvexHullLib@2@@Z 00000001801cf2c0 f   GuCookingConvexHullBuilder.obj
 0001:001ce6e0       ?save@ConvexHullBuilder@physx@@QEBA_NAEAVPxOutputStream@2@_N@Z 00000001801cf6e0 f   GuCookingConvexHullBuilder.obj
 0001:001cea20       ??0BigConvexDataBuilder@physx@@QEAA@PEBUConvexHullData@Gu@1@PEAVBigConvexData@1@PEBV?$PxVec3T@M@1@@Z 00000001801cfa20 f   GuCookingBigConvexDataBuilder.obj
 0001:001cea30       ?computeValencies@BigConvexDataBuilder@physx@@QEAA_NAEBVConvexHullBuilder@2@@Z 00000001801cfa30 f   GuCookingBigConvexDataBuilder.obj
 0001:001cee20       ?precompute@BigConvexDataBuilder@physx@@QEAA_NI@Z 00000001801cfe20 f   GuCookingBigConvexDataBuilder.obj
 0001:001cfa20       ?save@BigConvexDataBuilder@physx@@QEBA_NAEAVPxOutputStream@2@_N@Z 00000001801d0a20 f   GuCookingBigConvexDataBuilder.obj
 0001:001cfd00       ?buildSDF@physx@@YA_NAEAVPxTriangleMeshDesc@1@AEAV?$PxArray@MV?$PxReflectionAllocator@M@physx@@@1@AEAV?$PxArray@EV?$PxReflectionAllocator@E@physx@@@1@AEAV?$PxArray@IV?$PxReflectionAllocator@I@physx@@@1@@Z 00000001801d0d00 f   GuCookingSDF.obj
 0001:001d0e00       ?recreate@?$PxArray@EV?$PxReflectionAllocator@E@physx@@@physx@@IEAAXI@Z 00000001801d1e00 f i GuCookingSDF.obj
 0001:001d0f00       ?resize@?$PxArray@EV?$PxReflectionAllocator@E@physx@@@physx@@QEAAXIAEBE@Z 00000001801d1f00 f i GuCookingSDF.obj
 0001:001d0fba       __tailMerge_physxfoundation_64_dll 00000001801d1fba     PhysXFoundation_64:PhysXFoundation_64.dll
 0001:001d1033       __imp_load_PxGetFoundation 00000001801d2033 f   PhysXFoundation_64:PhysXFoundation_64.dll
 0001:001d103f       __imp_load_PxGetBroadcastAllocator 00000001801d203f f   PhysXFoundation_64:PhysXFoundation_64.dll
 0001:001d104b       __imp_load_?PxAtomicIncrement@physx@@YAHPECH@Z 00000001801d204b f   PhysXFoundation_64:PhysXFoundation_64.dll
 0001:001d1057       __imp_load_??0PxMutexImpl@physx@@QEAA@XZ 00000001801d2057 f   PhysXFoundation_64:PhysXFoundation_64.dll
 0001:001d1063       __imp_load_??1PxMutexImpl@physx@@QEAA@XZ 00000001801d2063 f   PhysXFoundation_64:PhysXFoundation_64.dll
 0001:001d106f       __imp_load_?lock@PxMutexImpl@physx@@QEAAXXZ 00000001801d206f f   PhysXFoundation_64:PhysXFoundation_64.dll
 0001:001d107b       __imp_load_?unlock@PxMutexImpl@physx@@QEAAXXZ 00000001801d207b f   PhysXFoundation_64:PhysXFoundation_64.dll
 0001:001d1087       __imp_load_?getSize@PxMutexImpl@physx@@SAIXZ 00000001801d2087 f   PhysXFoundation_64:PhysXFoundation_64.dll
 0001:001d1093       __imp_load_?PxTransformFromSegment@physx@@YA?AV?$PxTransformT@M@1@AEBV?$PxVec3T@M@1@0PEAM@Z 00000001801d2093 f   PhysXFoundation_64:PhysXFoundation_64.dll
 0001:001d109f       __imp_load_?PxAtomicAdd@physx@@YAHPECHH@Z 00000001801d209f f   PhysXFoundation_64:PhysXFoundation_64.dll
 0001:001d10ab       __imp_load_?getDefaultStackSize@PxThreadImpl@physx@@SAIXZ 00000001801d20ab f   PhysXFoundation_64:PhysXFoundation_64.dll
 0001:001d10b7       __imp_load_??0PxThreadImpl@physx@@QEAA@P6APEAXPEAX@Z0PEBD@Z 00000001801d20b7 f   PhysXFoundation_64:PhysXFoundation_64.dll
 0001:001d10c3       __imp_load_??1PxThreadImpl@physx@@QEAA@XZ 00000001801d20c3 f   PhysXFoundation_64:PhysXFoundation_64.dll
 0001:001d10cf       __imp_load_?start@PxThreadImpl@physx@@QEAAXIPEAVPxRunnable@2@@Z 00000001801d20cf f   PhysXFoundation_64:PhysXFoundation_64.dll
 0001:001d10db       __imp_load_?waitForQuit@PxThreadImpl@physx@@QEAA_NXZ 00000001801d20db f   PhysXFoundation_64:PhysXFoundation_64.dll
 0001:001d10e7       __imp_load_?getSize@PxThreadImpl@physx@@SAIXZ 00000001801d20e7 f   PhysXFoundation_64:PhysXFoundation_64.dll
 0001:001d10f3       __imp_load_?allocate@PxTempAllocator@physx@@QEAAPEAX_KPEBDH@Z 00000001801d20f3 f   PhysXFoundation_64:PhysXFoundation_64.dll
 0001:001d10ff       __imp_load_?deallocate@PxTempAllocator@physx@@QEAAXPEAX@Z 00000001801d20ff f   PhysXFoundation_64:PhysXFoundation_64.dll
 0001:001d110b       __imp_load_?PxOptimizeBoundingBox@physx@@YA?AV?$PxVec3T@M@1@AEAV?$PxMat33T@M@1@@Z 00000001801d210b f   PhysXFoundation_64:PhysXFoundation_64.dll
 0001:001d1117       __imp_load_?Pxstrcmp@physx@@YAHPEBD0@Z 00000001801d2117 f   PhysXFoundation_64:PhysXFoundation_64.dll
 0001:001d1123       __imp_load_?PxAtomicDecrement@physx@@YAHPECH@Z 00000001801d2123 f   PhysXFoundation_64:PhysXFoundation_64.dll
 0001:001d112f       __imp_load_??0PxFPUGuard@physx@@QEAA@XZ 00000001801d212f f   PhysXFoundation_64:PhysXFoundation_64.dll
 0001:001d113b       __imp_load_??1PxFPUGuard@physx@@QEAA@XZ 00000001801d213b f   PhysXFoundation_64:PhysXFoundation_64.dll
 0001:001d1147       __imp_load_?PxDiagonalize@physx@@YA?AV?$PxVec3T@M@1@AEBV?$PxMat33T@M@1@AEAV?$PxQuatT@M@1@@Z 00000001801d2147 f   PhysXFoundation_64:PhysXFoundation_64.dll
 0001:001d1240       ?DloadAcquireSectionWriteAccess@@YAXXZ 00000001801d2240 f i Delayimp:delayhlp.obj
 0001:001d12fc       ?DloadGetSRWLockFunctionPointers@@YAEXZ 00000001801d22fc f i Delayimp:delayhlp.obj
 0001:001d139c       ?DloadMakePermanentImageCommit@@YAXPEAX_K@Z 00000001801d239c f i Delayimp:delayhlp.obj
 0001:001d1434       ?DloadObtainSection@@YAPEAXPEAK0@Z 00000001801d2434 f i Delayimp:delayhlp.obj
 0001:001d14d0       ?DloadProtectSection@@YAXPEAX_KKPEAK@Z 00000001801d24d0 f i Delayimp:delayhlp.obj
 0001:001d15c8       ?DloadReleaseSectionWriteAccess@@YAXXZ 00000001801d25c8 f i Delayimp:delayhlp.obj
 0001:001d1674       __delayLoadHelper2         00000001801d2674 f   Delayimp:delayhlp.obj
 0001:001d1970       ??3@YAXPEAX_K@Z            00000001801d2970 f   LIBCMT:delete_scalar_size.obj
 0001:001d1970       ??_V@YAXPEAX@Z             00000001801d2970 f   LIBCMT:delete_array.obj
 0001:001d1978       ??_Etype_info@@UEAAPEAXI@Z 00000001801d2978 f i LIBCMT:std_type_info_static.obj
 0001:001d1978       ??_Gtype_info@@UEAAPEAXI@Z 00000001801d2978 f i LIBCMT:std_type_info_static.obj
 0001:001d19a4       ?__scrt_initialize_type_info@@YAXXZ 00000001801d29a4 f   LIBCMT:tncleanup.obj
 0001:001d19b4       ?__scrt_uninitialize_type_info@@YAXXZ 00000001801d29b4 f   LIBCMT:tncleanup.obj
 0001:001d19d0       __chkstk                   00000001801d29d0 f   LIBCMT:chkstk.obj
 0001:001d19d0       _alloca_probe              00000001801d29d0 f   LIBCMT:chkstk.obj
 0001:001d1a20       __vdecl_sinf4              00000001801d2a20 f   LIBCMT:svml_ssinf4_dispatch.obj
 0001:001d1a40       __libm_sse2_sincosf_       00000001801d2a40 f   LIBCMT:svml_ssinf4_dispatch.obj
 0001:001d1a83       __libm_sse2_sincosf4_      00000001801d2a83 f   LIBCMT:svml_ssinf4_dispatch.obj
 0001:001d1a90       ??3@YAXPEAX@Z              00000001801d2a90 f   LIBCMT:delete_scalar.obj
 0001:001d1a98       __scrt_acquire_startup_lock 00000001801d2a98 f   LIBCMT:utility.obj
 0001:001d1ad4       __scrt_dllmain_after_initialize_c 00000001801d2ad4 f   LIBCMT:utility.obj
 0001:001d1b08       __scrt_dllmain_before_initialize_c 00000001801d2b08 f   LIBCMT:utility.obj
 0001:001d1b20       __scrt_dllmain_crt_thread_attach 00000001801d2b20 f   LIBCMT:utility.obj
 0001:001d1b48       __scrt_dllmain_crt_thread_detach 00000001801d2b48 f   LIBCMT:utility.obj
 0001:001d1b60       __scrt_dllmain_exception_filter 00000001801d2b60 f   LIBCMT:utility.obj
 0001:001d1bc0       __scrt_dllmain_uninitialize_c 00000001801d2bc0 f   LIBCMT:utility.obj
 0001:001d1bf0       __scrt_dllmain_uninitialize_critical 00000001801d2bf0 f   LIBCMT:utility.obj
 0001:001d1c04       __scrt_initialize_crt      00000001801d2c04 f   LIBCMT:utility.obj
 0001:001d1c40       __scrt_initialize_onexit_tables 00000001801d2c40 f   LIBCMT:utility.obj
 0001:001d1ccc       __scrt_is_nonwritable_in_current_image 00000001801d2ccc f   LIBCMT:utility.obj
 0001:001d1d64       __scrt_release_startup_lock 00000001801d2d64 f   LIBCMT:utility.obj
 0001:001d1d88       __scrt_uninitialize_crt    00000001801d2d88 f   LIBCMT:utility.obj
 0001:001d1db4       _onexit                    00000001801d2db4 f   LIBCMT:utility.obj
 0001:001d1df0       atexit                     00000001801d2df0 f   LIBCMT:utility.obj
 0001:001d1e08       __isa_available_init       00000001801d2e08 f   LIBCMT:cpu_disp.obj
 0001:001d23b4       _DllMainCRTStartup         00000001801d33b4 f   LIBCMT:dll_dllmain.obj
 0001:001d2400       __sse2_sinf4@@16           00000001801d3400 f   LIBCMT:svml_ssinf4_sse2.obj
 0001:001d2d40       __sse4_sinf4@@16           00000001801d3d40 f   LIBCMT:svml_ssinf4_sse4.obj
 0001:001d34b4       __scrt_is_ucrt_dll_in_use  00000001801d44b4 f   LIBCMT:ucrt_detection.obj
 0001:001d34c0       __crt_debugger_hook        00000001801d44c0 f   LIBCMT:utility_desktop.obj
 0001:001d34cc       __scrt_fastfail            00000001801d44cc f   LIBCMT:utility_desktop.obj
 0001:001d3618       __security_init_cookie     00000001801d4618 f   LIBCMT:gs_support.obj
 0001:001d36c8       __local_stdio_scanf_options 00000001801d46c8 f i LIBCMT:default_local_stdio_options.obj
 0001:001d36d0       __scrt_initialize_default_local_stdio_options 00000001801d46d0 f   LIBCMT:default_local_stdio_options.obj
 0001:001d36ec       __scrt_get_dyn_tls_init_callback 00000001801d46ec f   LIBCMT:dyn_tls_init.obj
 0001:001d36f4       _RTC_Initialize            00000001801d46f4 f   LIBCMT:initsect.obj
 0001:001d3730       _RTC_Terminate             00000001801d4730 f   LIBCMT:initsect.obj
 0001:001d3770       __common_ssin_cout_rare    00000001801d4770 f   LIBCMT:svml_s_sin_cout.obj
 0001:001d37e0       _get_purecall_handler      00000001801d47e0 f   libvcruntime:purevirt.obj
 0001:001d37ec       _purecall                  00000001801d47ec f   libvcruntime:purevirt.obj
 0001:001d3810       __std_type_info_compare    00000001801d4810 f   libvcruntime:std_type_info.obj
 0001:001d3838       __std_type_info_destroy_list 00000001801d4838 f   libvcruntime:std_type_info.obj
 0001:001d3864       __std_type_info_name       00000001801d4864 f   libvcruntime:std_type_info.obj
 0001:001d3980       strstr                     00000001801d4980 f   libvcruntime:strstr.obj
 0001:001d3b74       __vcrt_initialize          00000001801d4b74 f   libvcruntime:initialization.obj
 0001:001d3b9c       __vcrt_thread_attach       00000001801d4b9c f   libvcruntime:initialization.obj
 0001:001d3bb0       __vcrt_thread_detach       00000001801d4bb0 f   libvcruntime:initialization.obj
 0001:001d3bc0       __vcrt_uninitialize        00000001801d4bc0 f   libvcruntime:initialization.obj
 0001:001d3bdc       __vcrt_uninitialize_critical 00000001801d4bdc f   libvcruntime:initialization.obj
 0001:001d3bec       __C_specific_handler       00000001801d4bec f   libvcruntime:riscchandler.obj
 0001:001d3e04       __DestructExceptionObject  00000001801d4e04 f   libvcruntime:ehhelpers.obj
 0001:001d3e78       ?_CallMemberFunction0@@YAXQEAX0@Z 00000001801d4e78 f i libvcruntime:ehhelpers.obj
 0001:001d3e7c       _IsExceptionObjectToBeDestroyed 00000001801d4e7c f   libvcruntime:ehhelpers.obj
 0001:001d3eac       __AdjustPointer            00000001801d4eac f   libvcruntime:ehhelpers.obj
 0001:001d3ed0       __FrameUnwindFilter        00000001801d4ed0 f   libvcruntime:ehhelpers.obj
 0001:001d3f38       __std_terminate            00000001801d4f38 f   libvcruntime:ehhelpers.obj
 0001:001d3f44       ??$?0$00@DName@@QEAA@PEAVUnDecorator@@PEBDU?$StringLifeSelector@$00@@@Z 00000001801d4f44 f i libvcruntime:undname.obj
 0001:001d3f90       ??$?0$01@DName@@QEAA@PEAVUnDecorator@@PEBDU?$StringLifeSelector@$01@@@Z 00000001801d4f90 f i libvcruntime:undname.obj
 0001:001d3f90       ??$?0$0A@@DName@@QEAA@PEAVUnDecorator@@PEBDU?$StringLifeSelector@$0A@@@@Z 00000001801d4f90 f i libvcruntime:undname.obj
 0001:001d3fdc       ??$?0$01@pcharNode@@QEAA@PEBDHU?$StringLifeSelector@$01@@AEAV_HeapManager@@@Z 00000001801d4fdc f i libvcruntime:undname.obj
 0001:001d3fdc       ??$?0$0A@@pcharNode@@QEAA@PEBDHU?$StringLifeSelector@$0A@@@AEAV_HeapManager@@@Z 00000001801d4fdc f i libvcruntime:undname.obj
 0001:001d4050       ??$append@VDNameNode@@@DName@@AEAAXPEBVDNameNode@@@Z 00000001801d5050 f i libvcruntime:undname.obj
 0001:001d4050       ??$append@VDNameStatusNode@@@DName@@AEAAXPEBVDNameStatusNode@@@Z 00000001801d5050 f i libvcruntime:undname.obj
 0001:001d4050       ??$append@VcharNode@@@DName@@AEAAXPEBVcharNode@@@Z 00000001801d5050 f i libvcruntime:undname.obj
 0001:001d4050       ??$append@VpcharNode@@@DName@@AEAAXPEBVpcharNode@@@Z 00000001801d5050 f i libvcruntime:undname.obj
 0001:001d40bc       ??$doPchar@$00@DName@@AEAAXPEBDH@Z 00000001801d50bc f i libvcruntime:undname.obj
 0001:001d4164       ??$doPchar@$01@DName@@AEAAXPEBDH@Z 00000001801d5164 f i libvcruntime:undname.obj
 0001:001d4164       ??$doPchar@$0A@@DName@@AEAAXPEBDH@Z 00000001801d5164 f i libvcruntime:undname.obj
 0001:001d421c       ??0DName@@QEAA@PEAVUnDecorator@@AEAPEBDD@Z 00000001801d521c f   libvcruntime:undname.obj
 0001:001d42e0       ??0DName@@QEAA@PEAVUnDecorator@@AEBUStringLiteral@@@Z 00000001801d52e0 f   libvcruntime:undname.obj
 0001:001d4318       ??0DName@@QEAA@PEAVUnDecorator@@D@Z 00000001801d5318 f   libvcruntime:undname.obj
 0001:001d4344       ??0DName@@QEAA@PEAVUnDecorator@@PEAV0@@Z 00000001801d5344 f   libvcruntime:undname.obj
 0001:001d43cc       ??0DName@@QEAA@PEAVUnDecorator@@W4DNameStatus@@@Z 00000001801d53cc f   libvcruntime:undname.obj
 0001:001d4400       ??0DName@@QEAA@PEAVUnDecorator@@_J@Z 00000001801d5400 f   libvcruntime:undname.obj
 0001:001d44ac       ??0DName@@QEAA@PEAVUnDecorator@@_K@Z 00000001801d54ac f   libvcruntime:undname.obj
 0001:001d4538       ??0DNameNode@@IEAA@XZ      00000001801d5538 f i libvcruntime:undname.obj
 0001:001d4548       ??0UnDecorator@@QEAA@PEBDP6APEADJ@ZKP6APEAX_K@ZP6AXPEAX@Z@Z 00000001801d5548 f i libvcruntime:undname.obj
 0001:001d4638       ??2@YAPEAX_KAEAV_HeapManager@@H@Z 00000001801d5638 f   libvcruntime:undname.obj
 0001:001d4660       ??4DName@@QEAAAEAV0@AEBUStringLiteral@@@Z 00000001801d5660 f   libvcruntime:undname.obj
 0001:001d468c       ??AReplicator@@QEBA?AVDName@@H@Z 00000001801d568c f   libvcruntime:undname.obj
 0001:001d46e8       ??HDName@@QEBA?AV0@AEBUStringLiteral@@@Z 00000001801d56e8 f   libvcruntime:undname.obj
 0001:001d471c       ??HDName@@QEBA?AV0@AEBV0@@Z 00000001801d571c f   libvcruntime:undname.obj
 0001:001d4750       ??HDName@@QEBA?AV0@D@Z     00000001801d5750 f   libvcruntime:undname.obj
 0001:001d4784       ??HDName@@QEBA?AV0@W4DNameStatus@@@Z 00000001801d5784 f   libvcruntime:undname.obj
 0001:001d47b8       ??YDName@@QEAAAEAV0@AEBUStringLiteral@@@Z 00000001801d57b8 f   libvcruntime:undname.obj
 0001:001d4830       ??YDName@@QEAAAEAV0@AEBV0@@Z 00000001801d5830 f   libvcruntime:undname.obj
 0001:001d48e8       ??YDName@@QEAAAEAV0@D@Z    00000001801d58e8 f   libvcruntime:undname.obj
 0001:001d4960       ??YDName@@QEAAAEAV0@W4DNameStatus@@@Z 00000001801d5960 f   libvcruntime:undname.obj
 0001:001d49cc       ??YReplicator@@QEAAAEAV0@AEBVDName@@@Z 00000001801d59cc f   libvcruntime:undname.obj
 0001:001d4a30       ?UScore@UnDecorator@@QEAA?AUStringLiteral@@W4Tokens@@@Z 00000001801d5a30 f   libvcruntime:undname.obj
 0001:001d4a70       ?composeDeclaration@UnDecorator@@AEAA?AVDName@@AEBV2@@Z 00000001801d5a70 f i libvcruntime:undname.obj
 0001:001d5c8c       ?doPchar@DName@@AEAAXD@Z   00000001801d6c8c f   libvcruntime:undname.obj
 0001:001d5ce4       ?getAddressOf@UnDecorator@@AEAA?AVDName@@XZ 00000001801d6ce4 f   libvcruntime:undname.obj
 0001:001d5d84       ?getArgumentList@UnDecorator@@AEAA?AVDName@@XZ 00000001801d6d84 f   libvcruntime:undname.obj
 0001:001d5f30       ?getArgumentTypes@UnDecorator@@AEAA?AVDName@@XZ 00000001801d6f30 f   libvcruntime:undname.obj
 0001:001d60a0       ?getArrayAccess@UnDecorator@@AEAA?AVDName@@XZ 00000001801d70a0 f   libvcruntime:undname.obj
 0001:001d6150       ?getArrayObject@UnDecorator@@AEAA?AVDName@@XZ 00000001801d7150 f   libvcruntime:undname.obj
 0001:001d6238       ?getArrayType@UnDecorator@@AEAA?AVDName@@AEBV2@@Z 00000001801d7238 f i libvcruntime:undname.obj
 0001:001d64b0       ?getBasedType@UnDecorator@@AEAA?AVDName@@XZ 00000001801d74b0 f   libvcruntime:undname.obj
 0001:001d65c4       ?getBasicDataType@UnDecorator@@AEAA?AVDName@@AEBV2@@Z 00000001801d75c4 f   libvcruntime:undname.obj
 0001:001d6d08       ?getCallingConvention@UnDecorator@@AEAA?AVDName@@XZ 00000001801d7d08 f   libvcruntime:undname.obj
 0001:001d6e48       ?getDataIndirectType@UnDecorator@@AEAA?AVDName@@AEBV2@W4IndirectionKind@@0H@Z 00000001801d7e48 f   libvcruntime:undname.obj
 0001:001d79e4       ?getDataType@UnDecorator@@AEAA?AVDName@@PEAV2@@Z 00000001801d89e4 f   libvcruntime:undname.obj
 0001:001d7b28       ?getDecoratedName@UnDecorator@@AEAA?AVDName@@XZ 00000001801d8b28 f   libvcruntime:undname.obj
 0001:001d7e64       ?getDimension@UnDecorator@@AEAA?AVDName@@_N@Z 00000001801d8e64 f   libvcruntime:undname.obj
 0001:001d7fcc       ?getDispatchTarget@UnDecorator@@AEAA?AVDName@@XZ 00000001801d8fcc f   libvcruntime:undname.obj
 0001:001d8044       ?getECSUDataType@UnDecorator@@AEAA?AVDName@@XZ 00000001801d9044 f   libvcruntime:undname.obj
 0001:001d8288       ?getEnumType@UnDecorator@@AEAA?AVDName@@XZ 00000001801d9288 f i libvcruntime:undname.obj
 0001:001d83e8       ?getExtendedDataIndirectType@UnDecorator@@AEAA?AVDName@@AEAW4IndirectionKind@@AEA_NH@Z 00000001801d93e8 f   libvcruntime:undname.obj
 0001:001d8668       ?getExternalDataType@UnDecorator@@AEAA?AVDName@@AEBV2@@Z 00000001801d9668 f i libvcruntime:undname.obj
 0001:001d8764       ?getFloatingPoint@UnDecorator@@AEAA?AVDName@@H@Z 00000001801d9764 f   libvcruntime:undname.obj
 0001:001d88cc       ?getFunctionIndirectType@UnDecorator@@AEAA?AVDName@@AEBV2@@Z 00000001801d98cc f   libvcruntime:undname.obj
 0001:001d8e70       ?getLastChar@DNameStatusNode@@UEBADXZ 00000001801d9e70 f i libvcruntime:undname.obj
 0001:001d8e7c       ?getLastChar@charNode@@UEBADXZ 00000001801d9e7c f i libvcruntime:undname.obj
 0001:001d8e80       ?getLastChar@pDNameNode@@UEBADXZ 00000001801d9e80 f i libvcruntime:undname.obj
 0001:001d8eac       ?getLastChar@pairNode@@UEBADXZ 00000001801d9eac f i libvcruntime:undname.obj
 0001:001d8ee4       ?getLastChar@pcharNode@@UEBADXZ 00000001801d9ee4 f i libvcruntime:undname.obj
 0001:001d8ef8       ?getMemberAccess@UnDecorator@@AEAA?AVDName@@XZ 00000001801d9ef8 f   libvcruntime:undname.obj
 0001:001d8fa4       ?getMemoryWithBuffer@_HeapManager@@QEAAPEAX_K@Z 00000001801d9fa4 f   libvcruntime:undname.obj
 0001:001d9034       ?getNoexcept@UnDecorator@@AEAA?AVDName@@XZ 00000001801da034 f   libvcruntime:undname.obj
 0001:001d90a8       ?getNumberOfDimensions@UnDecorator@@AEAAHXZ 00000001801da0a8 f   libvcruntime:undname.obj
 0001:001d9110       ?getOperatorName@UnDecorator@@AEAA?AVDName@@_NPEA_N@Z 00000001801da110 f i libvcruntime:undname.obj
 0001:001d9cc4       ?getPointerToMember@UnDecorator@@AEAA?AVDName@@XZ 00000001801dacc4 f   libvcruntime:undname.obj
 0001:001d9dd4       ?getPrimaryDataType@UnDecorator@@AEAA?AVDName@@AEBV2@@Z 00000001801dadd4 f   libvcruntime:undname.obj
 0001:001da0ec       ?getPtrRefDataType@UnDecorator@@AEAA?AVDName@@AEBV2@H@Z 00000001801db0ec f   libvcruntime:undname.obj
 0001:001da2ec       ?getPtrRefType@UnDecorator@@AEAA?AVDName@@AEBV2@0W4IndirectionKind@@@Z 00000001801db2ec f   libvcruntime:undname.obj
 0001:001da458       ?getRestrictionSpec@UnDecorator@@AEAA?AVDName@@XZ 00000001801db458 f   libvcruntime:undname.obj
 0001:001da6bc       ?getReturnType@UnDecorator@@AEAA?AVDName@@PEAV2@@Z 00000001801db6bc f   libvcruntime:undname.obj
 0001:001da6f8       ?getScope@UnDecorator@@AEAA?AVDName@@XZ 00000001801db6f8 f   libvcruntime:undname.obj
 0001:001dabc0       ?getScopedName@UnDecorator@@AEAA?AVDName@@XZ 00000001801dbbc0 f   libvcruntime:undname.obj
 0001:001dad34       ?getSignedDimension@UnDecorator@@AEAA?AVDName@@XZ 00000001801dbd34 f   libvcruntime:undname.obj
 0001:001dadb8       ?getString@DNameStatusNode@@UEBAPEADPEAD0@Z 00000001801dbdb8 f i libvcruntime:undname.obj
 0001:001dae00       ?getString@charNode@@UEBAPEADPEAD0@Z 00000001801dbe00 f i libvcruntime:undname.obj
 0001:001dae14       ?getString@pDNameNode@@UEBAPEADPEAD0@Z 00000001801dbe14 f i libvcruntime:undname.obj
 0001:001dae44       ?getString@pairNode@@UEBAPEADPEAD0@Z 00000001801dbe44 f i libvcruntime:undname.obj
 0001:001dae90       ?getString@pcharNode@@UEBAPEADPEAD0@Z 00000001801dbe90 f i libvcruntime:undname.obj
 0001:001daec8       ?getStringEncoding@UnDecorator@@AEAA?AVDName@@W4PrefixKind@@H@Z 00000001801dbec8 f   libvcruntime:undname.obj
 0001:001daff8       ?getStringObject@UnDecorator@@AEAA?AVDName@@XZ 00000001801dbff8 f   libvcruntime:undname.obj
 0001:001db0a0       ?getSymbolName@UnDecorator@@AEAA?AVDName@@XZ 00000001801dc0a0 f i libvcruntime:undname.obj
 0001:001db0f0       ?getTemplateArgumentList@UnDecorator@@AEAA?AVDName@@XZ 00000001801dc0f0 f   libvcruntime:undname.obj
 0001:001db354       ?getTemplateName@UnDecorator@@AEAA?AVDName@@_N@Z 00000001801dc354 f   libvcruntime:undname.obj
 0001:001db66c       ?getTemplateNonTypeArgument@UnDecorator@@AEAA?AVDName@@XZ 00000001801dc66c f   libvcruntime:undname.obj
 0001:001dbb10       ?getTemplateTypeArgument@UnDecorator@@AEAA?AVDName@@XZ 00000001801dcb10 f   libvcruntime:undname.obj
 0001:001dbc8c       ?getThrowTypes@UnDecorator@@AEAA?AVDName@@XZ 00000001801dcc8c f   libvcruntime:undname.obj
 0001:001dbcb8       ?getTypeEncoding@UnDecorator@@AEAAHXZ 00000001801dccb8 f i libvcruntime:undname.obj
 0001:001dc074       ?getUndecoratedName@UnDecorator@@QEAAPEADPEADH@Z 00000001801dd074 f i libvcruntime:undname.obj
 0001:001dc1a8       ?getUnionObject@UnDecorator@@AEAA?AVDName@@XZ 00000001801dd1a8 f   libvcruntime:undname.obj
 0001:001dc298       ?getVCallThunkType@UnDecorator@@AEAA?AVDName@@XZ 00000001801dd298 f i libvcruntime:undname.obj
 0001:001dc30c       ?getValue@UnDecorator@@AEAA?AV?$optional@_K@std@@XZ 00000001801dd30c f   libvcruntime:undname.obj
 0001:001dc350       ?getValueObject@UnDecorator@@AEAA?AVDName@@XZ 00000001801dd350 f   libvcruntime:undname.obj
 0001:001dc4f0       ?getVdispMapType@UnDecorator@@AEAA?AVDName@@AEBV2@@Z 00000001801dd4f0 f i libvcruntime:undname.obj
 0001:001dc588       ?getVfTableType@UnDecorator@@AEAA?AVDName@@AEBV2@@Z 00000001801dd588 f i libvcruntime:undname.obj
 0001:001dc7c4       ?getZName@UnDecorator@@AEAA?AVDName@@_N0@Z 00000001801dd7c4 f   libvcruntime:undname.obj
 0001:001dcac0       ?length@pDNameNode@@UEBAHXZ 00000001801ddac0 f i libvcruntime:undname.obj
 0001:001dcae8       ?length@pairNode@@UEBAHXZ  00000001801ddae8 f i libvcruntime:undname.obj
 0001:001dcb3c       ?make@DNameStatusNode@@SAPEBV1@W4DNameStatus@@@Z 00000001801ddb3c f i libvcruntime:undname.obj
 0001:001dcb5c       ?parseDecoratedName@UnDecorator@@AEAA?AVDName@@XZ 00000001801ddb5c f   libvcruntime:undname.obj
 0001:001dcc90       ?raw_length@pDNameNode@@UEBAHXZ 00000001801ddc90 f i libvcruntime:undname.obj
 0001:001dcc94       ?raw_length@pairNode@@UEBAHXZ 00000001801ddc94 f i libvcruntime:undname.obj
 0001:001dcc98       __unDName                  00000001801ddc98 f   libvcruntime:undname.obj
 0001:001dccc4       __unDNameEx                00000001801ddcc4 f   libvcruntime:undname.obj
 0001:001dcda0       snprintf                   00000001801ddda0 f i libvcruntime:undname.obj
 0001:001dcdfc       sprintf_s                  00000001801dddfc f i libvcruntime:undname.obj
 0001:001dce54       __vcrt_freefls             00000001801dde54 f   libvcruntime:per_thread_data.obj
 0001:001dce74       __vcrt_freeptd_for_this_thread 00000001801dde74 f   libvcruntime:per_thread_data.obj
 0001:001dcebc       __vcrt_getptd              00000001801ddebc f   libvcruntime:per_thread_data.obj
 0001:001dced8       __vcrt_getptd_noexit       00000001801dded8 f   libvcruntime:per_thread_data.obj
 0001:001dcfa4       __vcrt_initialize_ptd      00000001801ddfa4 f   libvcruntime:per_thread_data.obj
 0001:001dcfec       __vcrt_uninitialize_ptd    00000001801ddfec f   libvcruntime:per_thread_data.obj
 0001:001dd014       __vcrt_initialize_locks    00000001801de014 f   libvcruntime:locks.obj
 0001:001dd05c       __vcrt_lock                00000001801de05c f   libvcruntime:locks.obj
 0001:001dd078       __vcrt_uninitialize_locks  00000001801de078 f   libvcruntime:locks.obj
 0001:001dd0b0       __vcrt_unlock              00000001801de0b0 f   libvcruntime:locks.obj
 0001:001dd100       _NLG_Notify                00000001801de100 f   libvcruntime:notify.obj
 0001:001dd120       __NLG_Dispatch2            00000001801de120 f   libvcruntime:notify.obj
 0001:001dd130       __NLG_Return2              00000001801de130 f   libvcruntime:notify.obj
 0001:001dd134       __except_validate_context_record 00000001801de134 f   libvcruntime:jbcxrval.obj
 0001:001dd16c       ??$_CallSETranslator@V__FrameHandler3@@@@YAHPEAUEHExceptionRecord@@PEA_KPEAU_CONTEXT@@PEAU_xDISPATCHER_CONTEXT@@PEBU_s_FuncInfo@@K1H@Z 00000001801de16c f i libvcruntime:risctrnsctrl.obj
 0001:001dd1c0       ??$_CallSETranslator@V__FrameHandler4@@@@YAHPEAUEHExceptionRecord@@PEA_KPEAU_CONTEXT@@PEAU_xDISPATCHER_CONTEXT@@PEAUFuncInfo4@FH4@@K1H@Z 00000001801de1c0 f i libvcruntime:risctrnsctrl.obj
 0001:001dd214       ?CatchTryBlock@__FrameHandler3@@SAPEBU_s_TryBlockMapEntry@@PEBU_s_FuncInfo@@H@Z 00000001801de214 f   libvcruntime:risctrnsctrl.obj
 0001:001dd278       ?DecompFuncInfo@FH4@@YA_JPEAEAEAUFuncInfo4@1@_KH_N@Z 00000001801de278 f i libvcruntime:risctrnsctrl.obj
 0001:001dd3a4       ?ExecutionInCatch@__FrameHandler3@@SA_NPEAU_xDISPATCHER_CONTEXT@@PEBU_s_FuncInfo@@@Z 00000001801de3a4 f   libvcruntime:risctrnsctrl.obj
 0001:001dd3d0       ?ExecutionInCatch@__FrameHandler4@@SA_NPEAU_xDISPATCHER_CONTEXT@@PEAUFuncInfo4@FH4@@@Z 00000001801de3d0 f   libvcruntime:risctrnsctrl.obj
 0001:001dd3d8       ?FrameUnwindToEmptyState@__FrameHandler3@@SAXPEA_KPEAU_xDISPATCHER_CONTEXT@@PEBU_s_FuncInfo@@@Z 00000001801de3d8 f   libvcruntime:risctrnsctrl.obj
 0001:001dd43c       ?FrameUnwindToEmptyState@__FrameHandler4@@SAXPEA_KPEAU_xDISPATCHER_CONTEXT@@PEAUFuncInfo4@FH4@@@Z 00000001801de43c f   libvcruntime:risctrnsctrl.obj
 0001:001dd470       ?GetEstablisherFrame@__FrameHandler3@@SAPEA_KPEA_KPEAU_xDISPATCHER_CONTEXT@@PEBU_s_FuncInfo@@0@Z 00000001801de470 f   libvcruntime:risctrnsctrl.obj
 0001:001dd558       ?GetEstablisherFrame@__FrameHandler4@@SAPEA_KPEA_KPEAU_xDISPATCHER_CONTEXT@@PEAUFuncInfo4@FH4@@0@Z 00000001801de558 f   libvcruntime:risctrnsctrl.obj
 0001:001dd57c       ?GetRangeOfTrysToCheck@__FrameHandler3@@SA?AU?$pair@Viterator@TryBlockMap@__FrameHandler3@@V123@@std@@AEAVTryBlockMap@1@HPEAU_xDISPATCHER_CONTEXT@@PEBU_s_FuncInfo@@H@Z 00000001801de57c f   libvcruntime:risctrnsctrl.obj
 0001:001dd6b4       ?GetRangeOfTrysToCheck@__FrameHandler4@@SA?AU?$pair@Viterator@TryBlockMap4@FH4@@V123@@std@@AEAVTryBlockMap4@FH4@@HPEAU_xDISPATCHER_CONTEXT@@PEAUFuncInfo4@5@H@Z 00000001801de6b4 f   libvcruntime:risctrnsctrl.obj
 0001:001dd834       ?UnwindNestedFrames@__FrameHandler3@@SAXPEA_KPEAUEHExceptionRecord@@PEAU_CONTEXT@@0PEAXPEBU_s_FuncInfo@@HHPEBU_s_HandlerType@@PEAU_xDISPATCHER_CONTEXT@@E@Z 00000001801de834 f   libvcruntime:risctrnsctrl.obj
 0001:001dd938       ?UnwindNestedFrames@__FrameHandler4@@SAXPEA_KPEAUEHExceptionRecord@@PEAU_CONTEXT@@0PEAXPEAUFuncInfo4@FH4@@HHPEAUHandlerType4@5@PEAU_xDISPATCHER_CONTEXT@@E@Z 00000001801de938 f   libvcruntime:risctrnsctrl.obj
 0001:001dda58       ?setBuffer@TryBlockMap4@FH4@@QEAAXViterator@12@@Z 00000001801dea58 f i libvcruntime:risctrnsctrl.obj
 0001:001ddc44       _CreateFrameInfo           00000001801dec44 f   libvcruntime:risctrnsctrl.obj
 0001:001ddc80       _FindAndUnlinkFrame        00000001801dec80 f   libvcruntime:risctrnsctrl.obj
 0001:001ddcd4       _GetImageBase              00000001801decd4 f   libvcruntime:risctrnsctrl.obj
 0001:001ddce8       _GetThrowImageBase         00000001801dece8 f   libvcruntime:risctrnsctrl.obj
 0001:001ddcfc       _SetImageBase              00000001801decfc f   libvcruntime:risctrnsctrl.obj
 0001:001ddd14       _SetThrowImageBase         00000001801ded14 f   libvcruntime:risctrnsctrl.obj
 0001:001ddd2c       __CxxFrameHandler3         00000001801ded2c f   libvcruntime:risctrnsctrl.obj
 0001:001dddb4       __CxxFrameHandler4         00000001801dedb4 f   libvcruntime:risctrnsctrl.obj
 0001:001ddfd4       __vcrt_FlsAlloc            00000001801defd4 f   libvcruntime:winapi_downlevel.obj
 0001:001de01c       __vcrt_FlsFree             00000001801df01c f   libvcruntime:winapi_downlevel.obj
 0001:001de064       __vcrt_FlsGetValue         00000001801df064 f   libvcruntime:winapi_downlevel.obj
 0001:001de0ac       __vcrt_FlsSetValue         00000001801df0ac f   libvcruntime:winapi_downlevel.obj
 0001:001de100       __vcrt_InitializeCriticalSectionEx 00000001801df100 f   libvcruntime:winapi_downlevel.obj
 0001:001de164       ?GetCurrentState@__FrameHandler3@@SAHPEA_KPEAU_xDISPATCHER_CONTEXT@@PEBU_s_FuncInfo@@@Z 00000001801df164 f   libvcruntime:ehstate.obj
 0001:001de18c       ?GetUnwindTryBlock@__FrameHandler3@@SAHPEA_KPEAU_xDISPATCHER_CONTEXT@@PEBU_s_FuncInfo@@@Z 00000001801df18c f   libvcruntime:ehstate.obj
 0001:001de1b8       ?SetState@__FrameHandler3@@SAXPEA_KPEBU_s_FuncInfo@@H@Z 00000001801df1b8 f   libvcruntime:ehstate.obj
 0001:001de1c4       ?SetUnwindTryBlock@__FrameHandler3@@SAXPEA_KPEAU_xDISPATCHER_CONTEXT@@PEBU_s_FuncInfo@@H@Z 00000001801df1c4 f   libvcruntime:ehstate.obj
 0001:001de200       ?StateFromControlPc@__FrameHandler3@@SAHPEBU_s_FuncInfo@@PEAU_xDISPATCHER_CONTEXT@@@Z 00000001801df200 f   libvcruntime:ehstate.obj
 0001:001de208       ?StateFromControlPc@__FrameHandler4@@SAHPEAUFuncInfo4@FH4@@PEAU_xDISPATCHER_CONTEXT@@@Z 00000001801df208 f   libvcruntime:ehstate.obj
 0001:001de210       ?StateFromIp@__FrameHandler3@@SAHPEBU_s_FuncInfo@@PEAU_xDISPATCHER_CONTEXT@@_K@Z 00000001801df210 f   libvcruntime:ehstate.obj
 0001:001de278       ?StateFromIp@__FrameHandler4@@SAHPEAUFuncInfo4@FH4@@PEAU_xDISPATCHER_CONTEXT@@_K@Z 00000001801df278 f   libvcruntime:ehstate.obj
 0001:001dfa24       ??$TypeMatchHelper@V__FrameHandler3@@@@YAHPEBU_s_HandlerType@@PEBU_s_CatchableType@@PEBU_s_ThrowInfo@@@Z 00000001801e0a24 f i libvcruntime:frame.obj
 0001:001dfb54       ??$TypeMatchHelper@V__FrameHandler4@@@@YAHPEAUHandlerType4@FH4@@PEBU_s_CatchableType@@PEBU_s_ThrowInfo@@@Z 00000001801e0b54 f i libvcruntime:frame.obj
 0001:001dfca4       ??$__InternalCxxFrameHandler@V__FrameHandler3@@@@YA?AW4_EXCEPTION_DISPOSITION@@PEAUEHExceptionRecord@@PEA_KPEAU_CONTEXT@@PEAU_xDISPATCHER_CONTEXT@@PEBU_s_FuncInfo@@H1E@Z 00000001801e0ca4 f i libvcruntime:frame.obj
 0001:001dfed8       ??$__InternalCxxFrameHandler@V__FrameHandler4@@@@YA?AW4_EXCEPTION_DISPOSITION@@PEAUEHExceptionRecord@@PEA_KPEAU_CONTEXT@@PEAU_xDISPATCHER_CONTEXT@@PEAUFuncInfo4@FH4@@H1E@Z 00000001801e0ed8 f i libvcruntime:frame.obj
 0001:001e0180       ??$__InternalCxxFrameHandlerWrapper@V__FrameHandler3@@@@YA?AW4_EXCEPTION_DISPOSITION@@PEAUEHExceptionRecord@@PEA_KPEAU_CONTEXT@@PEAU_xDISPATCHER_CONTEXT@@PEBU_s_FuncInfo@@H1E@Z 00000001801e1180 f i libvcruntime:frame.obj
 0001:001e0188       ??$__InternalCxxFrameHandlerWrapper@V__FrameHandler4@@@@YA?AW4_EXCEPTION_DISPOSITION@@PEAUEHExceptionRecord@@PEA_KPEAU_CONTEXT@@PEAU_xDISPATCHER_CONTEXT@@PEAUFuncInfo4@FH4@@H1E@Z 00000001801e1188 f i libvcruntime:frame.obj
 0001:001e01d4       ??0HandlerMap4@FH4@@QEAA@PEBUTryBlockMapEntry4@1@_KH@Z 00000001801e11d4 f i libvcruntime:frame.obj
 0001:001e0258       ??0TryBlockMap4@FH4@@QEAA@PEBUFuncInfo4@1@_K@Z 00000001801e1258 f i libvcruntime:frame.obj
 0001:001e033c       ??0bad_exception@std@@QEAA@AEBV01@@Z 00000001801e133c f i libvcruntime:frame.obj
 0001:001e0378       ??0bad_exception@std@@QEAA@XZ 00000001801e1378 f i libvcruntime:frame.obj
 0001:001e039c       ??0exception@std@@QEAA@AEBV01@@Z 00000001801e139c f i libvcruntime:frame.obj
 0001:001e03d0       ??1bad_exception@std@@UEAA@XZ 00000001801e13d0 f i libvcruntime:frame.obj
 0001:001e03e4       ??_Ebad_exception@std@@UEAAPEAXI@Z 00000001801e13e4 f i libvcruntime:frame.obj
 0001:001e03e4       ??_Eexception@std@@UEAAPEAXI@Z 00000001801e13e4 f i libvcruntime:frame.obj
 0001:001e03e4       ??_Gbad_exception@std@@UEAAPEAXI@Z 00000001801e13e4 f i libvcruntime:frame.obj
 0001:001e03e4       ??_Gexception@std@@UEAAPEAXI@Z 00000001801e13e4 f i libvcruntime:frame.obj
 0001:001e0428       ?CxxCallCatchBlock@__FrameHandler3@@SAPEAXPEAU_EXCEPTION_RECORD@@@Z 00000001801e1428 f   libvcruntime:frame.obj
 0001:001e0614       ?CxxCallCatchBlock@__FrameHandler4@@SAPEAXPEAU_EXCEPTION_RECORD@@@Z 00000001801e1614 f   libvcruntime:frame.obj
 0001:001e0854       ?DecompHandler@HandlerMap4@FH4@@AEAAXXZ 00000001801e1854 f i libvcruntime:frame.obj
 0001:001e0aa4       ?FrameUnwindToState@__FrameHandler3@@SAXPEA_KPEAU_xDISPATCHER_CONTEXT@@PEBU_s_FuncInfo@@H@Z 00000001801e1aa4 f   libvcruntime:frame.obj
 0001:001e0c30       ?FrameUnwindToState@__FrameHandler4@@SAXPEA_KPEAU_xDISPATCHER_CONTEXT@@PEAUFuncInfo4@FH4@@H@Z 00000001801e1c30 f   libvcruntime:frame.obj
 0001:001e0f3c       ?GetHandlerSearchState@__FrameHandler3@@SAHPEA_KPEAU_xDISPATCHER_CONTEXT@@PEBU_s_FuncInfo@@@Z 00000001801e1f3c f i libvcruntime:frame.obj
 0001:001e1144       ?ReadEntry@UWMap4@FH4@@AEAAXPEAPEAE@Z 00000001801e2144 f i libvcruntime:frame.obj
 0001:001e11e4       ?_CallMemberFunction1@@YAXQEAX00@Z 00000001801e21e4 f i libvcruntime:frame.obj
 0001:001e11f0       ?_CallMemberFunction2@@YAXQEAX00H@Z 00000001801e21f0 f i libvcruntime:frame.obj
 0001:001e1200       ?getStartStop@UWMap4@FH4@@QEAAXHHAEAViterator@12@0@Z 00000001801e2200 f i libvcruntime:frame.obj
 0001:001e12d0       ?getStateFromIterators@UWMap4@FH4@@SAHAEBViterator@12@H0H0@Z 00000001801e22d0 f i libvcruntime:frame.obj
 0001:001e1380       ?what@exception@std@@UEBAPEBDXZ 00000001801e2380 f i libvcruntime:frame.obj
 0001:001e13e0       _CallSettingFrame          00000001801e23e0 f   libvcruntime:handlers.obj
 0001:001e1420       _CallSettingFrame_LookupContinuationIndex 00000001801e2420 f   libvcruntime:handlers.obj
 0001:001e1450       _CallSettingFrame_NotifyContinuationAddr 00000001801e2450 f   libvcruntime:handlers.obj
 0001:001e1480       _CallSettingFrameEncoded   00000001801e2480 f   libvcruntime:handlers.obj
 0001:001e14c8       __std_exception_copy       00000001801e24c8 f   libvcruntime:std_exception.obj
 0001:001e1550       __std_exception_destroy    00000001801e2550 f   libvcruntime:std_exception.obj
 0001:001e1578       _CxxThrowException         00000001801e2578 f   libvcruntime:throw.obj
 0001:001e1620       cosf_sse2                  00000001801e2620 f   libucrt:cosf.obj
 0001:001e18c0       cosf                       00000001801e28c0 f   libucrt:cosf.obj
 0001:001e1ae0       sinf_sse2                  00000001801e2ae0 f   libucrt:sinf.obj
 0001:001e1e50       sinf                       00000001801e2e50 f   libucrt:sinf.obj
 0001:001e21a0       tanf_sse2                  00000001801e31a0 f   libucrt:tanf.obj
 0001:001e24c0       tanf                       00000001801e34c0 f   libucrt:tanf.obj
 0001:001e279c       __acrt_initialize_stdio    00000001801e379c f   libucrt:_file.obj
 0001:001e28bc       __acrt_iob_func            00000001801e38bc f   libucrt:_file.obj
 0001:001e28d0       __acrt_uninitialize_stdio  00000001801e38d0 f   libucrt:_file.obj
 0001:001e292c       _lock_file                 00000001801e392c f   libucrt:_file.obj
 0001:001e2938       _unlock_file               00000001801e3938 f   libucrt:_file.obj
 0001:001e2b34       ??$ensure_buffer_is_big_enough@D@formatting_buffer@__crt_stdio_output@@QEAA_N_KAEAV__crt_cached_ptd_host@@@Z 00000001801e3b34 f i libucrt:output.obj
 0001:001e2bdc       ??$parse_integer@KV?$c_string_character_source@D@__crt_strtox@@$0A@@__crt_strtox@@YAKAEAV__crt_cached_ptd_host@@V?$c_string_character_source@D@0@H_N@Z 00000001801e3bdc f i libucrt:output.obj
 0001:001e2e90       ??$type_case_integer@$07@?$output_processor@DV?$stream_output_adapter@D@__crt_stdio_output@@V?$standard_base@DV?$stream_output_adapter@D@__crt_stdio_output@@@2@@__crt_stdio_output@@AEAA_N_N@Z 00000001801e3e90 f i libucrt:output.obj
 0001:001e2e90       ??$type_case_integer@$07@?$output_processor@DV?$string_output_adapter@D@__crt_stdio_output@@V?$format_validation_base@DV?$string_output_adapter@D@__crt_stdio_output@@@2@@__crt_stdio_output@@AEAA_N_N@Z 00000001801e3e90 f i libucrt:output.obj
 0001:001e2e90       ??$type_case_integer@$07@?$output_processor@DV?$string_output_adapter@D@__crt_stdio_output@@V?$standard_base@DV?$string_output_adapter@D@__crt_stdio_output@@@2@@__crt_stdio_output@@AEAA_N_N@Z 00000001801e3e90 f i libucrt:output.obj
 0001:001e3094       ??$type_case_integer@$09@?$output_processor@DV?$stream_output_adapter@D@__crt_stdio_output@@V?$standard_base@DV?$stream_output_adapter@D@__crt_stdio_output@@@2@@__crt_stdio_output@@AEAA_N_N@Z 00000001801e4094 f i libucrt:output.obj
 0001:001e3094       ??$type_case_integer@$09@?$output_processor@DV?$string_output_adapter@D@__crt_stdio_output@@V?$format_validation_base@DV?$string_output_adapter@D@__crt_stdio_output@@@2@@__crt_stdio_output@@AEAA_N_N@Z 00000001801e4094 f i libucrt:output.obj
 0001:001e3094       ??$type_case_integer@$09@?$output_processor@DV?$string_output_adapter@D@__crt_stdio_output@@V?$standard_base@DV?$string_output_adapter@D@__crt_stdio_output@@@2@@__crt_stdio_output@@AEAA_N_N@Z 00000001801e4094 f i libucrt:output.obj
 0001:001e3298       ??$type_case_integer@$0BA@@?$output_processor@DV?$stream_output_adapter@D@__crt_stdio_output@@V?$standard_base@DV?$stream_output_adapter@D@__crt_stdio_output@@@2@@__crt_stdio_output@@AEAA_N_N@Z 00000001801e4298 f i libucrt:output.obj
 0001:001e3298       ??$type_case_integer@$0BA@@?$output_processor@DV?$string_output_adapter@D@__crt_stdio_output@@V?$format_validation_base@DV?$string_output_adapter@D@__crt_stdio_output@@@2@@__crt_stdio_output@@AEAA_N_N@Z 00000001801e4298 f i libucrt:output.obj
 0001:001e3298       ??$type_case_integer@$0BA@@?$output_processor@DV?$string_output_adapter@D@__crt_stdio_output@@V?$standard_base@DV?$string_output_adapter@D@__crt_stdio_output@@@2@@__crt_stdio_output@@AEAA_N_N@Z 00000001801e4298 f i libucrt:output.obj
 0001:001e349c       ??$type_case_integer_parse_into_buffer@I$07@?$output_processor@DV?$stream_output_adapter@D@__crt_stdio_output@@V?$standard_base@DV?$stream_output_adapter@D@__crt_stdio_output@@@2@@__crt_stdio_output@@AEAAXI_N@Z 00000001801e449c f i libucrt:output.obj
 0001:001e349c       ??$type_case_integer_parse_into_buffer@I$07@?$output_processor@DV?$string_output_adapter@D@__crt_stdio_output@@V?$format_validation_base@DV?$string_output_adapter@D@__crt_stdio_output@@@2@@__crt_stdio_output@@AEAAXI_N@Z 00000001801e449c f i libucrt:output.obj
 0001:001e349c       ??$type_case_integer_parse_into_buffer@I$07@?$output_processor@DV?$string_output_adapter@D@__crt_stdio_output@@V?$standard_base@DV?$string_output_adapter@D@__crt_stdio_output@@@2@@__crt_stdio_output@@AEAAXI_N@Z 00000001801e449c f i libucrt:output.obj
 0001:001e350c       ??$type_case_integer_parse_into_buffer@I$09@?$output_processor@DV?$stream_output_adapter@D@__crt_stdio_output@@V?$standard_base@DV?$stream_output_adapter@D@__crt_stdio_output@@@2@@__crt_stdio_output@@AEAAXI_N@Z 00000001801e450c f i libucrt:output.obj
 0001:001e350c       ??$type_case_integer_parse_into_buffer@I$09@?$output_processor@DV?$string_output_adapter@D@__crt_stdio_output@@V?$format_validation_base@DV?$string_output_adapter@D@__crt_stdio_output@@@2@@__crt_stdio_output@@AEAAXI_N@Z 00000001801e450c f i libucrt:output.obj
 0001:001e350c       ??$type_case_integer_parse_into_buffer@I$09@?$output_processor@DV?$string_output_adapter@D@__crt_stdio_output@@V?$standard_base@DV?$string_output_adapter@D@__crt_stdio_output@@@2@@__crt_stdio_output@@AEAAXI_N@Z 00000001801e450c f i libucrt:output.obj
 0001:001e35b8       ??$type_case_integer_parse_into_buffer@I$0BA@@?$output_processor@DV?$stream_output_adapter@D@__crt_stdio_output@@V?$standard_base@DV?$stream_output_adapter@D@__crt_stdio_output@@@2@@__crt_stdio_output@@AEAAXI_N@Z 00000001801e45b8 f i libucrt:output.obj
 0001:001e35b8       ??$type_case_integer_parse_into_buffer@I$0BA@@?$output_processor@DV?$string_output_adapter@D@__crt_stdio_output@@V?$format_validation_base@DV?$string_output_adapter@D@__crt_stdio_output@@@2@@__crt_stdio_output@@AEAAXI_N@Z 00000001801e45b8 f i libucrt:output.obj
 0001:001e35b8       ??$type_case_integer_parse_into_buffer@I$0BA@@?$output_processor@DV?$string_output_adapter@D@__crt_stdio_output@@V?$standard_base@DV?$string_output_adapter@D@__crt_stdio_output@@@2@@__crt_stdio_output@@AEAAXI_N@Z 00000001801e45b8 f i libucrt:output.obj
 0001:001e363c       ??$type_case_integer_parse_into_buffer@_K$07@?$output_processor@DV?$stream_output_adapter@D@__crt_stdio_output@@V?$standard_base@DV?$stream_output_adapter@D@__crt_stdio_output@@@2@@__crt_stdio_output@@AEAAX_K_N@Z 00000001801e463c f i libucrt:output.obj
 0001:001e363c       ??$type_case_integer_parse_into_buffer@_K$07@?$output_processor@DV?$string_output_adapter@D@__crt_stdio_output@@V?$format_validation_base@DV?$string_output_adapter@D@__crt_stdio_output@@@2@@__crt_stdio_output@@AEAAX_K_N@Z 00000001801e463c f i libucrt:output.obj
 0001:001e363c       ??$type_case_integer_parse_into_buffer@_K$07@?$output_processor@DV?$string_output_adapter@D@__crt_stdio_output@@V?$standard_base@DV?$string_output_adapter@D@__crt_stdio_output@@@2@@__crt_stdio_output@@AEAAX_K_N@Z 00000001801e463c f i libucrt:output.obj
 0001:001e36ac       ??$type_case_integer_parse_into_buffer@_K$09@?$output_processor@DV?$stream_output_adapter@D@__crt_stdio_output@@V?$standard_base@DV?$stream_output_adapter@D@__crt_stdio_output@@@2@@__crt_stdio_output@@AEAAX_K_N@Z 00000001801e46ac f i libucrt:output.obj
 0001:001e36ac       ??$type_case_integer_parse_into_buffer@_K$09@?$output_processor@DV?$string_output_adapter@D@__crt_stdio_output@@V?$format_validation_base@DV?$string_output_adapter@D@__crt_stdio_output@@@2@@__crt_stdio_output@@AEAAX_K_N@Z 00000001801e46ac f i libucrt:output.obj
 0001:001e36ac       ??$type_case_integer_parse_into_buffer@_K$09@?$output_processor@DV?$string_output_adapter@D@__crt_stdio_output@@V?$standard_base@DV?$string_output_adapter@D@__crt_stdio_output@@@2@@__crt_stdio_output@@AEAAX_K_N@Z 00000001801e46ac f i libucrt:output.obj
 0001:001e375c       ??$type_case_integer_parse_into_buffer@_K$0BA@@?$output_processor@DV?$stream_output_adapter@D@__crt_stdio_output@@V?$standard_base@DV?$stream_output_adapter@D@__crt_stdio_output@@@2@@__crt_stdio_output@@AEAAX_K_N@Z 00000001801e475c f i libucrt:output.obj
 0001:001e375c       ??$type_case_integer_parse_into_buffer@_K$0BA@@?$output_processor@DV?$string_output_adapter@D@__crt_stdio_output@@V?$format_validation_base@DV?$string_output_adapter@D@__crt_stdio_output@@@2@@__crt_stdio_output@@AEAAX_K_N@Z 00000001801e475c f i libucrt:output.obj
 0001:001e375c       ??$type_case_integer_parse_into_buffer@_K$0BA@@?$output_processor@DV?$string_output_adapter@D@__crt_stdio_output@@V?$standard_base@DV?$string_output_adapter@D@__crt_stdio_output@@@2@@__crt_stdio_output@@AEAAX_K_N@Z 00000001801e475c f i libucrt:output.obj
 0001:001e38fc       ?crop_zeroes@__crt_stdio_output@@YAXPEADQEAU__crt_locale_pointers@@@Z 00000001801e48fc f i libucrt:output.obj
 0001:001e3970       ?get_raw_ptd@__crt_cached_ptd_host@@QEAAPEAU__acrt_ptd@@XZ 00000001801e4970 f i libucrt:output.obj
 0001:001e39d8       ?parse_int_from_format_string@?$output_processor@DV?$stream_output_adapter@D@__crt_stdio_output@@V?$standard_base@DV?$stream_output_adapter@D@__crt_stdio_output@@@2@@__crt_stdio_output@@AEAA_NQEAH@Z 00000001801e49d8 f i libucrt:output.obj
 0001:001e39d8       ?parse_int_from_format_string@?$output_processor@DV?$string_output_adapter@D@__crt_stdio_output@@V?$format_validation_base@DV?$string_output_adapter@D@__crt_stdio_output@@@2@@__crt_stdio_output@@AEAA_NQEAH@Z 00000001801e49d8 f i libucrt:output.obj
 0001:001e39d8       ?parse_int_from_format_string@?$output_processor@DV?$string_output_adapter@D@__crt_stdio_output@@V?$standard_base@DV?$string_output_adapter@D@__crt_stdio_output@@@2@@__crt_stdio_output@@AEAA_NQEAH@Z 00000001801e49d8 f i libucrt:output.obj
 0001:001e3a68       ?process@?$output_processor@DV?$stream_output_adapter@D@__crt_stdio_output@@V?$standard_base@DV?$stream_output_adapter@D@__crt_stdio_output@@@2@@__crt_stdio_output@@QEAAHXZ 00000001801e4a68 f i libucrt:output.obj
 0001:001e3dec       ?process@?$output_processor@DV?$string_output_adapter@D@__crt_stdio_output@@V?$format_validation_base@DV?$string_output_adapter@D@__crt_stdio_output@@@2@@__crt_stdio_output@@QEAAHXZ 00000001801e4dec f i libucrt:output.obj
 0001:001e4154       ?process@?$output_processor@DV?$string_output_adapter@D@__crt_stdio_output@@V?$standard_base@DV?$string_output_adapter@D@__crt_stdio_output@@@2@@__crt_stdio_output@@QEAAHXZ 00000001801e5154 f i libucrt:output.obj
 0001:001e44c4       ?state_case_size@?$output_processor@DV?$stream_output_adapter@D@__crt_stdio_output@@V?$standard_base@DV?$stream_output_adapter@D@__crt_stdio_output@@@2@@__crt_stdio_output@@AEAA_NXZ 00000001801e54c4 f i libucrt:output.obj
 0001:001e464c       ?state_case_size@?$output_processor@DV?$string_output_adapter@D@__crt_stdio_output@@V?$format_validation_base@DV?$string_output_adapter@D@__crt_stdio_output@@@2@@__crt_stdio_output@@AEAA_NXZ 00000001801e564c f i libucrt:output.obj
 0001:001e464c       ?state_case_size@?$output_processor@DV?$string_output_adapter@D@__crt_stdio_output@@V?$standard_base@DV?$string_output_adapter@D@__crt_stdio_output@@@2@@__crt_stdio_output@@AEAA_NXZ 00000001801e564c f i libucrt:output.obj
 0001:001e47d4       ?state_case_type@?$output_processor@DV?$stream_output_adapter@D@__crt_stdio_output@@V?$standard_base@DV?$stream_output_adapter@D@__crt_stdio_output@@@2@@__crt_stdio_output@@AEAA_NXZ 00000001801e57d4 f i libucrt:output.obj
 0001:001e4d0c       ?state_case_type@?$output_processor@DV?$string_output_adapter@D@__crt_stdio_output@@V?$format_validation_base@DV?$string_output_adapter@D@__crt_stdio_output@@@2@@__crt_stdio_output@@AEAA_NXZ 00000001801e5d0c f i libucrt:output.obj
 0001:001e4d0c       ?state_case_type@?$output_processor@DV?$string_output_adapter@D@__crt_stdio_output@@V?$standard_base@DV?$string_output_adapter@D@__crt_stdio_output@@@2@@__crt_stdio_output@@AEAA_NXZ 00000001801e5d0c f i libucrt:output.obj
 0001:001e517c       ?type_case_Z@?$output_processor@DV?$stream_output_adapter@D@__crt_stdio_output@@V?$standard_base@DV?$stream_output_adapter@D@__crt_stdio_output@@@2@@__crt_stdio_output@@AEAA_NXZ 00000001801e617c f i libucrt:output.obj
 0001:001e517c       ?type_case_Z@?$output_processor@DV?$string_output_adapter@D@__crt_stdio_output@@V?$format_validation_base@DV?$string_output_adapter@D@__crt_stdio_output@@@2@@__crt_stdio_output@@AEAA_NXZ 00000001801e617c f i libucrt:output.obj
 0001:001e517c       ?type_case_Z@?$output_processor@DV?$string_output_adapter@D@__crt_stdio_output@@V?$standard_base@DV?$string_output_adapter@D@__crt_stdio_output@@@2@@__crt_stdio_output@@AEAA_NXZ 00000001801e617c f i libucrt:output.obj
 0001:001e51f8       ?type_case_a@?$output_processor@DV?$stream_output_adapter@D@__crt_stdio_output@@V?$standard_base@DV?$stream_output_adapter@D@__crt_stdio_output@@@2@@__crt_stdio_output@@AEAA_NXZ 00000001801e61f8 f i libucrt:output.obj
 0001:001e51f8       ?type_case_a@?$output_processor@DV?$string_output_adapter@D@__crt_stdio_output@@V?$format_validation_base@DV?$string_output_adapter@D@__crt_stdio_output@@@2@@__crt_stdio_output@@AEAA_NXZ 00000001801e61f8 f i libucrt:output.obj
 0001:001e51f8       ?type_case_a@?$output_processor@DV?$string_output_adapter@D@__crt_stdio_output@@V?$standard_base@DV?$string_output_adapter@D@__crt_stdio_output@@@2@@__crt_stdio_output@@AEAA_NXZ 00000001801e61f8 f i libucrt:output.obj
 0001:001e5454       ?type_case_c_tchar@?$output_processor@DV?$stream_output_adapter@D@__crt_stdio_output@@V?$standard_base@DV?$stream_output_adapter@D@__crt_stdio_output@@@2@@__crt_stdio_output@@AEAA_ND@Z 00000001801e6454 f i libucrt:output.obj
 0001:001e5454       ?type_case_c_tchar@?$output_processor@DV?$string_output_adapter@D@__crt_stdio_output@@V?$format_validation_base@DV?$string_output_adapter@D@__crt_stdio_output@@@2@@__crt_stdio_output@@AEAA_ND@Z 00000001801e6454 f i libucrt:output.obj
 0001:001e5454       ?type_case_c_tchar@?$output_processor@DV?$string_output_adapter@D@__crt_stdio_output@@V?$standard_base@DV?$string_output_adapter@D@__crt_stdio_output@@@2@@__crt_stdio_output@@AEAA_ND@Z 00000001801e6454 f i libucrt:output.obj
 0001:001e5528       ?type_case_n@?$output_processor@DV?$stream_output_adapter@D@__crt_stdio_output@@V?$standard_base@DV?$stream_output_adapter@D@__crt_stdio_output@@@2@@__crt_stdio_output@@AEAA_NXZ 00000001801e6528 f i libucrt:output.obj
 0001:001e5528       ?type_case_n@?$output_processor@DV?$string_output_adapter@D@__crt_stdio_output@@V?$format_validation_base@DV?$string_output_adapter@D@__crt_stdio_output@@@2@@__crt_stdio_output@@AEAA_NXZ 00000001801e6528 f i libucrt:output.obj
 0001:001e5528       ?type_case_n@?$output_processor@DV?$string_output_adapter@D@__crt_stdio_output@@V?$standard_base@DV?$string_output_adapter@D@__crt_stdio_output@@@2@@__crt_stdio_output@@AEAA_NXZ 00000001801e6528 f i libucrt:output.obj
 0001:001e55e0       ?type_case_s@?$output_processor@DV?$stream_output_adapter@D@__crt_stdio_output@@V?$standard_base@DV?$stream_output_adapter@D@__crt_stdio_output@@@2@@__crt_stdio_output@@AEAA_NXZ 00000001801e65e0 f i libucrt:output.obj
 0001:001e55e0       ?type_case_s@?$output_processor@DV?$string_output_adapter@D@__crt_stdio_output@@V?$format_validation_base@DV?$string_output_adapter@D@__crt_stdio_output@@@2@@__crt_stdio_output@@AEAA_NXZ 00000001801e65e0 f i libucrt:output.obj
 0001:001e55e0       ?type_case_s@?$output_processor@DV?$string_output_adapter@D@__crt_stdio_output@@V?$standard_base@DV?$string_output_adapter@D@__crt_stdio_output@@@2@@__crt_stdio_output@@AEAA_NXZ 00000001801e65e0 f i libucrt:output.obj
 0001:001e5680       ?update_locale_slow@__crt_cached_ptd_host@@AEAAXXZ 00000001801e6680 f i libucrt:output.obj
 0001:001e56f8       ?validate_stream_is_ansi_if_required@?$__acrt_stdio_char_traits@D@@SA_NQEAU_iobuf@@@Z 00000001801e66f8 f i libucrt:output.obj
 0001:001e5794       ?write_string@?$string_output_adapter@D@__crt_stdio_output@@QEBAXQEBDHQEAHAEAV__crt_cached_ptd_host@@@Z 00000001801e6794 f i libucrt:output.obj
 0001:001e5838       ?write_string_impl@?$output_adapter_common@DV?$stream_output_adapter@D@__crt_stdio_output@@@__crt_stdio_output@@IEBAXQEBDHQEAHAEAV__crt_cached_ptd_host@@@Z 00000001801e6838 f i libucrt:output.obj
 0001:001e5908       __stdio_common_vfprintf    00000001801e6908 f   libucrt:output.obj
 0001:001e5a2c       __stdio_common_vsprintf    00000001801e6a2c f   libucrt:output.obj
 0001:001e5c80       __stdio_common_vsprintf_s  00000001801e6c80 f   libucrt:output.obj
 0001:001e5da0       _fpclass                   00000001801e6da0 f   libucrt:ieeemisc.obj
 0001:001e5e40       powf                       00000001801e6e40 f   libucrt:powf.obj
 0001:001e6d00       atan2f                     00000001801e7d00 f   libucrt:atan2f.obj
 0001:001e7120       acosf                      00000001801e8120 f   libucrt:acosf.obj
 0001:001e7360       free                       00000001801e8360 f   libucrt:free.obj
 0001:001e7368       _seh_filter_dll            00000001801e8368 f   libucrt:exception_filter.obj
 0001:001e737c       _seh_filter_exe            00000001801e837c f   libucrt:exception_filter.obj
 0001:001e7758       __acrt_initialize_thread_local_exit_callback 00000001801e8758 f   libucrt:exit.obj
 0001:001e7760       _cexit                     00000001801e8760 f   libucrt:exit.obj
 0001:001e7770       _exit                      00000001801e8770 f   libucrt:exit.obj
 0001:001e777c       _is_c_termination_complete 00000001801e877c f   libucrt:exit.obj
 0001:001e7944       __acrt_allocate_buffer_for_argv 00000001801e8944 f   libucrt:argv_parsing.obj
 0001:001e79a4       _configure_narrow_argv     00000001801e89a4 f   libucrt:argv_parsing.obj
 0001:001e7d28       __dcrt_uninitialize_environments_nolock 00000001801e8d28 f   libucrt:environment_initialization.obj
 0001:001e7d6c       _initialize_narrow_environment 00000001801e8d6c f   libucrt:environment_initialization.obj
 0001:001e80b4       _crt_atexit                00000001801e90b4 f   libucrt:onexit.obj
 0001:001e80c4       _execute_onexit_table      00000001801e90c4 f   libucrt:onexit.obj
 0001:001e8108       _initialize_onexit_table   00000001801e9108 f   libucrt:onexit.obj
 0001:001e8130       _register_onexit_function  00000001801e9130 f   libucrt:onexit.obj
 0001:001e81b0       __acrt_uninitialize_command_line 00000001801e91b0 f   libucrt:argv_data.obj
 0001:001e82a8       __acrt_initialize          00000001801e92a8 f   libucrt:initialization.obj
 0001:001e82bc       __acrt_thread_attach       00000001801e92bc f   libucrt:initialization.obj
 0001:001e82d0       __acrt_thread_detach       00000001801e92d0 f   libucrt:initialization.obj
 0001:001e82e0       __acrt_uninitialize        00000001801e92e0 f   libucrt:initialization.obj
 0001:001e8318       __acrt_uninitialize_critical 00000001801e9318 f   libucrt:initialization.obj
 0001:001e8328       _initterm                  00000001801e9328 f   libucrt:initterm.obj
 0001:001e8360       _initterm_e                00000001801e9360 f   libucrt:initterm.obj
 0001:001e839c       terminate                  00000001801e939c f   libucrt:terminate.obj
 0001:001e83bc       abort                      00000001801e93bc f   libucrt:abort.obj
 0001:001e8420       malloc                     00000001801e9420 f   libucrt:malloc.obj
 0001:001e8430       strcpy_s                   00000001801e9430 f   libucrt:strcpy_s.obj
 0001:001e84b0       ??$parse_integer@KV?$c_string_character_source@D@__crt_strtox@@$00@__crt_strtox@@YAKAEAV__crt_cached_ptd_host@@V?$c_string_character_source@D@0@H_N@Z 00000001801e94b0 f i libucrt:atox.obj
 0001:001e878c       _ischartype_l              00000001801e978c f i libucrt:atox.obj
 0001:001e8804       atol                       00000001801e9804 f   libucrt:atox.obj
 0001:001e88c0       calloc                     00000001801e98c0 f   libucrt:calloc.obj
 0001:001e88d0       wcsncmp                    00000001801e98d0 f   libucrt:wcsncmp.obj
 0001:001e8910       __remainder_piby2d2f_forAsm 00000001801e9910 f   libucrt:remainder_piby2f_forasm.obj
 0001:001e8a60       __remainder_piby2_fma3     00000001801e9a60 f   libucrt:remainder_piby2_forfma3.obj
 0001:001e8c50       __remainder_piby2_fma3_bdl 00000001801e9c50 f   libucrt:remainder_piby2_forfma3.obj
 0001:001e8cd0       _cosf_special              00000001801e9cd0 f   libucrt:sincos_special.obj
 0001:001e8d60       _sinf_special              00000001801e9d60 f   libucrt:sincos_special.obj
 0001:001e8df0       _tanf_special              00000001801e9df0 f   libucrt:sincos_special.obj
 0001:001e8e80       _clrfp                     00000001801e9e80 f   libucrt:fpctrl.obj
 0001:001e8ea0       _ctrlfp                    00000001801e9ea0 f   libucrt:fpctrl.obj
 0001:001e8f20       _get_fpcsr                 00000001801e9f20 f   libucrt:fpctrl.obj
 0001:001e8f20       _get_fpsr                  00000001801e9f20 f   libucrt:fpctrl.obj
 0001:001e8f30       _set_fpcsr                 00000001801e9f30 f   libucrt:fpctrl.obj
 0001:001e8f30       _set_fpsr                  00000001801e9f30 f   libucrt:fpctrl.obj
 0001:001e8f40       _set_statfp                00000001801e9f40 f   libucrt:fpctrl.obj
 0001:001e8f60       _statfp                    00000001801e9f60 f   libucrt:fpctrl.obj
 0001:001e8f70       __acrt_initialize_fma3     00000001801e9f70 f   libucrt:fma3_available.obj
 0001:001e9030       __remainder_piby2d2f_forC  00000001801ea030 f   libucrt:remainder_piby2f_forc.obj
 0001:001e91bc       ?get_raw_ptd_noexit@__crt_cached_ptd_host@@QEAAPEAU__acrt_ptd@@XZ 00000001801ea1bc f i libucrt:invalid_parameter.obj
 0001:001e9228       ?value@?$dual_state_global@P6AXPEB_W00I_K@Z@__crt_state_management@@QEAAAEAP6AXPEB_W00I_K@ZAEAV__crt_cached_ptd_host@@@Z 00000001801ea228 f i libucrt:invalid_parameter.obj
 0001:001e9274       __acrt_call_reportfault    00000001801ea274 f   libucrt:invalid_parameter.obj
 0001:001e93e4       __acrt_initialize_invalid_parameter_handler 00000001801ea3e4 f   libucrt:invalid_parameter.obj
 0001:001e93ec       _invalid_parameter         00000001801ea3ec f   libucrt:invalid_parameter.obj
 0001:001e9488       _invalid_parameter_internal 00000001801ea488 f   libucrt:invalid_parameter.obj
 0001:001e9540       _invalid_parameter_noinfo  00000001801ea540 f   libucrt:invalid_parameter.obj
 0001:001e9560       _invoke_watson             00000001801ea560 f   libucrt:invalid_parameter.obj
 0001:001e95a8       __acrt_errno_from_os_error 00000001801ea5a8 f   libucrt:errno.obj
 0001:001e9678       __acrt_errno_map_os_error  00000001801ea678 f   libucrt:errno.obj
 0001:001e96a0       __acrt_errno_map_os_error_ptd 00000001801ea6a0 f   libucrt:errno.obj
 0001:001e96c4       __doserrno                 00000001801ea6c4 f   libucrt:errno.obj
 0001:001e96e8       _errno                     00000001801ea6e8 f   libucrt:errno.obj
 0001:001e9710       _calloc_base               00000001801ea710 f   libucrt:calloc_base.obj
 0001:001e9790       _free_base                 00000001801ea790 f   libucrt:free_base.obj
 0001:001e999c       __acrt_AppPolicyGetProcessTerminationMethodInternal 00000001801ea99c f   libucrt:winapi_thunks.obj
 0001:001e99f8       __acrt_AreFileApisANSI     00000001801ea9f8 f   libucrt:winapi_thunks.obj
 0001:001e9a44       __acrt_FlsAlloc            00000001801eaa44 f   libucrt:winapi_thunks.obj
 0001:001e9a4c       __acrt_FlsFree             00000001801eaa4c f   libucrt:winapi_thunks.obj
 0001:001e9a54       __acrt_FlsGetValue         00000001801eaa54 f   libucrt:winapi_thunks.obj
 0001:001e9a5c       __acrt_FlsGetValue2        00000001801eaa5c f   libucrt:winapi_thunks.obj
 0001:001e9a68       __acrt_FlsSetValue         00000001801eaa68 f   libucrt:winapi_thunks.obj
 0001:001e9a70       __acrt_InitializeCriticalSectionEx 00000001801eaa70 f   libucrt:winapi_thunks.obj
 0001:001e9a78       __acrt_LCMapStringEx       00000001801eaa78 f   libucrt:winapi_thunks.obj
 0001:001e9b6c       __acrt_LocaleNameToLCID    00000001801eab6c f   libucrt:winapi_thunks.obj
 0001:001e9bd0       __acrt_initialize_winapi_thunks 00000001801eabd0 f   libucrt:winapi_thunks.obj
 0001:001e9c00       __acrt_tls2_supported      00000001801eac00 f   libucrt:winapi_thunks.obj
 0001:001e9c44       __acrt_uninitialize_winapi_thunks 00000001801eac44 f   libucrt:winapi_thunks.obj
 0001:001e9c88       _fcloseall                 00000001801eac88 f   libucrt:closeall.obj
 0001:001e9f1c       __acrt_stdio_flush_nolock  00000001801eaf1c f   libucrt:fflush.obj
 0001:001e9fa8       _fflush_nolock             00000001801eafa8 f   libucrt:fflush.obj
 0001:001ea07c       _flushall                  00000001801eb07c f   libucrt:fflush.obj
 0001:001ea084       __acrt_stdio_free_buffer_nolock 00000001801eb084 f   libucrt:_freebuf.obj
 0001:001ea2d0       __acrt_initialize_lowio    00000001801eb2d0 f   libucrt:ioinit.obj
 0001:001ea30c       __acrt_uninitialize_lowio  00000001801eb30c f   libucrt:ioinit.obj
 0001:001ea350       _malloc_base               00000001801eb350 f   libucrt:malloc_base.obj
 0001:001ea3b0       strnlen                    00000001801eb3b0 f   libucrt:strnlen.obj
 0001:001ea540       wcsnlen                    00000001801eb540 f   libucrt:strnlen.obj
 0001:001ea748       __acrt_update_locale_info  00000001801eb748 f   libucrt:locale_update.obj
 0001:001ea77c       __acrt_update_locale_info_explicit 00000001801eb77c f   libucrt:locale_update.obj
 0001:001ea7b4       __acrt_update_multibyte_info 00000001801eb7b4 f   libucrt:locale_update.obj
 0001:001ea7e8       __acrt_update_multibyte_info_explicit 00000001801eb7e8 f   libucrt:locale_update.obj
 0001:001eb330       __acrt_fp_format           00000001801ec330 f   libucrt:cvt.obj
 0001:001eb618       _wctomb_internal           00000001801ec618 f   libucrt:wctomb.obj
 0001:001eb7c8       _mbtowc_internal           00000001801ec7c8 f   libucrt:mbtowc.obj
 0001:001eb940       ?__mblen_utf8@__crt_mbstring@@YAHPEBD@Z 00000001801ec940 f   libucrt:mbrtoc32.obj
 0001:001eb978       ?__mbrtoc32_utf8@__crt_mbstring@@YA_KPEA_UPEBD_KPEAU_Mbstatet@@AEAV__crt_cached_ptd_host@@@Z 00000001801ec978 f   libucrt:mbrtoc32.obj
 0001:001ebb38       ?__c16rtomb_utf8@__crt_mbstring@@YA_KPEAD_SPEAU_Mbstatet@@AEAV__crt_cached_ptd_host@@@Z 00000001801ecb38 f   libucrt:c16rtomb.obj
 0001:001ebbdc       ?__mbrtowc_utf8@__crt_mbstring@@YA_KPEA_WPEBD_KPEAU_Mbstatet@@AEAV__crt_cached_ptd_host@@@Z 00000001801ecbdc f   libucrt:mbrtowc.obj
 0001:001ebc24       ?__mbsrtowcs_utf8@__crt_mbstring@@YA_KPEA_WPEAPEBD_KPEAU_Mbstatet@@AEAV__crt_cached_ptd_host@@@Z 00000001801ecc24 f   libucrt:mbrtowc.obj
 0001:001ebddc       _fileno                    00000001801ecddc f   libucrt:fileno.obj
 0001:001ebe04       _get_printf_count_output   00000001801ece04 f   libucrt:printf_count_output.obj
 0001:001ebe1c       _fputc_nolock_internal     00000001801ece1c f   libucrt:fputc.obj
 0001:001ebe34       __acrt_should_use_temporary_buffer 00000001801ece34 f   libucrt:_sftbuf.obj
 0001:001ebe80       __acrt_stdio_begin_temporary_buffering_nolock 00000001801ece80 f   libucrt:_sftbuf.obj
 0001:001ebf48       __acrt_stdio_end_temporary_buffering_nolock 00000001801ecf48 f   libucrt:_sftbuf.obj
 0001:001ec298       ?internal_get_ptd_head_slow@@YAPEAU__acrt_ptd@@XZ 00000001801ed298 f   libucrt:per_thread_data.obj
 0001:001ec3b8       __acrt_freeptd             00000001801ed3b8 f   libucrt:per_thread_data.obj
 0001:001ec408       __acrt_getptd              00000001801ed408 f   libucrt:per_thread_data.obj
 0001:001ec424       __acrt_getptd_head         00000001801ed424 f   libucrt:per_thread_data.obj
 0001:001ec468       __acrt_getptd_noexit       00000001801ed468 f   libucrt:per_thread_data.obj
 0001:001ec4f8       __acrt_getptd_noexit_explicit 00000001801ed4f8 f   libucrt:per_thread_data.obj
 0001:001ec554       __acrt_initialize_ptd      00000001801ed554 f   libucrt:per_thread_data.obj
 0001:001ec598       __acrt_uninitialize_ptd    00000001801ed598 f   libucrt:per_thread_data.obj
 0001:001ec62c       __acrt_set_locale_changed  00000001801ed62c f   libucrt:wsetlocale.obj
 0001:001ec638       __acrt_uninitialize_locale 00000001801ed638 f   libucrt:wsetlocale.obj
 0001:001ec780       _handle_error              00000001801ed780 f   libucrt:libm_error.obj
 0001:001ec8c0       _handle_errorf             00000001801ed8c0 f   libucrt:libm_error.obj
 0001:001eca00       _handle_nan                00000001801eda00 f   libucrt:libm_error.obj
 0001:001eca20       _handle_nanf               00000001801eda20 f   libucrt:libm_error.obj
 0001:001eca30       _powf_special              00000001801eda30 f   libucrt:pow_special.obj
 0001:001ecba0       atan2f_fma                 00000001801edba0 f   libucrt:atan2f.obj
 0001:001ecf80       acosf_fma                  00000001801edf80 f   libucrt:acosf.obj
 0001:001ed180       __acrt_initialize_locks    00000001801ee180 f   libucrt:locks.obj
 0001:001ed1c8       __acrt_lock                00000001801ee1c8 f   libucrt:locks.obj
 0001:001ed1e4       __acrt_uninitialize_locks  00000001801ee1e4 f   libucrt:locks.obj
 0001:001ed21c       __acrt_unlock              00000001801ee21c f   libucrt:locks.obj
 0001:001ed238       __acrt_app_verifier_enabled 00000001801ee238 f   libucrt:peb_access.obj
 0001:001ed254       __acrt_is_secure_process   00000001801ee254 f   libucrt:peb_access.obj
 0001:001ed26c       __acrt_get_process_end_policy 00000001801ee26c f   libucrt:win_policies.obj
 0001:001ed2b0       ??$__acrt_convert_wcs_mbs_cp@D_WV<lambda_7c9dea7b4ca7285d2cdb541a38da6275>@@U__crt_win32_buffer_internal_dynamic_resizing@@@@YAHQEBDAEAV?$__crt_win32_buffer@_WU__crt_win32_buffer_internal_dynamic_resizing@@@@AEBV<lambda_7c9dea7b4ca7285d2cdb541a38da6275>@@I@Z 00000001801ee2b0 f i libucrt:argv_wildcards.obj
 0001:001ed450       ??$__acrt_convert_wcs_mbs_cp@_WDV<lambda_d8593a27d1aa8c02be35c86a17d324c4>@@U__crt_win32_buffer_internal_dynamic_resizing@@@@YAHQEB_WAEAV?$__crt_win32_buffer@DU__crt_win32_buffer_internal_dynamic_resizing@@@@AEBV<lambda_d8593a27d1aa8c02be35c86a17d324c4>@@I@Z 00000001801ee450 f i libucrt:argv_wildcards.obj
 0001:001edd1c       ??0_LocaleUpdate@@QEAA@QEAU__crt_locale_pointers@@@Z 00000001801eed1c f i libucrt:argv_wildcards.obj
 0001:001eddb8       __acrt_expand_narrow_argv_wildcards 00000001801eedb8 f   libucrt:argv_wildcards.obj
 0001:001eddc0       ??$__acrt_convert_wcs_mbs_cp@_WDV<lambda_f788ae46380686e8b737efdd8c720d07>@@U__crt_win32_buffer_no_resizing@@@@YAHQEB_WAEAV?$__crt_win32_buffer@DU__crt_win32_buffer_no_resizing@@@@AEBV<lambda_f788ae46380686e8b737efdd8c720d07>@@I@Z 00000001801eedc0 f i libucrt:getmodulefilenamea.obj
 0001:001ededc       __acrt_GetModuleFileNameA  00000001801eeedc f   libucrt:getmodulefilenamea.obj
 0001:001ee808       __acrt_initialize_multibyte 00000001801ef808 f   libucrt:mbctype.obj
 0001:001ee868       __acrt_update_thread_multibyte_data 00000001801ef868 f   libucrt:mbctype.obj
 0001:001ee884       _setmbcp_nolock            00000001801ef884 f   libucrt:mbctype.obj
 0001:001eebc0       _ismbblead                 00000001801efbc0 f   libucrt:ismbbyte.obj
 0001:001eebd4       __acrt_initialize_command_line 00000001801efbd4 f   libucrt:argv_data.obj
 0001:001eebfc       __acrt_MultiByteToWideChar 00000001801efbfc f   libucrt:multibytetowidechar.obj
 0001:001eec8c       __acrt_WideCharToMultiByte 00000001801efc8c f   libucrt:widechartomultibyte.obj
 0001:001eed6c       __dcrt_get_narrow_environment_from_os 00000001801efd6c f   libucrt:get_environment_from_os.obj
 0001:001eee80       _recalloc_base             00000001801efe80 f   libucrt:recalloc.obj
 0001:001eef20       _recalloc                  00000001801eff20 f   libucrt:recalloc.obj
 0001:001eef30       _get_heap_handle           00000001801eff30 f   libucrt:heap_handle.obj
 0001:001eef40       __acrt_initialize_heap     00000001801eff40 f   libucrt:heap_handle.obj
 0001:001eef70       __acrt_uninitialize_heap   00000001801eff70 f   libucrt:heap_handle.obj
 0001:001eef90       __acrt_getheap             00000001801eff90 f   libucrt:heap_handle.obj
 0001:001eef98       __acrt_execute_initializers 00000001801eff98 f   libucrt:shared_initialization.obj
 0001:001ef018       __acrt_execute_uninitializers 00000001801f0018 f   libucrt:shared_initialization.obj
 0001:001ef060       _callnewh                  00000001801f0060 f   libucrt:new_handler.obj
 0001:001ef0a0       __acrt_initialize_new_handler 00000001801f00a0 f   libucrt:new_handler.obj
 0001:001ef0b0       _query_new_handler         00000001801f00b0 f   libucrt:new_handler.obj
 0001:001ef0f0       _set_new_handler           00000001801f00f0 f   libucrt:new_handler.obj
 0001:001ef150       ?_set_new_handler@@YAP6AH_K@ZH@Z 00000001801f0150 f   libucrt:new_handler.obj
 0001:001ef1a4       __acrt_get_sigabrt_handler 00000001801f01a4 f   libucrt:signal.obj
 0001:001ef1d4       __acrt_initialize_signal_handlers 00000001801f01d4 f   libucrt:signal.obj
 0001:001ef1f4       raise                      00000001801f01f4 f   libucrt:signal.obj
 0001:001ef450       __acrt_has_user_matherr    00000001801f0450 f   libucrt:matherr.obj
 0001:001ef470       __acrt_initialize_user_matherr 00000001801f0470 f   libucrt:matherr.obj
 0001:001ef480       __acrt_invoke_user_matherr 00000001801f0480 f   libucrt:matherr.obj
 0001:001ef4b0       __pctype_func              00000001801f04b0 f   libucrt:ctype.obj
 0001:001ef4e0       _isctype_l                 00000001801f04e0 f   libucrt:isctype.obj
 0001:001ef5f0       _query_new_mode            00000001801f05f0 f   libucrt:new_mode.obj
 0001:001ef600       _set_new_mode              00000001801f0600 f   libucrt:new_mode.obj
 0001:001ef62c       __acrt_DownlevelLocaleNameToLCID 00000001801f062c f   libucrt:lcidtoname_downlevel.obj
 0001:001ef7f8       fclose                     00000001801f07f8 f   libucrt:fclose.obj
 0001:001ef91c       _commit                    00000001801f091c f   libucrt:commit.obj
 0001:001f01dc       _write_internal            00000001801f11dc f   libucrt:write.obj
 0001:001f02fc       _write_nolock              00000001801f12fc f   libucrt:write.obj
 0001:001f062c       __acrt_lowio_create_handle_array 00000001801f162c f   libucrt:osfinfo.obj
 0001:001f06d4       __acrt_lowio_destroy_handle_array 00000001801f16d4 f   libucrt:osfinfo.obj
 0001:001f0724       __acrt_lowio_ensure_fh_exists 00000001801f1724 f   libucrt:osfinfo.obj
 0001:001f07cc       __acrt_lowio_lock_fh       00000001801f17cc f   libucrt:osfinfo.obj
 0001:001f07f4       __acrt_lowio_unlock_fh     00000001801f17f4 f   libucrt:osfinfo.obj
 0001:001f081c       _free_osfhnd               00000001801f181c f   libucrt:osfinfo.obj
 0001:001f08d8       _get_osfhandle             00000001801f18d8 f   libucrt:osfinfo.obj
 0001:001f0950       __acrt_add_locale_ref      00000001801f1950 f   libucrt:locale_refcounting.obj
 0001:001f09dc       __acrt_free_locale         00000001801f19dc f   libucrt:locale_refcounting.obj
 0001:001f0b54       __acrt_locale_add_lc_time_reference 00000001801f1b54 f   libucrt:locale_refcounting.obj
 0001:001f0b7c       __acrt_locale_free_lc_time_if_unreferenced 00000001801f1b7c f   libucrt:locale_refcounting.obj
 0001:001f0bb4       __acrt_locale_release_lc_time_reference 00000001801f1bb4 f   libucrt:locale_refcounting.obj
 0001:001f0bdc       __acrt_release_locale_ref  00000001801f1bdc f   libucrt:locale_refcounting.obj
 0001:001f0c84       __acrt_update_thread_locale_data 00000001801f1c84 f   libucrt:locale_refcounting.obj
 0001:001f0cf4       _updatetlocinfoEx_nolock   00000001801f1cf4 f   libucrt:locale_refcounting.obj
 0001:001f0e2c       __acrt_fp_strflt_to_string 00000001801f1e2c f   libucrt:_fptostr.obj
 0001:001f0f40       ?divide@__crt_strtox@@YA_KAEAUbig_integer@1@AEBU21@@Z 00000001801f1f40 f i libucrt:cfout.obj
 0001:001f13cc       __acrt_fltout              00000001801f23cc f   libucrt:cfout.obj
 0001:001f26e0       fegetround                 00000001801f36e0 f   libucrt:fegetround.obj
 0001:001f26f4       ?__c32rtomb_utf8@__crt_mbstring@@YA_KPEAD_UPEAU_Mbstatet@@AEAV__crt_cached_ptd_host@@@Z 00000001801f36f4 f   libucrt:c32rtomb.obj
 0001:001f2798       ?reset_and_return@__crt_mbstring@@YA_K_KPEAU_Mbstatet@@@Z 00000001801f3798 f   libucrt:common_utf8.obj
 0001:001f27a0       ?return_illegal_sequence@__crt_mbstring@@YA_KPEAU_Mbstatet@@AEAV__crt_cached_ptd_host@@@Z 00000001801f37a0 f   libucrt:common_utf8.obj
 0001:001f2934       __acrt_stdio_flush_and_write_narrow_nolock 00000001801f3934 f   libucrt:_flsbuf.obj
 0001:001f2a00       _isatty                    00000001801f3a00 f   libucrt:isatty.obj
 0001:001f2a60       __acrt_locale_free_monetary 00000001801f3a60 f   libucrt:initmon.obj
 0001:001f2b6c       __acrt_locale_free_numeric 00000001801f3b6c f   libucrt:initnum.obj
 0001:001f2c0c       __acrt_locale_free_time    00000001801f3c0c f   libucrt:inittime.obj
 0001:001f2d14       __acrt_GetStringTypeA      00000001801f3d14 f   libucrt:getstringtypea.obj
 0001:001f2eb0       _raise_exc                 00000001801f3eb0 f   libucrt:fpexcept.obj
 0001:001f2ee0       _raise_exc_ex              00000001801f3ee0 f   libucrt:fpexcept.obj
 0001:001f31f0       _raise_excf                00000001801f41f0 f   libucrt:fpexcept.obj
 0001:001f3220       _set_errno_from_matherr    00000001801f4220 f   libucrt:fpexcept.obj
 0001:001f3260       _handle_nanf_fma           00000001801f4260 f   libucrt:libm_error.obj
 0001:001f3270       qsort                      00000001801f4270 f   libucrt:qsort.obj
 0001:001f3610       strncpy_s                  00000001801f4610 f   libucrt:strncpy_s.obj
 0001:001f37e0       strpbrk                    00000001801f47e0 f   libucrt:strpbrk.obj
 0001:001f3b98       _mbsdec                    00000001801f4b98 f   libucrt:mbsdec.obj
 0001:001f3ba0       _mbsdec_l                  00000001801f4ba0 f   libucrt:mbsdec.obj
 0001:001f3f68       __acrt_LCMapStringA        00000001801f4f68 f   libucrt:lcmapstringa.obj
 0001:001f4020       _msize_base                00000001801f5020 f   libucrt:msize.obj
 0001:001f4060       _msize                     00000001801f5060 f   libucrt:msize.obj
 0001:001f4070       _realloc_base              00000001801f5070 f   libucrt:realloc_base.obj
 0001:001f40f0       __ascii_wcsnicmp           00000001801f50f0 f   libucrt:wcsnicmp.obj
 0001:001f41d0       _close_internal            00000001801f51d0 f   libucrt:close.obj
 0001:001f4294       _close_nolock_internal     00000001801f5294 f   libucrt:close.obj
 0001:001f4364       ?__acrt_stdio_free_stream@@YAXV__crt_stdio_stream@@@Z 00000001801f5364 f   libucrt:stream.obj
 0001:001f4550       _lseeki64                  00000001801f5550 f   libucrt:lseek.obj
 0001:001f45ec       _lseeki64_nolock_internal  00000001801f55ec f   libucrt:lseek.obj
 0001:001f45f4       _putwch_nolock             00000001801f55f4 f   libucrt:putwch.obj
 0001:001f4634       _query_app_type            00000001801f5634 f   libucrt:report_runtime_error.obj
 0001:001f4640       _controlfp_s               00000001801f5640 f   libucrt:contrlfp.obj
 0001:001f46b0       fegetenv                   00000001801f56b0 f   libucrt:fegetenv.obj
 0001:001f46d0       fesetenv                   00000001801f56d0 f   libucrt:fesetenv.obj
 0001:001f4740       feholdexcept               00000001801f5740 f   libucrt:feholdexcept.obj
 0001:001f47a0       ceil                       00000001801f57a0 f   libucrt:ceil.obj
 0001:001f4870       log10                      00000001801f5870 f   libucrt:log10.obj
 0001:001f4e20       __acrt_fenv_get_common_round_control 00000001801f5e20 f   libucrt:_fenvutils.obj
 0001:001f4e30       __acrt_fenv_get_control    00000001801f5e30 f   libucrt:_fenvutils.obj
 0001:001f4f10       __acrt_fenv_get_status     00000001801f5f10 f   libucrt:_fenvutils.obj
 0001:001f4f70       __acrt_fenv_set_control    00000001801f5f70 f   libucrt:_fenvutils.obj
 0001:001f50a0       __acrt_fenv_set_status     00000001801f60a0 f   libucrt:_fenvutils.obj
 0001:001f5114       __acrt_stdio_allocate_buffer_nolock 00000001801f6114 f   libucrt:_getbuf.obj
 0001:001f5180       _guard_check_icall         00000001801f6180 f i libucrt:checkcfg.obj
 0001:001f51a0       __strncnt                  00000001801f61a0 f   libucrt:strncnt.obj
 0001:001f51b8       __dcrt_lowio_ensure_console_output_initialized 00000001801f61b8 f   libucrt:initcon.obj
 0001:001f520c       __dcrt_terminate_console_output 00000001801f620c f   libucrt:initcon.obj
 0001:001f5228       __dcrt_write_console       00000001801f6228 f   libucrt:initcon.obj
 0001:001f52f0       _clearfp                   00000001801f62f0 f   libucrt:ieee.obj
 0001:001f5360       _control87                 00000001801f6360 f   libucrt:ieee.obj
 0001:001f5610       ceil_sse41                 00000001801f6610 f   libucrt:floorceil_sse41.obj
 0001:001f5620       _log10_special             00000001801f6620 f   libucrt:log_special.obj
 0001:001f56e0       _FindPESection             00000001801f66e0 f   LIBCMT:pesect.obj
 0001:001f5730       _IsNonwritableInCurrentImage 00000001801f6730 f   LIBCMT:pesect.obj
 0001:001f5780       _ValidateImageBase         00000001801f6780 f   LIBCMT:pesect.obj
 0001:001f57ac       __GSHandlerCheck           00000001801f67ac f   LIBCMT:gshandler.obj
 0001:001f57cc       __GSHandlerCheckCommon     00000001801f67cc f   LIBCMT:gshandler.obj
 0001:001f5840       __security_check_cookie    00000001801f6840 f   LIBCMT:amdsecgs.obj
 0001:001f5860       __GSHandlerCheck_SEH       00000001801f6860 f   LIBCMT:gshandlerseh.obj
 0001:001f58e8       __GSHandlerCheck_EH        00000001801f68e8 f   LIBCMT:gshandlereh.obj
 0001:001f5968       __raise_securityfailure    00000001801f6968 f   LIBCMT:gs_report.obj
 0001:001f599c       __report_gsfailure         00000001801f699c f   LIBCMT:gs_report.obj
 0001:001f5ae4       __C_specific_handler_noexcept 00000001801f6ae4 f   libvcruntime:chandler_noexcept.obj
 0001:001f5b30       strrchr                    00000001801f6b30 f   libvcruntime:strrchr.obj
 0001:001f5c70       _guard_dispatch_icall_nop  00000001801f6c70 f   LIBCMT:guard_dispatch.obj
 0001:001f5c90       _guard_xfg_dispatch_icall_nop 00000001801f6c90 f   LIBCMT:guard_xfg_dispatch.obj
 0001:001f5cb0       _guard_dispatch_icall      00000001801f6cb0 f   libucrt:dispatchcfg.obj
 0001:001f5cb0       _guard_dispatch_icall_$fo_default$ 00000001801f6cb0     libucrt:dispatchcfg.obj
 0001:001f5ce0       memcpy_repmovs             00000001801f6ce0 f   libvcruntime:memcpy.obj
 0001:001f5cf0       memcpy                     00000001801f6cf0 f   libvcruntime:memcpy.obj
 0001:001f5cf0       memcpy_$fo_default$        00000001801f6cf0     libvcruntime:memcpy.obj
 0001:001f5cf0       memmove                    00000001801f6cf0 f   libvcruntime:memcpy.obj
 0001:001f6380       memset_repstos             00000001801f7380 f   libvcruntime:memset.obj
 0001:001f6390       memset                     00000001801f7390 f   libvcruntime:memset.obj
 0001:001f6730       strncmp                    00000001801f7730 f   libucrt:strncmp.obj
 0002:00000000       __imp_GetLastError         00000001801f8000     kernel32:KERNEL32.dll
 0002:00000008       __imp_FreeLibrary          00000001801f8008     kernel32:KERNEL32.dll
 0002:00000010       __imp_GetProcAddress       00000001801f8010     kernel32:KERNEL32.dll
 0002:00000018       __imp_LoadLibraryA         00000001801f8018     kernel32:KERNEL32.dll
 0002:00000020       __imp_RaiseException       00000001801f8020     kernel32:KERNEL32.dll
 0002:00000028       __imp_GetSystemInfo        00000001801f8028     kernel32:KERNEL32.dll
 0002:00000030       __imp_VirtualProtect       00000001801f8030     kernel32:KERNEL32.dll
 0002:00000038       __imp_VirtualQuery         00000001801f8038     kernel32:KERNEL32.dll
 0002:00000040       __imp_GetModuleHandleW     00000001801f8040     kernel32:KERNEL32.dll
 0002:00000048       __imp_LoadLibraryExA       00000001801f8048     kernel32:KERNEL32.dll
 0002:00000050       __imp_InitializeSListHead  00000001801f8050     kernel32:KERNEL32.dll
 0002:00000058       __imp_RtlCaptureContext    00000001801f8058     kernel32:KERNEL32.dll
 0002:00000060       __imp_RtlLookupFunctionEntry 00000001801f8060     kernel32:KERNEL32.dll
 0002:00000068       __imp_RtlVirtualUnwind     00000001801f8068     kernel32:KERNEL32.dll
 0002:00000070       __imp_IsDebuggerPresent    00000001801f8070     kernel32:KERNEL32.dll
 0002:00000078       __imp_UnhandledExceptionFilter 00000001801f8078     kernel32:KERNEL32.dll
 0002:00000080       __imp_SetUnhandledExceptionFilter 00000001801f8080     kernel32:KERNEL32.dll
 0002:00000088       __imp_GetStartupInfoW      00000001801f8088     kernel32:KERNEL32.dll
 0002:00000090       __imp_IsProcessorFeaturePresent 00000001801f8090     kernel32:KERNEL32.dll
 0002:00000098       __imp_QueryPerformanceCounter 00000001801f8098     kernel32:KERNEL32.dll
 0002:000000a0       __imp_GetCurrentProcessId  00000001801f80a0     kernel32:KERNEL32.dll
 0002:000000a8       __imp_GetCurrentThreadId   00000001801f80a8     kernel32:KERNEL32.dll
 0002:000000b0       __imp_GetSystemTimeAsFileTime 00000001801f80b0     kernel32:KERNEL32.dll
 0002:000000b8       __imp_InterlockedPushEntrySList 00000001801f80b8     kernel32:KERNEL32.dll
 0002:000000c0       __imp_InterlockedFlushSList 00000001801f80c0     kernel32:KERNEL32.dll
 0002:000000c8       __imp_RtlUnwindEx          00000001801f80c8     kernel32:KERNEL32.dll
 0002:000000d0       __imp_SetLastError         00000001801f80d0     kernel32:KERNEL32.dll
 0002:000000d8       __imp_EnterCriticalSection 00000001801f80d8     kernel32:KERNEL32.dll
 0002:000000e0       __imp_LeaveCriticalSection 00000001801f80e0     kernel32:KERNEL32.dll
 0002:000000e8       __imp_DeleteCriticalSection 00000001801f80e8     kernel32:KERNEL32.dll
 0002:000000f0       __imp_InitializeCriticalSectionAndSpinCount 00000001801f80f0     kernel32:KERNEL32.dll
 0002:000000f8       __imp_TlsAlloc             00000001801f80f8     kernel32:KERNEL32.dll
 0002:00000100       __imp_TlsGetValue          00000001801f8100     kernel32:KERNEL32.dll
 0002:00000108       __imp_TlsSetValue          00000001801f8108     kernel32:KERNEL32.dll
 0002:00000110       __imp_TlsFree              00000001801f8110     kernel32:KERNEL32.dll
 0002:00000118       __imp_LoadLibraryExW       00000001801f8118     kernel32:KERNEL32.dll
 0002:00000120       __imp_EncodePointer        00000001801f8120     kernel32:KERNEL32.dll
 0002:00000128       __imp_RtlPcToFileHeader    00000001801f8128     kernel32:KERNEL32.dll
 0002:00000130       __imp_GetCurrentProcess    00000001801f8130     kernel32:KERNEL32.dll
 0002:00000138       __imp_ExitProcess          00000001801f8138     kernel32:KERNEL32.dll
 0002:00000140       __imp_TerminateProcess     00000001801f8140     kernel32:KERNEL32.dll
 0002:00000148       __imp_GetModuleHandleExW   00000001801f8148     kernel32:KERNEL32.dll
 0002:00000150       __imp_GetModuleFileNameW   00000001801f8150     kernel32:KERNEL32.dll
 0002:00000158       __imp_HeapAlloc            00000001801f8158     kernel32:KERNEL32.dll
 0002:00000160       __imp_HeapFree             00000001801f8160     kernel32:KERNEL32.dll
 0002:00000168       __imp_FlsAlloc             00000001801f8168     kernel32:KERNEL32.dll
 0002:00000170       __imp_FlsGetValue          00000001801f8170     kernel32:KERNEL32.dll
 0002:00000178       __imp_FlsSetValue          00000001801f8178     kernel32:KERNEL32.dll
 0002:00000180       __imp_FlsFree              00000001801f8180     kernel32:KERNEL32.dll
 0002:00000188       __imp_InitializeCriticalSectionEx 00000001801f8188     kernel32:KERNEL32.dll
 0002:00000190       __imp_LCMapStringW         00000001801f8190     kernel32:KERNEL32.dll
 0002:00000198       __imp_GetStdHandle         00000001801f8198     kernel32:KERNEL32.dll
 0002:000001a0       __imp_GetFileType          00000001801f81a0     kernel32:KERNEL32.dll
 0002:000001a8       __imp_FindClose            00000001801f81a8     kernel32:KERNEL32.dll
 0002:000001b0       __imp_FindFirstFileExW     00000001801f81b0     kernel32:KERNEL32.dll
 0002:000001b8       __imp_FindNextFileW        00000001801f81b8     kernel32:KERNEL32.dll
 0002:000001c0       __imp_IsValidCodePage      00000001801f81c0     kernel32:KERNEL32.dll
 0002:000001c8       __imp_GetACP               00000001801f81c8     kernel32:KERNEL32.dll
 0002:000001d0       __imp_GetOEMCP             00000001801f81d0     kernel32:KERNEL32.dll
 0002:000001d8       __imp_GetCPInfo            00000001801f81d8     kernel32:KERNEL32.dll
 0002:000001e0       __imp_GetCommandLineA      00000001801f81e0     kernel32:KERNEL32.dll
 0002:000001e8       __imp_GetCommandLineW      00000001801f81e8     kernel32:KERNEL32.dll
 0002:000001f0       __imp_MultiByteToWideChar  00000001801f81f0     kernel32:KERNEL32.dll
 0002:000001f8       __imp_WideCharToMultiByte  00000001801f81f8     kernel32:KERNEL32.dll
 0002:00000200       __imp_GetEnvironmentStringsW 00000001801f8200     kernel32:KERNEL32.dll
 0002:00000208       __imp_FreeEnvironmentStringsW 00000001801f8208     kernel32:KERNEL32.dll
 0002:00000210       __imp_GetProcessHeap       00000001801f8210     kernel32:KERNEL32.dll
 0002:00000218       __imp_FlushFileBuffers     00000001801f8218     kernel32:KERNEL32.dll
 0002:00000220       __imp_WriteFile            00000001801f8220     kernel32:KERNEL32.dll
 0002:00000228       __imp_GetConsoleOutputCP   00000001801f8228     kernel32:KERNEL32.dll
 0002:00000230       __imp_GetConsoleMode       00000001801f8230     kernel32:KERNEL32.dll
 0002:00000238       __imp_SetStdHandle         00000001801f8238     kernel32:KERNEL32.dll
 0002:00000240       __imp_GetFileSizeEx        00000001801f8240     kernel32:KERNEL32.dll
 0002:00000248       __imp_SetFilePointerEx     00000001801f8248     kernel32:KERNEL32.dll
 0002:00000250       __imp_GetStringTypeW       00000001801f8250     kernel32:KERNEL32.dll
 0002:00000258       __imp_HeapSize             00000001801f8258     kernel32:KERNEL32.dll
 0002:00000260       __imp_HeapReAlloc          00000001801f8260     kernel32:KERNEL32.dll
 0002:00000268       __imp_CloseHandle          00000001801f8268     kernel32:KERNEL32.dll
 0002:00000270       __imp_CreateFileW          00000001801f8270     kernel32:KERNEL32.dll
 0002:00000278       __imp_WriteConsoleW        00000001801f8278     kernel32:KERNEL32.dll
 0002:00000280       \177KERNEL32_NULL_THUNK_DATA 00000001801f8280     kernel32:KERNEL32.dll
 0002:00000288       __guard_check_icall_fptr   00000001801f8288     LIBCMT:guard_support.obj
 0002:00000290       __guard_xfg_check_icall_fptr 00000001801f8290     LIBCMT:guard_support.obj
 0002:00000298       __guard_dispatch_icall_fptr 00000001801f8298     LIBCMT:guard_support.obj
 0002:000002a0       __guard_xfg_dispatch_icall_fptr 00000001801f82a0     LIBCMT:guard_support.obj
 0002:000002a8       __guard_xfg_table_dispatch_icall_fptr 00000001801f82a8     LIBCMT:guard_support.obj
 0002:000002b0       __castguard_check_failure_os_handled_fptr 00000001801f82b0     LIBCMT:guard_support.obj
 0002:000002b8       __guard_memcpy_fptr        00000001801f82b8     libvcruntime:softmemtag.obj
 0002:000002c0       __xc_a                     00000001801f82c0     LIBCMT:initializers.obj
 0002:00001db8       __xc_z                     00000001801f9db8     LIBCMT:initializers.obj
 0002:00001dc0       __xi_a                     00000001801f9dc0     LIBCMT:initializers.obj
 0002:00001dc8       __acrt_stdio_initializer   00000001801f9dc8     libucrt:stdio_initializer.obj
 0002:00001dd0       __acrt_tran_fma3_initializer 00000001801f9dd0     libucrt:fma3_initializer.obj
 0002:00001dd8       __acrt_multibyte_initializer 00000001801f9dd8     libucrt:multibyte_initializer.obj
 0002:00001de0       __xi_z                     00000001801f9de0     LIBCMT:initializers.obj
 0002:00001de8       __xp_a                     00000001801f9de8     LIBCMT:initializers.obj
 0002:00001df0       __acrt_locale_terminator   00000001801f9df0     libucrt:locale_initializer.obj
 0002:00001df8       __dcrt_console_output_terminator 00000001801f9df8     libucrt:console_output_initializer.obj
 0002:00001e00       __acrt_stdio_terminator    00000001801f9e00     libucrt:stdio_initializer.obj
 0002:00001e08       __xp_z                     00000001801f9e08     LIBCMT:initializers.obj
 0002:00001e10       __xt_a                     00000001801f9e10     LIBCMT:initializers.obj
 0002:00001e18       __xt_z                     00000001801f9e18     LIBCMT:initializers.obj
 0002:00001e20       ??_7PxCollection@physx@@6B@ 00000001801f9e20     CmCollection.obj
 0002:00001ea0       ??_C@_00CNPNBAHC@@         00000001801f9ea0     CmCollection.obj
 0002:00001ea8       ??_7Collection@Cm@physx@@6B@ 00000001801f9ea8     CmCollection.obj
 0002:00001f30       ??_C@_0GE@GBACBMOC@PxCollection?3?3add?5called?5for?5an@ 00000001801f9f30     CmCollection.obj
 0002:00001f98       ??_C@_0DM@CGDAMDHA@D?3?2GithubYas?2PhysX?2physx?2source@ 00000001801f9f98     CmCollection.obj
 0002:00001fe0       ??_C@_0EM@OMMGDOMK@PxCollection?3?3add?5called?5with?5a@ 00000001801f9fe0     CmCollection.obj
 0002:00002030       ??_C@_0BM@OIFKLHDN@?$DMallocation?5names?5disabled?$DO@ 00000001801fa030     CmCollection.obj
 0002:00002050       ??_C@_0DO@LDJCLHIK@D?3?2GithubYas?2PhysX?2physx?2includ@ 00000001801fa050     CmCollection.obj
 0002:00002090       ??_7RadixSort@Cm@physx@@6B@ 00000001801fa090     CmRadixSort.obj
 0002:00002098       ??_7RadixSortBuffered@Cm@physx@@6B@ 00000001801fa098     CmRadixSort.obj
 0002:000020a0       ??_C@_0DL@DBGDLOAB@D?3?2GithubYas?2PhysX?2physx?2source@ 00000001801fa0a0     CmRadixSort.obj
 0002:000020e0       __xmm@00000001000000010000000100000001 00000001801fa0e0     CmRadixSort.obj
 0002:000020f0       __xmm@00000003000000020000000100000000 00000001801fa0f0     CmRadixSort.obj
 0002:00002100       __real@3d4ccccd            00000001801fa100     CmVisualization.obj
 0002:00002104       __real@3e19999a            00000001801fa104     CmVisualization.obj
 0002:00002108       __real@3e490fdb            00000001801fa108     CmVisualization.obj
 0002:0000210c       __real@3e800000            00000001801fa10c     CmVisualization.obj
 0002:00002110       __real@3e99999a            00000001801fa110     CmVisualization.obj
 0002:00002114       __real@3ea0d97c            00000001801fa114     CmVisualization.obj
 0002:00002118       __real@3f000000            00000001801fa118     CmVisualization.obj
 0002:0000211c       __real@3f3504f3            00000001801fa11c     CmVisualization.obj
 0002:00002120       __real@3f800000            00000001801fa120     CmVisualization.obj
 0002:00002124       __real@3fc00000            00000001801fa124     CmVisualization.obj
 0002:00002128       __real@3fddb3d7            00000001801fa128     CmVisualization.obj
 0002:0000212c       __real@40100000            00000001801fa12c     CmVisualization.obj
 0002:00002130       __real@40400000            00000001801fa130     CmVisualization.obj
 0002:00002134       __real@40c90fdb            00000001801fa134     CmVisualization.obj
 0002:00002138       __real@40d80000            00000001801fa138     CmVisualization.obj
 0002:0000213c       __real@80000000            00000001801fa13c     CmVisualization.obj
 0002:00002140       __xmm@3f800000000000000000000000000000 00000001801fa140     CmVisualization.obj
 0002:00002150       __xmm@7fffffff7fffffff7fffffff7fffffff 00000001801fa150     CmVisualization.obj
 0002:00002160       __xmm@80000000800000008000000080000000 00000001801fa160     CmVisualization.obj
 0002:00002170       ??_C@_0BB@CPDDPFKD@GetUpdatedModule@ 00000001801fa170     CmWindowsModuleUpdateLoader.obj
 0002:00002190       ??_C@_0FD@PIGPHOPK@D?3?2GithubYas?2PhysX?2physx?2source@ 00000001801fa190     CmWindowsModuleUpdateLoader.obj
 0002:000021e8       ??_C@_0CP@PGOIOJOO@?$CFs?3?$CFi?3?5loadLibrary?5error?5when?5l@ 00000001801fa1e8     CmWindowsModuleUpdateLoader.obj
 0002:00002218       ??_C@_0BA@EGLNOO@PhysXFoundation@ 00000001801fa218     CmWindowsDelayLoadHook.obj
 0002:00002228       ??_C@_0M@ILKNCJKN@PhysXCommon@ 00000001801fa228     CmWindowsDelayLoadHook.obj
 0002:00002260       __real@3f7ff972            00000001801fa260     GuBox.obj
 0002:00002270       __xmm@000000003a83126f3a83126f3a83126f 00000001801fa270     GuBox.obj
 0002:00002280       __xmm@00000000ba83126fba83126fba83126f 00000001801fa280     GuBox.obj
 0002:00002290       __xmm@3a83126f3a83126f3a83126f3a83126f 00000001801fa290     GuBox.obj
 0002:000022a0       __xmm@ba83126fba83126fba83126fba83126f 00000001801fa2a0     GuBox.obj
 0002:000022d0       ??_7EntityReport@Gu@physx@@6B@ 00000001801fa2d0     GuSweepsHF.obj
 0002:000022d0       ??_7OverlapCallback@PxBVH@physx@@6B@ 00000001801fa2d0     GuQuerySystem.obj
 0002:000022d0       ??_7OverlapReport@Gu@physx@@6B@ 00000001801fa2d0     GuCCTSweepTests.obj
 0002:000022d0       ??_7RaycastCallback@PxBVH@physx@@6B@ 00000001801fa2d0     GuQuerySystem.obj
 0002:000022d0       ??_7RemapCallback@RTreeCooker@physx@@6B@ 00000001801fa2d0     GuCookingTriangleMesh.obj
 0002:000022f0       __real@3b03126f            00000001801fa2f0     GuCCTSweepTests.obj
 0002:000022f4       __real@40000000            00000001801fa2f4     GuCCTSweepTests.obj
 0002:00002330       ??_7SupportLocal@Gu@physx@@6B@ 00000001801fa330     GuGeometryQuery.obj
 0002:00002350       ??_7?$SupportLocalImpl@VBoxV@Gu@physx@@@Gu@physx@@6B@ 00000001801fa350     GuGeometryQuery.obj
 0002:00002370       ??_7?$SupportLocalImpl@VConvexHullV@Gu@physx@@@Gu@physx@@6B@ 00000001801fa370     GuGeometryQuery.obj
 0002:00002390       ??_C@_0DG@EHAFIFHF@D?3?2GithubYas?2PhysX?2physx?2includ@ 00000001801fa390     GuGeometryQuery.obj
 0002:000023c8       __real@30d1b7e9            00000001801fa3c8     GuGeometryQuery.obj
 0002:000023cc       __real@322bcc77            00000001801fa3cc     GuGeometryQuery.obj
 0002:000023d0       __real@358637bd            00000001801fa3d0     GuGeometryQuery.obj
 0002:000023d4       __real@3a83126f            00000001801fa3d4     GuGeometryQuery.obj
 0002:000023d8       __real@3ccccccd            00000001801fa3d8     GuGeometryQuery.obj
 0002:000023dc       __real@3dcccccd            00000001801fa3dc     GuGeometryQuery.obj
 0002:000023e0       __real@49742400            00000001801fa3e0     GuGeometryQuery.obj
 0002:000023e4       __real@7f7fffff            00000001801fa3e4     GuGeometryQuery.obj
 0002:000023e8       __real@bf800000            00000001801fa3e8     GuGeometryQuery.obj
 0002:000023f0       __xmm@0000000000000000000000003f800000 00000001801fa3f0     GuGeometryQuery.obj
 0002:00002400       __xmm@00000000000000003f80000000000000 00000001801fa400     GuGeometryQuery.obj
 0002:00002410       __xmm@00000000000000003f8000003f800000 00000001801fa410     GuGeometryQuery.obj
 0002:00002420       __xmm@000000003f8000000000000000000000 00000001801fa420     GuGeometryQuery.obj
 0002:00002430       __xmm@000000003f8000003f8000003f800000 00000001801fa430     GuGeometryQuery.obj
 0002:00002440       __xmm@00000000ffffffffffffffffffffffff 00000001801fa440     GuGeometryQuery.obj
 0002:00002450       __xmm@3d4ccccd3d4ccccd3d4ccccd3d4ccccd 00000001801fa450     GuGeometryQuery.obj
 0002:00002460       __xmm@3e19999a3e19999a3e19999a3e19999a 00000001801fa460     GuGeometryQuery.obj
 0002:00002470       __xmm@3e4ccccd3e4ccccd3e4ccccd3e4ccccd 00000001801fa470     GuGeometryQuery.obj
 0002:00002480       __xmm@3e8000003e8000003e8000003e800000 00000001801fa480     GuGeometryQuery.obj
 0002:00002490       __xmm@3f7ef9db3f7ef9db3f7ef9db3f7ef9db 00000001801fa490     GuGeometryQuery.obj
 0002:000024a0       __xmm@3f7ff2e53f7ff2e53f7ff2e53f7ff2e5 00000001801fa4a0     GuGeometryQuery.obj
 0002:000024b0       __xmm@3f8000003f8000003f8000003f800000 00000001801fa4b0     GuGeometryQuery.obj
 0002:000024c0       __xmm@7f7fffff7f7fffff7f7fffff7f7fffff 00000001801fa4c0     GuGeometryQuery.obj
 0002:000024d0       __xmm@bf000000bf000000bf000000bf000000 00000001801fa4d0     GuGeometryQuery.obj
 0002:00002510       ??_C@_0EM@BDFDGBD@Inserting?5object?5failed?3?5Object@ 00000001801fa510     GuMeshFactory.obj
 0002:00002580       ??_7CallbackRaycast@RTree@Gu@physx@@6B@ 00000001801fa580     GuMidphaseRTree.obj
 0002:00002580       ??_7CallbackRefit@RTree@Gu@physx@@6B@ 00000001801fa580     GuTriangleMeshRTree.obj
 0002:00002580       ??_7PxInsertionCallback@physx@@6B@ 00000001801fa580     GuMeshFactory.obj
 0002:00002590       ??_C@_0EA@BGBPOHKO@D?3?2GithubYas?2PhysX?2physx?2source@ 00000001801fa590     GuMeshFactory.obj
 0002:000025d0       ??_7PxCollisionMeshMappingData@physx@@6B@ 00000001801fa5d0     GuMeshFactory.obj
 0002:000025e0       ??_7MeshFactory@Gu@physx@@6B@ 00000001801fa5e0     GuMeshFactory.obj
 0002:000025e8       ??_7MeshDataBase@Gu@physx@@6B@ 00000001801fa5e8     GuMeshFactory.obj
 0002:000025f0       ??_C@_0EA@PIMJOJCJ@D?3?2GithubYas?2PhysX?2physx?2source@ 00000001801fa5f0     GuMeshFactory.obj
 0002:00002630       ??_7TriangleMeshData@Gu@physx@@6B@ 00000001801fa630     GuMeshFactory.obj
 0002:00002638       ??_7RTreeTriangleData@Gu@physx@@6B@ 00000001801fa638     GuMeshFactory.obj
 0002:00002640       ??_7BV4TriangleData@Gu@physx@@6B@ 00000001801fa640     GuMeshFactory.obj
 0002:00002648       ??_7DeformableVolumeCollisionData@Gu@physx@@6B@ 00000001801fa648     GuMeshFactory.obj
 0002:00002650       ??_7CollisionMeshMappingData@Gu@physx@@6B@ 00000001801fa650     GuMeshFactory.obj
 0002:00002660       ??_7DeformableVolumeSimulationData@Gu@physx@@6B@ 00000001801fa660     GuMeshFactory.obj
 0002:00002670       ??_C@_0GP@NHELMDAL@Loading?5triangle?5mesh?5failed?3?5D@ 00000001801fa670     GuMeshFactory.obj
 0002:000026e0       ??_C@_0BP@CDOKDACA@RTree?5binary?5image?5load?5error?4@ 00000001801fa6e0     GuMeshFactory.obj
 0002:00002700       ??_C@_0BN@MJPNIELF@BV4?5binary?5image?5load?5error?4@ 00000001801fa700     GuMeshFactory.obj
 0002:00002720       ??_C@_0BO@JDPABAOF@BV32?5binary?5image?5load?5error?4@ 00000001801fa720     GuMeshFactory.obj
 0002:00002740       ??_C@_0DG@EOGIIMAM@D?3?2GithubYas?2PhysX?2physx?2includ@ 00000001801fa740     GuMeshFactory.obj
 0002:00002780       __xmm@fe7fffff7e7fffff7e7fffff7e7fffff 00000001801fa780     GuMeshFactory.obj
 0002:000027b0       ??_7?$SupportLocalImpl@VConvexHullNoScaleV@Gu@physx@@@Gu@physx@@6B@ 00000001801fa7b0     GuMTD.obj
 0002:000027d0       ?absMask@?1??FAbs@aos@physx@@YA?AT__m128@@T4@@Z@4QBIB 00000001801fa7d0     GuMTD.obj
 0002:000027e0       ??_7GjkConvex@Gu@physx@@6B@ 00000001801fa7e0     GuMTD.obj
 0002:00002810       ??_7?$LocalConvex@VCapsuleV@Gu@physx@@@Gu@physx@@6B@ 00000001801fa810     GuMTD.obj
 0002:00002840       ??_7?$LocalConvex@VConvexHullV@Gu@physx@@@Gu@physx@@6B@ 00000001801fa840     GuMTD.obj
 0002:00002870       __real@2edbe6ff            00000001801fa870     GuMTD.obj
 0002:00002874       __real@34000000            00000001801fa874     GuMTD.obj
 0002:00002878       __real@ff7fffff            00000001801fa878     GuMTD.obj
 0002:00002880       __xmm@28800000288000002880000028800000 00000001801fa880     GuMTD.obj
 0002:00002890       __xmm@34000000340000003400000034000000 00000001801fa890     GuMTD.obj
 0002:000028a0       __xmm@358637bd358637bd358637bd358637bd 00000001801fa8a0     GuMTD.obj
 0002:000028b0       __xmm@3dcccccd3dcccccd3dcccccd3dcccccd 00000001801fa8b0     GuMTD.obj
 0002:000028c0       __xmm@3f7ff1413f7ff1413f7ff1413f7ff141 00000001801fa8c0     GuMTD.obj
 0002:000028d0       ??_7?$RelativeConvex@VBoxV@Gu@physx@@@Gu@physx@@6B@ 00000001801fa8d0     GuOverlapTests.obj
 0002:00002920       ??_7?$RelativeConvex@VConvexHullV@Gu@physx@@@Gu@physx@@6B@ 00000001801fa920     GuOverlapTests.obj
 0002:00002950       __real@3727c5ac            00000001801fa950     GuOverlapTests.obj
 0002:00002954       __real@3c23d70a            00000001801fa954     GuOverlapTests.obj
 0002:00002958       __real@bf000000            00000001801fa958     GuOverlapTests.obj
 0002:00002960       ??_7Support@PxGjkQuery@physx@@6B@ 00000001801fa960     GuRaycastTests.obj
 0002:000029c8       __real@1e3ce508            00000001801fa9c8     GuRaycastTests.obj
 0002:000029cc       __real@28800000            00000001801fa9cc     GuRaycastTests.obj
 0002:000029d0       __real@33d6bf95            00000001801fa9d0     GuRaycastTests.obj
 0002:000029d4       __real@38d1b717            00000001801fa9d4     GuRaycastTests.obj
 0002:000029d8       __real@3f0147ae            00000001801fa9d8     GuRaycastTests.obj
 0002:000029dc       __real@3f7ffffe            00000001801fa9dc     GuRaycastTests.obj
 0002:000029e0       __real@3f800347            00000001801fa9e0     GuRaycastTests.obj
 0002:000029e4       __real@41200000            00000001801fa9e4     GuRaycastTests.obj
 0002:000029e8       __real@b3d6bf95            00000001801fa9e8     GuRaycastTests.obj
 0002:000029ec       __real@b8d1b717            00000001801fa9ec     GuRaycastTests.obj
 0002:000029f0       __real@c1200000            00000001801fa9f0     GuRaycastTests.obj
 0002:00002a30       ??_7?$MeshHitCallback@UPxGeomRaycastHit@physx@@@Gu@physx@@6B@ 00000001801faa30     GuSweepMTD.obj
 0002:00002a40       ??_7MeshMTDGenerationCallback@@6B@ 00000001801faa40     GuSweepMTD.obj
 0002:00002a50       ??_7MidPhaseQueryLocalReport@@6B@ 00000001801faa50     GuSweepMTD.obj
 0002:00002a60       __real@3f8147ae            00000001801faa60     GuSweepMTD.obj
 0002:00002a64       __real@3f933333            00000001801faa64     GuSweepMTD.obj
 0002:00002a90       __real@42c80000            00000001801faa90     GuSweepSharedTests.obj
 0002:00002aa0       __xmm@000000ff000000ff000000ff000000ff 00000001801faaa0     GuSweepSharedTests.obj
 0002:00002ab0       __xmm@ffffffffffffffffffffffffffffffff 00000001801faab0     GuSweepSharedTests.obj
 0002:00002b28       ??_7?$LocalConvex@VBoxV@Gu@physx@@@Gu@physx@@6B@ 00000001801fab28     GuSweepTests.obj
 0002:00002b58       ??_7?$LocalConvex@VTriangleV@Gu@physx@@@Gu@physx@@6B@ 00000001801fab58     GuSweepTests.obj
 0002:00002b90       __xmm@00000002000000020000000200000002 00000001801fab90     GuSweepTests.obj
 0002:00002ba0       __xmm@3eaaaa9f3eaaaa9f3eaaaa9f3eaaaa9f 00000001801faba0     GuSweepTests.obj
 0002:00002c58       ??_7PxRunnable@physx@@6B@  00000001801fac58     GuSDF.obj
 0002:00002c68       ??_C@_0DI@LODEFHCA@D?3?2GithubYas?2PhysX?2physx?2source@ 00000001801fac68     GuSDF.obj
 0002:00002ca0       ??_7PointOntoTriangleMeshProjector@Gu@physx@@6B@ 00000001801faca0     GuSDF.obj
 0002:00002cb8       ??_7?$PxThreadT@V?$PxReflectionAllocator@VPxThreadImpl@physx@@@physx@@@physx@@6B@ 00000001801facb8     GuSDF.obj
 0002:00002cc8       ??_C@_06FJHNOCKE@thread@   00000001801facc8     GuSDF.obj
 0002:00002cd0       ??_C@_0BAK@OPLLKLNG@SDF?5creation?3?5Mesh?5is?5not?5suita@ 00000001801facd0     GuSDF.obj
 0002:00002de0       ??_C@_0FB@OMEANACP@SDF?5creation?3?5Input?5mesh?5is?5not@ 00000001801fade0     GuSDF.obj
 0002:00002e40       ??_C@_0EC@LILMFABM@No?5distance?5data?5available?5?$CInul@ 00000001801fae40     GuSDF.obj
 0002:00002e90       ??_C@_0EF@PBPCGDDJ@No?5sparse?5grid?5data?5available?5?$CI@ 00000001801fae90     GuSDF.obj
 0002:00002ed8       ??_C@_0DH@MNJPJMDK@D?3?2GithubYas?2PhysX?2physx?2includ@ 00000001801faed8     GuSDF.obj
 0002:00002f10       ??_C@_0DF@BDDNAIDN@D?3?2GithubYas?2PhysX?2physx?2includ@ 00000001801faf10     GuSDF.obj
 0002:00002f48       ??_C@_0DO@FBKPEEIL@D?3?2GithubYas?2PhysX?2physx?2includ@ 00000001801faf48     GuSDF.obj
 0002:00002f88       __real@37800080            00000001801faf88     GuSDF.obj
 0002:00002f8c       __real@3b808081            00000001801faf8c     GuSDF.obj
 0002:00002f90       __real@3e2aaaab            00000001801faf90     GuSDF.obj
 0002:00002f94       __real@3eaaaaab            00000001801faf94     GuSDF.obj
 0002:00002f98       __real@3f7d70a4            00000001801faf98     GuSDF.obj
 0002:00002f9c       __real@7e7fffff            00000001801faf9c     GuSDF.obj
 0002:00002fa0       __real@fe7fffff            00000001801fafa0     GuSDF.obj
 0002:00002fb0       __xmm@00000001000000010000000100000000 00000001801fafb0     GuSDF.obj
 0002:00002fe0       ??_7?$RelativeConvex@UCustomConvexV@@@Gu@physx@@6B@ 00000001801fafe0     GuGjkQuery.obj
 0002:00003010       ??_7?$LocalConvex@UCustomConvexV@@@Gu@physx@@6B@ 00000001801fb010     GuGjkQuery.obj
 0002:00003040       ??_7?$LocalConvex@UPointConvexV@@@Gu@physx@@6B@ 00000001801fb040     GuGjkQuery.obj
 0002:00003090       __real@3da2f983            00000001801fb090     GuWindingNumber.obj
 0002:00003094       __real@3e22f983            00000001801fb094     GuWindingNumber.obj
 0002:00003098       __real@3f99999a            00000001801fb098     GuWindingNumber.obj
 0002:000030c0       __real@38aaaaab            00000001801fb0c0     GuConvexGeometry.obj
 0002:000030c4       __real@3d000000            00000001801fb0c4     GuConvexGeometry.obj
 0002:000030c8       __real@3daaaaab            00000001801fb0c8     GuConvexGeometry.obj
 0002:000030cc       __real@3ecccccd            00000001801fb0cc     GuConvexGeometry.obj
 0002:000030d0       __real@3fc90fdb            00000001801fb0d0     GuConvexGeometry.obj
 0002:000030d4       __real@40490fdb            00000001801fb0d4     GuConvexGeometry.obj
 0002:000030d8       __real@40860a92            00000001801fb0d8     GuConvexGeometry.obj
 0002:000030e0       __xmm@3f800000bf8000003f8000003f800000 00000001801fb0e0     GuConvexGeometry.obj
 0002:000030f0       __xmm@bf8000003f800000bf800000bf800000 00000001801fb0f0     GuConvexGeometry.obj
 0002:00003180       __real@3c343958            00000001801fb180     GuCCDSweepConvexMesh.obj
 0002:00003184       __real@3ca3d70a            00000001801fb184     GuCCDSweepConvexMesh.obj
 0002:00003188       __real@3f0ccccd            00000001801fb188     GuCCDSweepConvexMesh.obj
 0002:0000318c       __real@3f8ccccd            00000001801fb18c     GuCCDSweepConvexMesh.obj
 0002:00003190       __real@b58637bd            00000001801fb190     GuCCDSweepConvexMesh.obj
 0002:000031c0       ??_7?$RelativeConvex@VCapsuleV@Gu@physx@@@Gu@physx@@6B@ 00000001801fb1c0     GuCCDSweepPrimitives.obj
 0002:000031f0       ??_7?$RelativeConvex@VTriangleV@Gu@physx@@@Gu@physx@@6B@ 00000001801fb1f0     GuCCDSweepPrimitives.obj
 0002:00003220       __real@3ba3d70a            00000001801fb220     GuCCDSweepPrimitives.obj
 0002:00003224       __real@501502f9            00000001801fb224     GuCCDSweepPrimitives.obj
 0002:00003250       ??_C@_0EH@MJICAHKH@D?3?2GithubYas?2PhysX?2physx?2source@ 00000001801fb250     GuAdjacencies.obj
 0002:00003298       ??_C@_0DA@FMEHLBKI@Adjacencies?3?3UpdateLink?3?5invali@ 00000001801fb298     GuAdjacencies.obj
 0002:000032d0       ??_C@_0EA@CPHOACLK@Adjacencies?3?3CreateDatabase?3?5ca@ 00000001801fb2d0     GuAdjacencies.obj
 0002:00003310       ??_C@_0EE@OKFNGCGM@D?3?2GithubYas?2PhysX?2physx?2source@ 00000001801fb310     GuEdgeList.obj
 0002:00003358       ??_C@_0CO@GBNJFPN@EdgeList?3?3CreateFacesToEdges?3?5N@ 00000001801fb358     GuEdgeList.obj
 0002:00003388       ??_C@_0CO@EHJBBMNK@EdgeList?3?3ComputeActiveEdges?3?5N@ 00000001801fb388     GuEdgeList.obj
 0002:000033b8       ??_C@_0DI@GBHLFOFP@ActiveEdges?3?3ComputeConvexEdges@ 00000001801fb3b8     GuEdgeList.obj
 0002:000033f0       ??_C@_0DM@JOGBLHDI@ActiveEdges?3?3ComputeConvexEdges@ 00000001801fb3f0     GuEdgeList.obj
 0002:00003430       ??_C@_0ED@FEMJKPEL@ActiveEdges?3?3ComputeConvexEdges@ 00000001801fb430     GuEdgeList.obj
 0002:00003480       ??_C@_0EB@BFDPMFCD@ActiveEdges?3?3ComputeConvexEdges@ 00000001801fb480     GuEdgeList.obj
 0002:000034c4       __real@bf7fbe77            00000001801fb4c4     GuEdgeList.obj
 0002:000034c8       ??_7Quantizer@Gu@physx@@6B@ 00000001801fb4c8     GuQuantizer.obj
 0002:000034f0       ??_7QuantizerImpl@@6B@     00000001801fb4f0     GuQuantizer.obj
 0002:00003520       ??_C@_0EF@INADAFPD@D?3?2GithubYas?2PhysX?2physx?2source@ 00000001801fb520     GuQuantizer.obj
 0002:00003568       __real@3f8020c5            00000001801fb568     GuQuantizer.obj
 0002:00003570       ??_C@_0EH@OMNJCKPD@D?3?2GithubYas?2PhysX?2physx?2source@ 00000001801fb570     GuMeshCleaner.obj
 0002:000035b8       __real@40800000            00000001801fb5b8     GuMeshCleaner.obj
 0002:000035c0       ??_C@_0EJ@DCOFMHNL@D?3?2GithubYas?2PhysX?2physx?2source@ 00000001801fb5c0     GuVertexReducer.obj
 0002:00003710       __real@3f7fbe77            00000001801fb710     GuContactBoxBox.obj
 0002:00003760       __real@3f7ff2e5            00000001801fb760     GuContactCapsuleCapsule.obj
 0002:000037f0       __real@358637be            00000001801fb7f0     GuContactCapsuleMesh.obj
 0002:000037f4       __real@ba83126f            00000001801fb7f4     GuContactCapsuleMesh.obj
 0002:00003850       ??_7ConvexMeshContactGenerationCallback@@6B@ 00000001801fb850     GuContactConvexMesh.obj
 0002:000038c0       __real@2edbe6fe            00000001801fb8c0     GuContactConvexCoreMesh.obj
 0002:000038c4       __real@3e0f5c29            00000001801fb8c4     GuContactConvexCoreMesh.obj
 0002:000038c8       __real@3f7fff58            00000001801fb8c8     GuContactConvexCoreMesh.obj
 0002:000038cc       __real@b727c5ac            00000001801fb8cc     GuContactConvexCoreMesh.obj
 0002:000038d0       __real@bf7d70a4            00000001801fb8d0     GuContactConvexCoreMesh.obj
 0002:00003980       ??_C@_0DH@IJLLNFPG@D?3?2GithubYas?2PhysX?2physx?2includ@ 00000001801fb980     GuContactPlaneMesh.obj
 0002:000039e0       __real@3ec90fdb            00000001801fb9e0     GuContactPolygonPolygon.obj
 0002:000039e4       __real@3f490fdb            00000001801fb9e4     GuContactPolygonPolygon.obj
 0002:000039e8       __real@3f96cbe4            00000001801fb9e8     GuContactPolygonPolygon.obj
 0002:000039ec       __real@3ffb53d2            00000001801fb9ec     GuContactPolygonPolygon.obj
 0002:000039f0       __real@4016cbe4            00000001801fb9f0     GuContactPolygonPolygon.obj
 0002:000039f4       __real@402feddf            00000001801fb9f4     GuContactPolygonPolygon.obj
 0002:00003a20       __real@3b800000            00000001801fba20     GuContactMeshMesh.obj
 0002:00003a24       __real@3ed64e4c            00000001801fba24     GuContactMeshMesh.obj
 0002:00003a28       __real@3f12648a            00000001801fba28     GuContactMeshMesh.obj
 0002:00003a2c       __real@3f349e9b            00000001801fba2c     GuContactMeshMesh.obj
 0002:00003a30       __real@3f4ccccd            00000001801fba30     GuContactMeshMesh.obj
 0002:00003a34       __real@3f59999a            00000001801fba34     GuContactMeshMesh.obj
 0002:00003a38       __real@3f7fdf3b            00000001801fba38     GuContactMeshMesh.obj
 0002:00003aa0       ??_C@_0EJ@GAGGKDPP@D?3?2GithubYas?2PhysX?2physx?2source@ 00000001801fbaa0     GuBigConvexData.obj
 0002:00003b10       ??_C@_06EJKDJEDO@PxBase@   00000001801fbb10     GuConvexMesh.obj
 0002:00003b18       ??_C@_0N@CDGINLLF@PxConvexMesh@ 00000001801fbb18     GuConvexMesh.obj
 0002:00003b28       ??_7PxBase@physx@@6B@      00000001801fbb28     GuConvexMesh.obj
 0002:00003b50       ??_C@_0CE@IDAGNPDH@isKindOf?5called?5with?5invalid?5st@ 00000001801fbb50     GuConvexMesh.obj
 0002:00003b78       ??_C@_0N@OPPDBGAG@PxRefCounted@ 00000001801fbb78     GuConvexMesh.obj
 0002:00003b88       ??_C@_0DJ@NIMLPONK@D?3?2GithubYas?2PhysX?2physx?2includ@ 00000001801fbb88     GuConvexMesh.obj
 0002:00003bc8       ??_7ConvexMesh@Gu@physx@@6B@ 00000001801fbbc8     GuConvexMesh.obj
 0002:00003c60       ??_C@_0EG@PLAFCBNP@D?3?2GithubYas?2PhysX?2physx?2source@ 00000001801fbc60     GuConvexMesh.obj
 0002:00003ca8       ??_C@_0DM@NEJKOFIP@Loading?5convex?5mesh?5failed?3?5Dep@ 00000001801fbca8     GuConvexMesh.obj
 0002:00003ce8       ??_C@_0DB@PAHEPIEL@PxConvexMesh?3?3release?3?5double?5d@ 00000001801fbce8     GuConvexMesh.obj
 0002:00003d20       ??_C@_0DO@EHAMPEAA@D?3?2GithubYas?2PhysX?2physx?2source@ 00000001801fbd20     GuConvexMesh.obj
 0002:00003d80       __xmm@000000000000000000000000ffffffff 00000001801fbd80     GuConvexSupportTable.obj
 0002:00003d90       __xmm@0000000000000000ffffffff00000000 00000001801fbd90     GuConvexSupportTable.obj
 0002:00003da0       __xmm@0000000000000000ffffffffffffffff 00000001801fbda0     GuConvexSupportTable.obj
 0002:00003db0       __xmm@00000000ffffffff0000000000000000 00000001801fbdb0     GuConvexSupportTable.obj
 0002:00003dc0       __xmm@00000000ffffffff00000000ffffffff 00000001801fbdc0     GuConvexSupportTable.obj
 0002:00003dd0       __xmm@00000000ffffffffffffffff00000000 00000001801fbdd0     GuConvexSupportTable.obj
 0002:00003e60       __xmm@2b8cbccc2b8cbccc2b8cbccc2b8cbccc 00000001801fbe60     GuDistancePointTriangle.obj
 0002:00003eb0       __xmm@3f0000003f0000003f0000003f000000 00000001801fbeb0     GuDistanceSegmentSegment.obj
 0002:00003ee0       __real@2b8cbccc            00000001801fbee0     GuDistanceSegmentTriangle.obj
 0002:00003ef0       __xmm@3f8000013f8000013f8000013f800001 00000001801fbef0     GuDistanceSegmentTriangle.obj
 0002:00003f00       __xmm@b4000000b4000000b4000000b4000000 00000001801fbf00     GuDistanceSegmentTriangle.obj
 0002:00003f30       __real@26901d7d            00000001801fbf30     GuDistanceTriangleTriangle.obj
 0002:00003fb0       __xmm@38d1b71738d1b71738d1b71738d1b717 00000001801fbfb0     GuGJKSimplex.obj
 0002:00003fe0       ??_C@_0O@PBAKPCEC@PxHeightField@ 00000001801fbfe0     GuHeightField.obj
 0002:00003ff0       ??_C@_0DK@IMMMLODP@D?3?2GithubYas?2PhysX?2physx?2includ@ 00000001801fbff0     GuHeightField.obj
 0002:00004030       ??_7HeightField@Gu@physx@@6B@ 00000001801fc030     GuHeightField.obj
 0002:000040e8       ??_C@_0DC@BDMMBOKH@PxHeightField?3?3release?3?5double?5@ 00000001801fc0e8     GuHeightField.obj
 0002:00004120       ??_C@_0ED@BLJJIFJH@D?3?2GithubYas?2PhysX?2physx?2source@ 00000001801fc120     GuHeightField.obj
 0002:00004168       ??_C@_0CI@DMKEKGNK@Gu?3?3HeightField?3?3load?3?5PX_ALLOC@ 00000001801fc168     GuHeightField.obj
 0002:000041b0       __real@3a03126f            00000001801fc1b0     GuHeightFieldUtil.obj
 0002:000041b4       __real@3f19999a            00000001801fc1b4     GuHeightFieldUtil.obj
 0002:00004240       ??_7HeightFieldTraceSegmentReport@@6B@ 00000001801fc240     GuSweepsHF.obj
 0002:00004250       ??_7CapsuleTraceSegmentReport@@6B@ 00000001801fc250     GuSweepsHF.obj
 0002:00004260       ??_7ConvexTraceSegmentReport@@6B@ 00000001801fc260     GuSweepsHF.obj
 0002:00004270       ??_7BoxTraceSegmentReport@@6B@ 00000001801fc270     GuSweepsHF.obj
 0002:00004280       __real@aedbe6ff            00000001801fc280     GuSweepsHF.obj
 0002:000042b0       __real@3089705f            00000001801fc2b0     GuIntersectionRayBox.obj
 0002:000042b4       __real@b4000000            00000001801fc2b4     GuIntersectionRayBox.obj
 0002:000042c0       __xmm@000000003089705f3089705f3089705f 00000001801fc2c0     GuIntersectionRayBox.obj
 0002:000042d0       __xmm@00000000bf800000bf800000bf800000 00000001801fc2d0     GuIntersectionRayBox.obj
 0002:00004320       ??_7SourceMeshBase@Gu@physx@@6B@ 00000001801fc320     GuBV4.obj
 0002:00004348       ??_7SourceMesh@Gu@physx@@6B@ 00000001801fc348     GuBV4.obj
 0002:00004370       ??_7TetrahedronSourceMesh@Gu@physx@@6B@ 00000001801fc370     GuBV4.obj
 0002:00004398       ??_C@_0DN@IPLBDJDA@D?3?2GithubYas?2PhysX?2physx?2source@ 00000001801fc398     GuBV4.obj
 0002:000043e0       __xmm@ff7fffffff7fffffff7fffffff7fffff 00000001801fc3e0     GuBV4.obj
 0002:00004410       ??_C@_0EC@DMMHIJND@D?3?2GithubYas?2PhysX?2physx?2source@ 00000001801fc410     GuBV4Build.obj
 0002:00004454       __real@38000100            00000001801fc454     GuBV4Build.obj
 0002:00004458       __real@3e93cd3a            00000001801fc458     GuBV4Build.obj
 0002:0000445c       __real@46fffe00            00000001801fc45c     GuBV4Build.obj
 0002:00004460       __real@be93cd3a            00000001801fc460     GuBV4Build.obj
 0002:00004490       __xmm@0000ffff0000ffff0000ffff0000ffff 00000001801fc490     GuBV4_AABBSweep.obj
 0002:000044a0       __xmm@3089705f3089705f3089705f3089705f 00000001801fc4a0     GuBV4_AABBSweep.obj
 0002:000044b0       __xmm@33d6bf9533d6bf9533d6bf9533d6bf95 00000001801fc4b0     GuBV4_AABBSweep.obj
 0002:000044c0       __xmm@40000000400000004000000040000000 00000001801fc4c0     GuBV4_AABBSweep.obj
 0002:00004550       __xmm@322bcc77322bcc77322bcc77322bcc77 00000001801fc550     GuBV4_MeshMeshOverlap.obj
 0002:000045a0       __real@00000000            00000001801fc5a0     GuBV4_Raycast.obj
 0002:000045d0       __real@4f7fffff            00000001801fc5d0     GuBV4_SphereOverlap.obj
 0002:00004620       __xmm@000000007f7fffff0000000000000000 00000001801fc620     GuMidphaseBV4.obj
 0002:00004690       ??_C@_0FD@EHCCILIF@Adjacency?5information?5not?5creat@ 00000001801fc690     GuMeshQuery.obj
 0002:000046f0       ??_C@_0ED@BIHBHNPM@D?3?2GithubYas?2PhysX?2physx?2source@ 00000001801fc6f0     GuMeshQuery.obj
 0002:00004740       ??_C@_0FL@BKNMAHIA@PxMeshQuery?3?3findOverlapTriangl@ 00000001801fc740     GuMeshQuery.obj
 0002:0000479c       __real@4cbebc20            00000001801fc79c     GuMeshQuery.obj
 0002:000047c0       ??_7Callback@RTree@Gu@physx@@6B@ 00000001801fc7c0     GuMidphaseRTree.obj
 0002:000047d8       ??_7?$RayRTreeCallback@$00$0A@@@6BCallbackRaycast@RTree@Gu@physx@@@ 00000001801fc7d8     GuMidphaseRTree.obj
 0002:000047d8       ??_7?$RayRTreeCallback@$0A@$0A@@@6BCallbackRaycast@RTree@Gu@physx@@@ 00000001801fc7d8     GuMidphaseRTree.obj
 0002:000047e8       ??_7?$RayRTreeCallback@$00$0A@@@6BCallback@RTree@Gu@physx@@@ 00000001801fc7e8     GuMidphaseRTree.obj
 0002:000047e8       ??_7?$RayRTreeCallback@$0A@$0A@@@6BCallback@RTree@Gu@physx@@@ 00000001801fc7e8     GuMidphaseRTree.obj
 0002:00004800       ??_7RayMeshColliderCallback@@6B@ 00000001801fc800     GuMidphaseRTree.obj
 0002:00004810       ??_C@_0EN@DPPFLBLF@Point?9mesh?5distance?5query?5not?5s@ 00000001801fc810     GuMidphaseRTree.obj
 0002:00004860       ??_C@_0EH@INFKOJNF@D?3?2GithubYas?2PhysX?2physx?2source@ 00000001801fc860     GuMidphaseRTree.obj
 0002:000048a8       ??_7?$RayRTreeCallback@$0A@$00@@6BCallbackRaycast@RTree@Gu@physx@@@ 00000001801fc8a8     GuMidphaseRTree.obj
 0002:000048b8       ??_7?$RayRTreeCallback@$0A@$00@@6BCallback@RTree@Gu@physx@@@ 00000001801fc8b8     GuMidphaseRTree.obj
 0002:000048d0       ??_7?$RayRTreeCallback@$00$00@@6BCallbackRaycast@RTree@Gu@physx@@@ 00000001801fc8d0     GuMidphaseRTree.obj
 0002:000048e0       ??_7?$RayRTreeCallback@$00$00@@6BCallback@RTree@Gu@physx@@@ 00000001801fc8e0     GuMidphaseRTree.obj
 0002:00004960       __xmm@7f7fffff000000000000000000000000 00000001801fc960     GuMidphaseRTree.obj
 0002:000049d0       ??_7PxReportCallbackBase@physx@@6B@ 00000001801fc9d0     GuOverlapTestsMesh.obj
 0002:00004a00       ??_C@_0EP@CEFGCJKJ@PxGeometryQuery?3?3overlap?$CI?$CJ?3?5onl@ 00000001801fca00     GuOverlapTestsMesh.obj
 0002:00004a50       ??_C@_0EK@LFBKOGPK@D?3?2GithubYas?2PhysX?2physx?2source@ 00000001801fca50     GuOverlapTestsMesh.obj
 0002:00004aa0       ?MN@RTreePage@Gu@physx@@2MB 00000001801fcaa0     GuRTree.obj
 0002:00004aa4       ?MX@RTreePage@Gu@physx@@2MB 00000001801fcaa4     GuRTree.obj
 0002:00004ad0       ??_C@_0DP@EIPNAJKN@D?3?2GithubYas?2PhysX?2physx?2source@ 00000001801fcad0     GuRTree.obj
 0002:00004b80       ??_7SweepShapeMeshHitCallback@Gu@physx@@6B@ 00000001801fcb80     GuSweepsMesh.obj
 0002:00004b90       ??_7SweepCapsuleMeshHitCallback@Gu@physx@@6B@ 00000001801fcb90     GuSweepsMesh.obj
 0002:00004ba0       ??_7SweepBoxMeshHitCallback@Gu@physx@@6B@ 00000001801fcba0     GuSweepsMesh.obj
 0002:00004bb0       ??_7SweepConvexMeshHitCallback@Gu@physx@@6B@ 00000001801fcbb0     GuSweepsMesh.obj
 0002:00004be0       ??_C@_0P@GGNFNHKF@PxTriangleMesh@ 00000001801fcbe0     GuTriangleMesh.obj
 0002:00004bf0       ??_C@_0DL@FBLCHDCD@D?3?2GithubYas?2PhysX?2physx?2includ@ 00000001801fcbf0     GuTriangleMesh.obj
 0002:00004c30       ??_7TriangleMesh@Gu@physx@@6B@ 00000001801fcc30     GuTriangleMesh.obj
 0002:00004d08       ??_C@_0DD@LOOPMCGG@PxTriangleMesh?3?3release?3?5double@ 00000001801fcd08     GuTriangleMesh.obj
 0002:00004d40       ??_C@_0FH@PMPAJDGI@PxTriangleMesh?3?3getVerticesForM@ 00000001801fcd40     GuTriangleMesh.obj
 0002:00004da0       ??_C@_0EG@MFFFIODO@D?3?2GithubYas?2PhysX?2physx?2source@ 00000001801fcda0     GuTriangleMesh.obj
 0002:00004df0       ??_C@_0EF@GMNFLDH@PxTriangleMesh?3?3refitBVH?$CI?$CJ?5is?5n@ 00000001801fcdf0     GuTriangleMesh.obj
 0002:00004e40       __xmm@38383838383838383838383838383838 00000001801fce40     GuTriangleMesh.obj
 0002:00004e70       ??_C@_0BE@CNJKIINO@PxBVH34TriangleMesh@ 00000001801fce70     GuTriangleMeshBV4.obj
 0002:00004e88       ??_7BV4TriangleMesh@Gu@physx@@6B@ 00000001801fce88     GuTriangleMeshBV4.obj
 0002:00004f60       ??_C@_0EF@JLFNNPLP@BVH34?5trees?3?5refit?5operation?5on@ 00000001801fcf60     GuTriangleMeshBV4.obj
 0002:00004fb0       ??_C@_0EJ@KMFMJHHL@D?3?2GithubYas?2PhysX?2physx?2source@ 00000001801fcfb0     GuTriangleMeshBV4.obj
 0002:00004ffc       __real@3951b717            00000001801fcffc     GuTriangleMeshBV4.obj
 0002:00005020       ??_C@_0BE@EIFHCCBO@PxBVH33TriangleMesh@ 00000001801fd020     GuTriangleMeshRTree.obj
 0002:00005038       ??_7RTreeTriangleMesh@Gu@physx@@6B@ 00000001801fd038     GuTriangleMeshRTree.obj
 0002:00005110       ??_7?$RefitCallback@G@physx@@6B@ 00000001801fd110     GuTriangleMeshRTree.obj
 0002:00005120       ??_7?$RefitCallback@I@physx@@6B@ 00000001801fd120     GuTriangleMeshRTree.obj
 0002:00005150       ??_C@_0DO@FKBFGAIE@D?3?2GithubYas?2PhysX?2physx?2source@ 00000001801fd150     GuBV32.obj
 0002:000051b0       ??_C@_0ED@ENLLKDMJ@D?3?2GithubYas?2PhysX?2physx?2source@ 00000001801fd1b0     GuBV32Build.obj
 0002:00005220       ??_C@_0BC@FDAIDHBP@PxTetrahedronMesh@ 00000001801fd220     GuTetrahedronMesh.obj
 0002:00005238       ??_C@_0DO@NOCDIAFH@D?3?2GithubYas?2PhysX?2physx?2includ@ 00000001801fd238     GuTetrahedronMesh.obj
 0002:00005278       ??_C@_0BK@EPBIEMIB@PxDeformableVolumeAuxData@ 00000001801fd278     GuTetrahedronMesh.obj
 0002:00005298       ??_C@_0BH@OHONILPI@PxDeformableVolumeMesh@ 00000001801fd298     GuTetrahedronMesh.obj
 0002:000052b0       ??_7DeformableVolumeAuxData@Gu@physx@@6B@ 00000001801fd2b0     GuTetrahedronMesh.obj
 0002:000052f8       ??_7TetrahedronMesh@Gu@physx@@6B@ 00000001801fd2f8     GuTetrahedronMesh.obj
 0002:00005370       ??_7BVTetrahedronMesh@Gu@physx@@6B@ 00000001801fd370     GuTetrahedronMesh.obj
 0002:000053e8       ??_7DeformableVolumeMesh@Gu@physx@@6B@ 00000001801fd3e8     GuTetrahedronMesh.obj
 0002:00005468       ??_C@_0DG@JJNMDPMD@PxTetrahedronMesh?3?3release?3?5dou@ 00000001801fd468     GuTetrahedronMesh.obj
 0002:000054a0       ??_C@_0DL@IHNCIOFH@PxDeformableVolumeMesh?3?3release@ 00000001801fd4a0     GuTetrahedronMesh.obj
 0002:000054e0       ??_C@_0EJ@EOBPHNOP@D?3?2GithubYas?2PhysX?2physx?2source@ 00000001801fd4e0     GuTetrahedronMesh.obj
 0002:00005570       __xmm@00000000358637bd358637bd358637bd 00000001801fd570     GuPCMContactBoxBox.obj
 0002:00005580       __xmm@3f4ccccd3f4ccccd3f4ccccd3f4ccccd 00000001801fd580     GuPCMContactBoxBox.obj
 0002:00005590       __xmm@3f8003473f8003473f8003473f800347 00000001801fd590     GuPCMContactBoxBox.obj
 0002:000055a0       __xmm@ffffffff00000000ffffffffffffffff 00000001801fd5a0     GuPCMContactBoxBox.obj
 0002:000055d0       ??_7?$LocalConvex@VConvexHullNoScaleV@Gu@physx@@@Gu@physx@@6B@ 00000001801fd5d0     GuPCMContactBoxConvex.obj
 0002:00005600       __xmm@3f3504f33f3504f33f3504f33f3504f3 00000001801fd600     GuPCMContactBoxConvex.obj
 0002:00005650       __xmm@ffffffffffffffffffffffff00000000 00000001801fd650     GuPCMContactCapsuleCapsule.obj
 0002:00005680       __xmm@3fa000003fa000003fa000003fa00000 00000001801fd680     GuPCMContactCapsuleConvex.obj
 0002:000056b0       ??_7PCMCapsuleVsHeightfieldContactGenerationCallback@@6B@ 00000001801fd6b0     GuPCMContactCapsuleHeightField.obj
 0002:000056c0       __real@3f7f3b64            00000001801fd6c0     GuPCMContactCapsuleHeightField.obj
 0002:000056d0       __xmm@3ca3d70a3ca3d70a3ca3d70a3ca3d70a 00000001801fd6d0     GuPCMContactCapsuleHeightField.obj
 0002:00005720       __xmm@3f7ff9723f7ff9723f7ff9723f7ff972 00000001801fd720     GuPCMContactCapsuleMesh.obj
 0002:00005730       __xmm@3f7fffef3f7fffef3f7fffef3f7fffef 00000001801fd730     GuPCMContactCapsuleMesh.obj
 0002:00005740       __xmm@60ad78ec60ad78ec60ad78ec60ad78ec 00000001801fd740     GuPCMContactCapsuleMesh.obj
 0002:00005770       ??_7?$SupportLocalImpl@VTriangleV@Gu@physx@@@Gu@physx@@6B@ 00000001801fd770     GuPCMContactConvexCommon.obj
 0002:00005790       __xmm@3cf5c2803cf5c2803cf5c2803cf5c280 00000001801fd790     GuPCMContactConvexCommon.obj
 0002:000057a0       __xmm@3f7851ec3f7851ec3f7851ec3f7851ec 00000001801fd7a0     GuPCMContactConvexCommon.obj
 0002:000057d0       ??_7?$RelativeConvex@VConvexHullNoScaleV@Gu@physx@@@Gu@physx@@6B@ 00000001801fd7d0     GuPCMContactConvexConvex.obj
 0002:00005830       __xmm@3f19999a3f19999a3f19999a3f19999a 00000001801fd830     GuPCMContactConvexHeightField.obj
 0002:000058a0       __xmm@3f34fdf43f34fdf43f34fdf43f34fdf4 00000001801fd8a0     GuPCMContactGenBoxConvex.obj
 0002:000058d0       __xmm@3f80a3d73f80a3d73f80a3d73f80a3d7 00000001801fd8d0     GuPCMContactGenSphereCapsule.obj
 0002:000058e0       __xmm@bba3d70abba3d70abba3d70abba3d70a 00000001801fd8e0     GuPCMContactGenSphereCapsule.obj
 0002:00005910       __xmm@3f7ffd613f7ffd613f7ffd613f7ffd61 00000001801fd910     GuPCMContactPlaneBox.obj
 0002:00005960       __xmm@3a03126f3a03126f3a03126f3a03126f 00000001801fd960     GuPCMContactPlaneConvex.obj
 0002:00005a80       __xmm@3727c5ac3727c5ac3727c5ac3727c5ac 00000001801fda80     GuPCMContactSphereSphere.obj
 0002:00005ab0       __xmm@3f7f06f73f7f06f73f7f06f73f7f06f7 00000001801fdab0     GuPCMContactCustomGeometry.obj
 0002:00005ad0       ?gPCMBoxPolygonData@Gu@physx@@3QBEB 00000001801fdad0     GuPCMShapeConvex.obj
 0002:00005b30       ?invalidateThresholds@Gu@physx@@3QBMB 00000001801fdb30     GuPersistentContactManifold.obj
 0002:00005b48       ?invalidateQuatThresholds@Gu@physx@@3QBMB 00000001801fdb48     GuPersistentContactManifold.obj
 0002:00005b60       ?invalidateThresholds2@Gu@physx@@3QBMB 00000001801fdb60     GuPersistentContactManifold.obj
 0002:00005b70       ?invalidateQuatThresholds2@Gu@physx@@3QBMB 00000001801fdb70     GuPersistentContactManifold.obj
 0002:00005b90       __xmm@00000000340000003400000034000000 00000001801fdb90     GuPersistentContactManifold.obj
 0002:00005ba0       __xmm@ffffffffffffffff00000000ffffffff 00000001801fdba0     GuPersistentContactManifold.obj
 0002:00005bd0       __xmm@c1200000c1200000c1200000c1200000 00000001801fdbd0     GuPCMContactGenUtil.obj
 0002:00005d20       ??_C@_0CH@DHJGKCPD@Gu?3?3computeBounds?3?5Unknown?5shap@ 00000001801fdd20     GuBounds.obj
 0002:00005d48       ??_C@_0DL@JMKKNAGP@D?3?2GithubYas?2PhysX?2physx?2source@ 00000001801fdd48     GuBounds.obj
 0002:00005d84       __real@34800000            00000001801fdd84     GuBounds.obj
 0002:00005d88       __real@3f7fffef            00000001801fdd88     GuBounds.obj
 0002:00005d90       __xmm@3f8147ae3f8147ae3f8147ae3f8147ae 00000001801fdd90     GuBounds.obj
 0002:00005dc0       ??_C@_0DN@LAMDHKFA@D?3?2GithubYas?2PhysX?2physx?2source@ 00000001801fddc0     GuAABBTree.obj
 0002:00005e00       __xmm@5a60b17f5a60b17f5a60b17f5a60b17f 00000001801fde00     GuAABBTree.obj
 0002:00005e10       __xmm@da60b17fda60b17fda60b17fda60b17f 00000001801fde10     GuAABBTree.obj
 0002:00005e80       ??_C@_0EI@IAKJAHHM@D?3?2GithubYas?2PhysX?2physx?2source@ 00000001801fde80     GuIncrementalAABBTree.obj
 0002:00005ec8       ??_C@_0DF@CPAIDOOD@D?3?2GithubYas?2PhysX?2physx?2includ@ 00000001801fdec8     GuIncrementalAABBTree.obj
 0002:00005f00       ??_C@_0DI@NGAGBJPH@D?3?2GithubYas?2PhysX?2physx?2source@ 00000001801fdf00     GuSAH.obj
 0002:00005f60       ??_7PxBVH@physx@@6B@       00000001801fdf60     GuBVH.obj
 0002:00005fd8       ??_C@_05OKJNPKBM@PxBVH@    00000001801fdfd8     GuBVH.obj
 0002:00005fe0       ??_C@_0DC@EMMDGMPA@D?3?2GithubYas?2PhysX?2physx?2includ@ 00000001801fdfe0     GuBVH.obj
 0002:00006018       ??_7RefCountable@Cm@physx@@6B@ 00000001801fe018     GuBVH.obj
 0002:00006028       ??_7BVH@Gu@physx@@6BPxBVH@2@@ 00000001801fe028     GuBVH.obj
 0002:000060a0       ??_7BVH@Gu@physx@@6BRefCountable@Cm@2@@ 00000001801fe0a0     GuBVH.obj
 0002:000060b0       ??_C@_0DI@MEGOIKAC@D?3?2GithubYas?2PhysX?2physx?2source@ 00000001801fe0b0     GuBVH.obj
 0002:000060e8       ??_C@_0CK@HAIOEINI@PxBVH?3?3release?3?5double?5deletion@ 00000001801fe0e8     GuBVH.obj
 0002:00006140       ??_C@_0EO@NADPBHDK@D?3?2GithubYas?2PhysX?2physx?2source@ 00000001801fe140     GuIncrementalAABBPrunerCore.obj
 0002:00006190       __real@3f80a3d7            00000001801fe190     GuIncrementalAABBPrunerCore.obj
 0002:000061c0       ??_7BasePruner@Gu@physx@@6B@ 00000001801fe1c0     GuIncrementalAABBPruner.obj
 0002:000061d8       ??_7IncrementalAABBPruner@Gu@physx@@6B@ 00000001801fe1d8     GuIncrementalAABBPruner.obj
 0002:00006260       ??_C@_0EK@GMFKGGJF@D?3?2GithubYas?2PhysX?2physx?2source@ 00000001801fe260     GuIncrementalAABBPruner.obj
 0002:000062d0       ??_C@_0EA@EIPDCOL@D?3?2GithubYas?2PhysX?2physx?2source@ 00000001801fe2d0     GuPruningPool.obj
 0002:00006350       ??_7BucketPruner@Gu@physx@@6B@ 00000001801fe350     GuBucketPruner.obj
 0002:000063e0       ??_C@_0EB@LHPAJJI@D?3?2GithubYas?2PhysX?2physx?2source@ 00000001801fe3e0     GuBucketPruner.obj
 0002:00006430       __xmm@000000007e7fffff7e7fffff7e7fffff 00000001801fe430     GuBucketPruner.obj
 0002:00006440       __xmm@00000000fe7ffffffe7ffffffe7fffff 00000001801fe440     GuBucketPruner.obj
 0002:00006450       __xmm@3f13cd3a3f13cd3a3f13cd3a3f13cd3a 00000001801fe450     GuBucketPruner.obj
 0002:00006460       __xmm@bf13cd3a3f13cd3a3f13cd3abf13cd3a 00000001801fe460     GuBucketPruner.obj
 0002:00006470       __xmm@bf13cd3a3f13cd3abf13cd3a3f13cd3a 00000001801fe470     GuBucketPruner.obj
 0002:00006480       __xmm@bf13cd3abf13cd3a3f13cd3a3f13cd3a 00000001801fe480     GuBucketPruner.obj
 0002:00006490       __xmm@bf13cd3abf13cd3abf13cd3a3f13cd3a 00000001801fe490     GuBucketPruner.obj
 0002:000064a0       ?mIndices@MaverickNode@Gu@physx@@2QBIB 00000001801fe4a0     GuMaverickNode.obj
 0002:00006500       ??_C@_0EJ@BKFFLOAC@D?3?2GithubYas?2PhysX?2physx?2source@ 00000001801fe500     GuExtendedBucketPruner.obj
 0002:00006570       ??_7CompanionPruner@Gu@physx@@6B@ 00000001801fe570     GuSecondaryPruner.obj
 0002:000065f0       ??_7CompanionPrunerBucket@@6B@ 00000001801fe5f0     GuSecondaryPruner.obj
 0002:00006670       ??_7CompanionPrunerIncremental@@6B@ 00000001801fe670     GuSecondaryPruner.obj
 0002:000066f0       ??_7CompanionPrunerAABBTree@@6B@ 00000001801fe6f0     GuSecondaryPruner.obj
 0002:00006770       ??_C@_0EE@CDANBHMP@D?3?2GithubYas?2PhysX?2physx?2source@ 00000001801fe770     GuSecondaryPruner.obj
 0002:000067e0       ??_7AABBPruner@Gu@physx@@6B@ 00000001801fe7e0     GuAABBPruner.obj
 0002:00006880       ??_C@_0LA@IHBEIKND@SceneQuery?5static?5AABB?5Tree?5reb@ 00000001801fe880     GuAABBPruner.obj
 0002:00006930       ??_C@_0DP@HLNPDANA@D?3?2GithubYas?2PhysX?2physx?2source@ 00000001801fe930     GuAABBPruner.obj
 0002:00006970       ??_C@_0EC@DOHANDAA@D?3?2GithubYas?2PhysX?2physx?2source@ 00000001801fe970     GuActorShapeMap.obj
 0002:000069e0       ??_C@_0BF@DNABLJAF@Invalid?5pruner?5index@ 00000001801fe9e0     GuQuerySystem.obj
 0002:00006a00       ??_C@_0EA@FKOJMKGB@D?3?2GithubYas?2PhysX?2physx?2source@ 00000001801fea00     GuQuerySystem.obj
 0002:00006a90       ??_C@_0DM@LINJMNPC@D?3?2GithubYas?2PhysX?2physx?2source@ 00000001801fea90     GuFactory.obj
 0002:00006af0       ?reductionFactors@SubSortQuick@physx@@2QBMB 00000001801feaf0     GuRTreeCooking.obj
 0002:00006b00       ?stopAtTrisPerLeaf1@SubSortQuick@physx@@2QBIB 00000001801feb00     GuRTreeCooking.obj
 0002:00006bb0       ??_C@_0EJ@PMIBPEPH@D?3?2GithubYas?2PhysX?2physx?2source@ 00000001801febb0     GuRTreeCooking.obj
 0002:00006bfc       __real@41100000            00000001801febfc     GuRTreeCooking.obj
 0002:00006c00       __real@41700000            00000001801fec00     GuRTreeCooking.obj
 0002:00006c04       __real@42200000            00000001801fec04     GuRTreeCooking.obj
 0002:00006c10       __xmm@00000004000000030000000200000001 00000001801fec10     GuRTreeCooking.obj
 0002:00006c40       ??_C@_0EH@ELCLJAKF@D?3?2GithubYas?2PhysX?2physx?2source@ 00000001801fec40     GuCookingBVH.obj
 0002:00006c88       ??_C@_0DL@JHPKHGFA@Cooking?3?3cookBVH?3?5user?9provided@ 00000001801fec88     GuCookingBVH.obj
 0002:00006cc8       ??_C@_0DN@PLNPGFEB@Cooking?3?3createBVH?3?5user?9provid@ 00000001801fecc8     GuCookingBVH.obj
 0002:00006d10       ??_C@_0EL@JCJBAPHL@Cooking?3?3cookHeightField?3?5user?9@ 00000001801fed10     GuCookingHF.obj
 0002:00006d60       ??_C@_0EG@LJILNBOI@D?3?2GithubYas?2PhysX?2physx?2source@ 00000001801fed60     GuCookingHF.obj
 0002:00006db0       ??_C@_0EN@FCEPCAFC@Cooking?3?3createHeightField?3?5use@ 00000001801fedb0     GuCookingHF.obj
 0002:00006e00       ??_C@_0EK@EKAIJEBL@Cooking?3?3cookConvexMesh?3?5user?9p@ 00000001801fee00     GuCookingConvexMesh.obj
 0002:00006e50       ??_C@_0FA@GFFGAPML@Cooking?3?3cookConvexMesh?3?5provid@ 00000001801fee50     GuCookingConvexMesh.obj
 0002:00006ea0       ??_C@_0EP@PKDCPNNO@Cooking?3?3cookConvexMesh?3?5provid@ 00000001801feea0     GuCookingConvexMesh.obj
 0002:00006ef0       ??_C@_0EO@LKFMMDE@Cooking?3?3cookConvexMesh?3?5user?9p@ 00000001801feef0     GuCookingConvexMesh.obj
 0002:00006f40       ??_C@_0EL@KJEPJALG@Cooking?3?3cookConvexMesh?3?5user?9p@ 00000001801fef40     GuCookingConvexMesh.obj
 0002:00006f90       ??_C@_0FM@LHMEBKMM@Cooking?3?3cookConvexMesh?3?5GPU?9co@ 00000001801fef90     GuCookingConvexMesh.obj
 0002:00006ff0       ??_C@_0FJ@FHCFFABE@Cooking?3?3cookConvexMesh?3?5GPU?9co@ 00000001801feff0     GuCookingConvexMesh.obj
 0002:00007050       ??_C@_0LM@CHONPBFM@Cooking?3?3cookConvexMesh?3?5GPU?9co@ 00000001801ff050     GuCookingConvexMesh.obj
 0002:00007110       ??_C@_0EO@MOPKGPCH@D?3?2GithubYas?2PhysX?2physx?2source@ 00000001801ff110     GuCookingConvexMesh.obj
 0002:00007180       ??_7TriangleMeshBuilder@physx@@6B@ 00000001801ff180     GuCookingTriangleMesh.obj
 0002:000071a8       ??_7RTreeTriangleMeshBuilder@physx@@6B@ 00000001801ff1a8     GuCookingTriangleMesh.obj
 0002:000071d0       ??_7BV4TriangleMeshBuilder@physx@@6B@ 00000001801ff1d0     GuCookingTriangleMesh.obj
 0002:00007200       ??_C@_0FA@HCDNHDHA@D?3?2GithubYas?2PhysX?2physx?2source@ 00000001801ff200     GuCookingTriangleMesh.obj
 0002:00007250       ??_C@_0EM@DBPINPE@TriangleMeshBuilder?3?3cleanMesh?3@ 00000001801ff250     GuCookingTriangleMesh.obj
 0002:000072a0       ??_C@_0EF@MLNDPEDJ@TriangleMeshBuilder?3?3cleanMesh?3@ 00000001801ff2a0     GuCookingTriangleMesh.obj
 0002:000072f0       ??_C@_0FJ@HHJLKGDF@TriangleMesh?3?5triangles?5are?5too@ 00000001801ff2f0     GuCookingTriangleMesh.obj
 0002:00007350       ??_C@_0CN@KGPHHHLK@TriangleMesh?3?5mesh?5is?5too?5big?5f@ 00000001801ff350     GuCookingTriangleMesh.obj
 0002:00007380       ??_C@_0DD@CMJGDCNN@TriangleMesh?3?3loadFromDesc?3?5des@ 00000001801ff380     GuCookingTriangleMesh.obj
 0002:000073c0       ??_C@_0ED@ILJJNHIP@TriangleMesh?3?3loadFromDesc?3?5mPa@ 00000001801ff3c0     GuCookingTriangleMesh.obj
 0002:00007410       ??_C@_0EP@FHJBNFFH@Requesting?5SDF?5for?5mesh?5without@ 00000001801ff410     GuCookingTriangleMesh.obj
 0002:00007460       ??_C@_0BK@JIDHMMCE@BV4?5tree?5failed?5to?5build?4@ 00000001801ff460     GuCookingTriangleMesh.obj
 0002:00007480       ??_C@_0BL@DHNECNBE@BV32?5tree?5failed?5to?5build?4@ 00000001801ff480     GuCookingTriangleMesh.obj
 0002:000074a0       ??_7RTreeCookerRemap@@6B@  00000001801ff4a0     GuCookingTriangleMesh.obj
 0002:000074b0       ??_C@_0FC@PJIHAFK@Cooking?3?3validateTriangleMesh?3?5@ 00000001801ff4b0     GuCookingTriangleMesh.obj
 0002:00007590       ??_7PxCollisionTetrahedronMeshData@physx@@6B@ 00000001801ff590     GuCookingTetrahedronMesh.obj
 0002:000075c0       ??_7PxSimulationTetrahedronMeshData@physx@@6B@ 00000001801ff5c0     GuCookingTetrahedronMesh.obj
 0002:000075e0       ??_7CollisionTetrahedronMeshData@Gu@physx@@6B@ 00000001801ff5e0     GuCookingTetrahedronMesh.obj
 0002:00007610       ??_7SimulationTetrahedronMeshData@Gu@physx@@6B@ 00000001801ff610     GuCookingTetrahedronMesh.obj
 0002:00007630       ??_C@_0FD@NGGAKLAI@D?3?2GithubYas?2PhysX?2physx?2source@ 00000001801ff630     GuCookingTetrahedronMesh.obj
 0002:00007688       ??_7?$LocalConvex@VTetrahedronV@Gu@physx@@@Gu@physx@@6B@ 00000001801ff688     GuCookingTetrahedronMesh.obj
 0002:000076b8       ??_C@_0CD@OJGNHLOE@BV4_AABBTree?5tree?5failed?5to?5bui@ 00000001801ff6b8     GuCookingTetrahedronMesh.obj
 0002:000076e0       ??_C@_0DG@NCNIEEHB@TetrahedronMesh?3?3loadFromDesc?3?5@ 00000001801ff6e0     GuCookingTetrahedronMesh.obj
 0002:00007720       ??_C@_0EG@CJIFGLMC@TetrahedronMesh?3?3loadFromDesc?3?5@ 00000001801ff720     GuCookingTetrahedronMesh.obj
 0002:00007768       __real@be2aaaab            00000001801ff768     GuCookingTetrahedronMesh.obj
 0002:00007770       __xmm@00000003000000030000000300000003 00000001801ff770     GuCookingTetrahedronMesh.obj
 0002:000077a0       __real@3bc79ca10c924223    00000001801ff7a0     GuCookingVolumeIntegration.obj
 0002:000077a8       __real@3f91111111111111    00000001801ff7a8     GuCookingVolumeIntegration.obj
 0002:000077b0       __real@3fa5555555555555    00000001801ff7b0     GuCookingVolumeIntegration.obj
 0002:000077b8       __real@3fa999999999999a    00000001801ff7b8     GuCookingVolumeIntegration.obj
 0002:000077c0       __real@3fb5555555555555    00000001801ff7c0     GuCookingVolumeIntegration.obj
 0002:000077c8       __real@3fc5555555555555    00000001801ff7c8     GuCookingVolumeIntegration.obj
 0002:000077d0       __real@3fe0000000000000    00000001801ff7d0     GuCookingVolumeIntegration.obj
 0002:000077d8       __real@3ff0000000000000    00000001801ff7d8     GuCookingVolumeIntegration.obj
 0002:000077e0       __real@4008000000000000    00000001801ff7e0     GuCookingVolumeIntegration.obj
 0002:000077e8       __real@4010000000000000    00000001801ff7e8     GuCookingVolumeIntegration.obj
 0002:000077f0       __real@bf91111111111111    00000001801ff7f0     GuCookingVolumeIntegration.obj
 0002:000077f8       __real@bfa999999999999a    00000001801ff7f8     GuCookingVolumeIntegration.obj
 0002:00007800       __real@bfb5555555555555    00000001801ff800     GuCookingVolumeIntegration.obj
 0002:00007808       __real@bfc5555555555555    00000001801ff808     GuCookingVolumeIntegration.obj
 0002:00007810       __xmm@3c0888893c0888893c0888893c088889 00000001801ff810     GuCookingVolumeIntegration.obj
 0002:00007820       __xmm@3c8888893c8888893c8888893c888889 00000001801ff820     GuCookingVolumeIntegration.obj
 0002:00007830       __xmm@3d2aaaab3d2aaaab3d2aaaab3d2aaaab 00000001801ff830     GuCookingVolumeIntegration.obj
 0002:00007840       __xmm@3e2aaaab3e2aaaab3e2aaaab3e2aaaab 00000001801ff840     GuCookingVolumeIntegration.obj
 0002:00007850       __xmm@3f811111111111113f81111111111111 00000001801ff850     GuCookingVolumeIntegration.obj
 0002:00007860       __xmm@3f811111111111113f91111111111111 00000001801ff860     GuCookingVolumeIntegration.obj
 0002:00007870       __xmm@3f911111111111113f91111111111111 00000001801ff870     GuCookingVolumeIntegration.obj
 0002:00007880       __xmm@3fa55555555555553fa5555555555555 00000001801ff880     GuCookingVolumeIntegration.obj
 0002:00007890       __xmm@3fa55555555555553fc5555555555555 00000001801ff890     GuCookingVolumeIntegration.obj
 0002:000078a0       __xmm@3fd55555555555553fd5555555555555 00000001801ff8a0     GuCookingVolumeIntegration.obj
 0002:000078b0       __xmm@3fe00000000000003fe0000000000000 00000001801ff8b0     GuCookingVolumeIntegration.obj
 0002:000078c0       __xmm@7fffffffffffffff7fffffffffffffff 00000001801ff8c0     GuCookingVolumeIntegration.obj
 0002:000078d0       __xmm@80000000000000008000000000000000 00000001801ff8d0     GuCookingVolumeIntegration.obj
 0002:000078e0       ??_7ConvexHullLib@physx@@6B@ 00000001801ff8e0     GuCookingQuickHullConvexHullLib.obj
 0002:00007900       ??_7QuickHullConvexHullLib@physx@@6B@ 00000001801ff900     GuCookingQuickHullConvexHullLib.obj
 0002:00007920       ??_C@_0FK@OHDCNEIO@D?3?2GithubYas?2PhysX?2physx?2source@ 00000001801ff920     GuCookingQuickHullConvexHullLib.obj
 0002:00007980       ??_C@_0GA@EPPAEJPM@QuickHullConvexHullLib?3?3findSim@ 00000001801ff980     GuCookingQuickHullConvexHullLib.obj
 0002:000079e0       ??_C@_0FB@NEBIJMML@QuickHullConvexHullLib?3?3findSim@ 00000001801ff9e0     GuCookingQuickHullConvexHullLib.obj
 0002:00007a40       ??_C@_0FB@CLLCBEMM@QuickHullConvexHullLib?3?3findSim@ 00000001801ffa40     GuCookingQuickHullConvexHullLib.obj
 0002:00007a94       __real@34c00000            00000001801ffa94     GuCookingQuickHullConvexHullLib.obj
 0002:00007a98       ??_C@_0DP@PJBJBEGF@Meshmerizer?3?3extractHullPolygon@ 00000001801ffa98     GuCookingConvexPolygonsBuilder.obj
 0002:00007ae0       ??_C@_0FJ@FOEKCML@D?3?2GithubYas?2PhysX?2physx?2source@ 00000001801ffae0     GuCookingConvexPolygonsBuilder.obj
 0002:00007b40       ??_C@_0DL@IAFKOCCK@ConvexHullBuilder?3?5convex?5hull?5@ 00000001801ffb40     GuCookingConvexPolygonsBuilder.obj
 0002:00007b80       ??_C@_0GF@OJLJHAMH@ConvexHullBuilder?3?3CreateTriang@ 00000001801ffb80     GuCookingConvexPolygonsBuilder.obj
 0002:00007c10       ??_C@_0DF@LLFJIJGM@Gu?3?3ConvexMesh?3?3loadFromDesc?3?5d@ 00000001801ffc10     GuCookingConvexMeshBuilder.obj
 0002:00007c50       ??_C@_0HK@JOGKIEAA@Gu?3?3ConvexMesh?3?5Mesh?5has?5a?5nega@ 00000001801ffc50     GuCookingConvexMeshBuilder.obj
 0002:00007cd0       ??_C@_0DH@NJPPHFFD@Gu?3?3ConvexMesh?3?5Error?5computing@ 00000001801ffcd0     GuCookingConvexMeshBuilder.obj
 0002:00007d08       ??_C@_0DJ@LJDLGLDJ@Gu?3?3ConvexMesh?3?3loadConvexHull?3@ 00000001801ffd08     GuCookingConvexMeshBuilder.obj
 0002:00007d50       ??_C@_0HJ@KJANPPOE@ConvexMeshBuilder?3?3computeHullP@ 00000001801ffd50     GuCookingConvexMeshBuilder.obj
 0002:00007dd0       ??_C@_0FF@HKJDOGPF@D?3?2GithubYas?2PhysX?2physx?2source@ 00000001801ffdd0     GuCookingConvexMeshBuilder.obj
 0002:00007e28       ??_C@_06KDGGGLIJ@PxVec3@   00000001801ffe28     GuCookingConvexMeshBuilder.obj
 0002:00007e30       ??_C@_05LMJPANIN@PxU32@    00000001801ffe30     GuCookingConvexMeshBuilder.obj
 0002:00007e38       ??_C@_0O@JMAGMMGG@PxHullPolygon@ 00000001801ffe38     GuCookingConvexMeshBuilder.obj
 0002:00007e48       __real@3f13cd3a            00000001801ffe48     GuCookingConvexMeshBuilder.obj
 0002:00007e70       ??_C@_0FD@KHOHPLBD@D?3?2GithubYas?2PhysX?2physx?2source@ 00000001801ffe70     GuCookingConvexHullUtils.obj
 0002:00007ec4       __real@3e20d97c            00000001801ffec4     GuCookingConvexHullUtils.obj
 0002:00007ed0       ??_C@_0FB@JCMNGHIK@D?3?2GithubYas?2PhysX?2physx?2source@ 00000001801ffed0     GuCookingConvexHullLib.obj
 0002:00007f30       ??_C@_0JE@PABBNGEL@ConvexHullLib?3?3cleanupVertices?3@ 00000001801fff30     GuCookingConvexHullLib.obj
 0002:00007ff0       ??_C@_0FF@LEDHEGKA@D?3?2GithubYas?2PhysX?2physx?2source@ 00000001801ffff0     GuCookingConvexHullBuilder.obj
 0002:00008050       ??_C@_0EB@DCEIFDGC@ConvexHullBuilder?3?3init?3?5convex@ 0000000180200050     GuCookingConvexHullBuilder.obj
 0002:000080a0       ??_C@_0FM@KICBLCBH@Gu?3?3ConvexMesh?3?3checkHullPolygo@ 00000001802000a0     GuCookingConvexHullBuilder.obj
 0002:00008100       ??_C@_0GO@HBFIOGLL@Gu?3?3ConvexMesh?3?3checkHullPolygo@ 0000000180200100     GuCookingConvexHullBuilder.obj
 0002:00008170       ??_C@_0HF@OLJFBIEL@ConvexHullBuilder?3?5convex?5hull?5@ 0000000180200170     GuCookingConvexHullBuilder.obj
 0002:000081f0       ??_C@_0OG@JNHFOIL@ConvexHullBuilder?3?5convex?5hull?5@ 00000001802001f0     GuCookingConvexHullBuilder.obj
 0002:000082e0       ??_C@_0EJ@NIOIBAKH@Cooking?3?3cookConvexMesh?3?5non?9ma@ 00000001802002e0     GuCookingConvexHullBuilder.obj
 0002:00008350       ??_C@_0FI@PEAMEJNE@D?3?2GithubYas?2PhysX?2physx?2source@ 0000000180200350     GuCookingBigConvexDataBuilder.obj
 0002:000083a8       __real@437f0000            00000001802003a8     GuCookingSDF.obj
 0002:000083ac       __real@477fff00            00000001802003ac     GuCookingSDF.obj
 0002:000083b0       __sz_PhysXFoundation_64_dll 00000001802003b0     PhysXFoundation_64:PhysXFoundation_64.dll
 0002:000083c8       ??_C@_1BK@DBDEIDLH@?$AAK?$AAE?$AAR?$AAN?$AAE?$AAL?$AA3?$AA2?$AA?4?$AAD?$AAL?$AAL@ 00000001802003c8     Delayimp:delayhlp.obj
 0002:000083e8       ??_C@_0BI@OMNLIJDB@AcquireSRWLockExclusive@ 00000001802003e8     Delayimp:delayhlp.obj
 0002:00008400       ??_C@_0BI@HMIEPCNJ@ReleaseSRWLockExclusive@ 0000000180200400     Delayimp:delayhlp.obj
 0002:00008418       __pfnDliFailureHook2       0000000180200418     Delayimp:delayhk1.obj
 0002:00008420       __bChangeProtectionOfWholeDloadSection 0000000180200420     Delayimp:delaygv1.obj
 0002:00008430       ??_7type_info@@6B@         0000000180200430     LIBCMT:std_type_info_static.obj
 0002:000084a0       _pDefaultRawDllMain        00000001802004a0     LIBCMT:dll_dllmain.obj
 0002:000084a0       _pRawDllMain               00000001802004a0     LIBCMT:dll_dllmain.obj
 0002:000084b0       _load_config_used          00000001802004b0     LIBCMT:loadcfg.obj
 0002:000085f0       _pDestructExceptionObject  00000001802005f0     libvcruntime:ehhelpers.obj
 0002:00008d10       ??_C@_08EHJDFFNH@__based?$CI@ 0000000180200d10     libvcruntime:undname.obj
 0002:00008d20       ??_C@_07KOLFKCDI@__cdecl@  0000000180200d20     libvcruntime:undname.obj
 0002:00008d28       ??_C@_09IFJBGAPI@__stdcall@ 0000000180200d28     libvcruntime:undname.obj
 0002:00008d38       ??_C@_0L@NPHFGOKO@__thiscall@ 0000000180200d38     libvcruntime:undname.obj
 0002:00008d48       ??_C@_0L@JMKHOMEK@__fastcall@ 0000000180200d48     libvcruntime:undname.obj
 0002:00008d58       ??_C@_0N@BCKKPABJ@__vectorcall@ 0000000180200d58     libvcruntime:undname.obj
 0002:00008d68       ??_C@_0BA@NAGGFLJK@__preserve_none@ 0000000180200d68     libvcruntime:undname.obj
 0002:00008d78       ??_C@_09HIJEGCPM@__clrcall@ 0000000180200d78     libvcruntime:undname.obj
 0002:00008d84       ??_C@_06GHPCKEAG@__eabi@   0000000180200d84     libvcruntime:undname.obj
 0002:00008d90       ??_C@_09IOPIDJLG@__swift_1@ 0000000180200d90     libvcruntime:undname.obj
 0002:00008da0       ??_C@_09KFNFGKHF@__swift_2@ 0000000180200da0     libvcruntime:undname.obj
 0002:00008db0       ??_C@_09LMMOFLDE@__swift_3@ 0000000180200db0     libvcruntime:undname.obj
 0002:00008dc0       ??_C@_07JOMMBBKO@__ptr64@  0000000180200dc0     libvcruntime:undname.obj
 0002:00008dc8       ??_C@_0L@PILCLIHE@__restrict@ 0000000180200dc8     libvcruntime:undname.obj
 0002:00008dd8       ??_C@_0M@GFIIJFMG@__unaligned@ 0000000180200dd8     libvcruntime:undname.obj
 0002:00008de8       ??_C@_09DHDLOLLB@restrict?$CI@ 0000000180200de8     libvcruntime:undname.obj
 0002:00008df4       ??_C@_04NIHEBCM@?5new@     0000000180200df4     libvcruntime:undname.obj
 0002:00008e00       ??_C@_07FPCDHGMM@?5delete@ 0000000180200e00     libvcruntime:undname.obj
 0002:00008e08       ??_C@_01NEMOKFLO@?$DN@     0000000180200e08     libvcruntime:undname.obj
 0002:00008e0c       ??_C@_02GPIOPFAK@?$DO?$DO@ 0000000180200e0c     libvcruntime:undname.obj
 0002:00008e10       ??_C@_02FODMEDOG@?$DM?$DM@ 0000000180200e10     libvcruntime:undname.obj
 0002:00008e14       ??_C@_01DCLJPIOD@?$CB@     0000000180200e14     libvcruntime:undname.obj
 0002:00008e18       ??_C@_02EGOFBIJA@?$DN?$DN@ 0000000180200e18     libvcruntime:undname.obj
 0002:00008e1c       ??_C@_02FDNJECIE@?$CB?$DN@ 0000000180200e1c     libvcruntime:undname.obj
 0002:00008e20       ??_C@_02GPECMEKF@?$FL?$FN@ 0000000180200e20     libvcruntime:undname.obj
 0002:00008e28       ??_C@_08LHJFAFGD@operator@ 0000000180200e28     libvcruntime:undname.obj
 0002:00008e34       ??_C@_02HBOOOICD@?9?$DO@   0000000180200e34     libvcruntime:undname.obj
 0002:00008e38       ??_C@_01NBENCBCI@?$CK@     0000000180200e38     libvcruntime:undname.obj
 0002:00008e3c       ??_C@_02ECNGHCIF@?$CL?$CL@ 0000000180200e3c     libvcruntime:undname.obj
 0002:00008e40       ??_C@_02BAABKJLB@?9?9@     0000000180200e40     libvcruntime:undname.obj
 0002:00008e44       ??_C@_01JOAMLHOP@?9@       0000000180200e44     libvcruntime:undname.obj
 0002:00008e48       ??_C@_01MIFGBAGJ@?$CL@     0000000180200e48     libvcruntime:undname.obj
 0002:00008e4c       ??_C@_01HNPIGOCE@?$CG@     0000000180200e4c     libvcruntime:undname.obj
 0002:00008e50       ??_C@_03MNHNFDLC@?9?$DO?$CK@ 0000000180200e50     libvcruntime:undname.obj
 0002:00008e54       ??_C@_01KMDKNFGN@?1@       0000000180200e54     libvcruntime:undname.obj
 0002:00008e58       ??_C@_01FGNFDNOH@?$CF@     0000000180200e58     libvcruntime:undname.obj
 0002:00008e5c       ??_C@_01MNNFJEPP@?$DM@     0000000180200e5c     libvcruntime:undname.obj
 0002:00008e60       ??_C@_02EHCHHCKH@?$DM?$DN@ 0000000180200e60     libvcruntime:undname.obj
 0002:00008e64       ??_C@_01PPODPGHN@?$DO@     0000000180200e64     libvcruntime:undname.obj
 0002:00008e68       ??_C@_02EEKDKGMJ@?$DO?$DN@ 0000000180200e68     libvcruntime:undname.obj
 0002:00008e6c       ??_C@_01IHBHIGKO@?0@       0000000180200e6c     libvcruntime:undname.obj
 0002:00008e70       ??_C@_02HCKGKOFO@?$CI?$CJ@ 0000000180200e70     libvcruntime:undname.obj
 0002:00008e74       ??_C@_01PJKLJHI@?$HO@      0000000180200e74     libvcruntime:undname.obj
 0002:00008e78       ??_C@_01JKBOJNNK@?$FO@     0000000180200e78     libvcruntime:undname.obj
 0002:00008e7c       ??_C@_01DNKMNLPK@?$HM@     0000000180200e7c     libvcruntime:undname.obj
 0002:00008e80       ??_C@_02PPKAJPJL@?$CG?$CG@ 0000000180200e80     libvcruntime:undname.obj
 0002:00008e84       ??_C@_02NONPIBCD@?$HM?$HM@ 0000000180200e84     libvcruntime:undname.obj
 0002:00008e88       ??_C@_02FPIMKNGF@?$CK?$DN@ 0000000180200e88     libvcruntime:undname.obj
 0002:00008e8c       ??_C@_02FOEOMHFC@?$CL?$DN@ 0000000180200e8c     libvcruntime:undname.obj
 0002:00008e90       ??_C@_02FKMDLLOA@?9?$DN@   0000000180200e90     libvcruntime:undname.obj
 0002:00008e94       ??_C@_02FJEHGPIO@?1?$DN@   0000000180200e94     libvcruntime:undname.obj
 0002:00008e98       ??_C@_02FENAOKFI@?$CF?$DN@ 0000000180200e98     libvcruntime:undname.obj
 0002:00008e9c       ??_C@_03IKFCCPFF@?$DO?$DO?$DN@ 0000000180200e9c     libvcruntime:undname.obj
 0002:00008ea0       ??_C@_03CDNPDDLA@?$DM?$DM?$DN@ 0000000180200ea0     libvcruntime:undname.obj
 0002:00008ea4       ??_C@_02FGJGFEAB@?$CG?$DN@ 0000000180200ea4     libvcruntime:undname.obj
 0002:00008ea8       ??_C@_02DHLNPPGH@?$HM?$DN@ 0000000180200ea8     libvcruntime:undname.obj
 0002:00008eac       ??_C@_02MHEGNOJ@?$FO?$DN@  0000000180200eac     libvcruntime:undname.obj
 0002:00008eb0       ??_C@_09IFPLHPGF@?$GAvftable?8@ 0000000180200eb0     libvcruntime:undname.obj
 0002:00008ec0       ??_C@_09BLBHBJP@?$GAvbtable?8@ 0000000180200ec0     libvcruntime:undname.obj
 0002:00008ed0       ??_C@_07FEEIOKP@?$GAvcall?8@ 0000000180200ed0     libvcruntime:undname.obj
 0002:00008ed8       ??_C@_08LLFFHHDJ@?$GAtypeof?8@ 0000000180200ed8     libvcruntime:undname.obj
 0002:00008ee8       ??_C@_0BF@KDPPACIK@?$GAlocal?5static?5guard?8@ 0000000180200ee8     libvcruntime:undname.obj
 0002:00008f00       ??_C@_08OBABFOLI@?$GAstring?8@ 0000000180200f00     libvcruntime:undname.obj
 0002:00008f10       ??_C@_0BD@JDLKDPAB@?$GAvbase?5destructor?8@ 0000000180200f10     libvcruntime:undname.obj
 0002:00008f28       ??_C@_0BN@DEGPLNFK@?$GAvector?5deleting?5destructor?8@ 0000000180200f28     libvcruntime:undname.obj
 0002:00008f48       ??_C@_0BO@OBMKPJIG@?$GAdefault?5constructor?5closure?8@ 0000000180200f48     libvcruntime:undname.obj
 0002:00008f68       ??_C@_0BN@IMDCHIKM@?$GAscalar?5deleting?5destructor?8@ 0000000180200f68     libvcruntime:undname.obj
 0002:00008f88       ??_C@_0BO@PFGOCPJJ@?$GAvector?5constructor?5iterator?8@ 0000000180200f88     libvcruntime:undname.obj
 0002:00008fa8       ??_C@_0BN@LFPFMEDL@?$GAvector?5destructor?5iterator?8@ 0000000180200fa8     libvcruntime:undname.obj
 0002:00008fc8       ??_C@_0CE@IKBNEHA@?$GAvector?5vbase?5constructor?5itera@ 0000000180200fc8     libvcruntime:undname.obj
 0002:00008ff0       ??_C@_0BL@NILFHHPC@?$GAvirtual?5displacement?5map?8@ 0000000180200ff0     libvcruntime:undname.obj
 0002:00009010       ??_C@_0CB@JONCMFFK@?$GAeh?5vector?5constructor?5iterator@ 0000000180201010     libvcruntime:undname.obj
 0002:00009038       ??_C@_0CA@GCEOPDGL@?$GAeh?5vector?5destructor?5iterator?8@ 0000000180201038     libvcruntime:undname.obj
 0002:00009058       ??_C@_0CH@OOJPLCPH@?$GAeh?5vector?5vbase?5constructor?5it@ 0000000180201058     libvcruntime:undname.obj
 0002:00009080       ??_C@_0BL@LLKPOHJI@?$GAcopy?5constructor?5closure?8@ 0000000180201080     libvcruntime:undname.obj
 0002:000090a0       ??_C@_0BA@KBCDOMBN@?$GAudt?5returning?8@ 00000001802010a0     libvcruntime:undname.obj
 0002:000090b0       ??_C@_03KLGMFNMG@?$GAEH@   00000001802010b0     libvcruntime:undname.obj
 0002:000090b4       ??_C@_05KHLCHHI@?$GARTTI@  00000001802010b4     libvcruntime:undname.obj
 0002:000090c0       ??_C@_0BA@KKLDJDLB@?$GAlocal?5vftable?8@ 00000001802010c0     libvcruntime:undname.obj
 0002:000090d0       ??_C@_0CE@IIHCMGGL@?$GAlocal?5vftable?5constructor?5clos@ 00000001802010d0     libvcruntime:undname.obj
 0002:000090f4       ??_C@_06FHBGPFGH@?5new?$FL?$FN@ 00000001802010f4     libvcruntime:undname.obj
 0002:00009100       ??_C@_09LBNFPBCA@?5delete?$FL?$FN@ 0000000180201100     libvcruntime:undname.obj
 0002:00009110       ??_C@_0P@HJKNJFNN@?$GAomni?5callsig?8@ 0000000180201110     libvcruntime:undname.obj
 0002:00009120       ??_C@_0BL@CNOONJFP@?$GAplacement?5delete?5closure?8@ 0000000180201120     libvcruntime:undname.obj
 0002:00009140       ??_C@_0BN@CKNJLHMB@?$GAplacement?5delete?$FL?$FN?5closure?8@ 0000000180201140     libvcruntime:undname.obj
 0002:00009160       ??_C@_0CG@CFDHKGGD@?$GAmanaged?5vector?5constructor?5ite@ 0000000180201160     libvcruntime:undname.obj
 0002:00009188       ??_C@_0CF@IMGKMJNO@?$GAmanaged?5vector?5destructor?5iter@ 0000000180201188     libvcruntime:undname.obj
 0002:000091b0       ??_C@_0CG@HLDDJMAG@?$GAeh?5vector?5copy?5constructor?5ite@ 00000001802011b0     libvcruntime:undname.obj
 0002:000091d8       ??_C@_0CM@FCBBDIGB@?$GAeh?5vector?5vbase?5copy?5construct@ 00000001802011d8     libvcruntime:undname.obj
 0002:00009208       ??_C@_0BL@CLIPGLGB@?$GAdynamic?5initializer?5for?5?8@ 0000000180201208     libvcruntime:undname.obj
 0002:00009228       ??_C@_0CB@PDBIFEP@?$GAdynamic?5atexit?5destructor?5for?5@ 0000000180201228     libvcruntime:undname.obj
 0002:00009250       ??_C@_0CD@CGAJBKEJ@?$GAvector?5copy?5constructor?5iterat@ 0000000180201250     libvcruntime:undname.obj
 0002:00009278       ??_C@_0CJ@GJELGAMM@?$GAvector?5vbase?5copy?5constructor?5@ 0000000180201278     libvcruntime:undname.obj
 0002:000092a8       ??_C@_0CL@FGIJHLCE@?$GAmanaged?5vector?5copy?5constructo@ 00000001802012a8     libvcruntime:undname.obj
 0002:000092d8       ??_C@_0BM@PMGGMLDN@?$GAlocal?5static?5thread?5guard?8@ 00000001802012d8     libvcruntime:undname.obj
 0002:000092f8       ??_C@_0N@BDNMDMOL@operator?5?$CC?$CC?5@ 00000001802012f8     libvcruntime:undname.obj
 0002:00009308       ??_C@_0BC@GGEBGALA@operator?5co_await@ 0000000180201308     libvcruntime:undname.obj
 0002:00009320       ??_C@_0M@GAAIMMOH@operator?$DM?$DN?$DO@ 0000000180201320     libvcruntime:undname.obj
 0002:00009330       ??_C@_0BC@DAFEJGAK@?5Type?5Descriptor?8@ 0000000180201330     libvcruntime:undname.obj
 0002:00009348       ??_C@_0BM@LDKODKLH@?5Base?5Class?5Descriptor?5at?5?$CI@ 0000000180201348     libvcruntime:undname.obj
 0002:00009368       ??_C@_0BD@LGICGFMM@?5Base?5Class?5Array?8@ 0000000180201368     libvcruntime:undname.obj
 0002:00009380       ??_C@_0BN@MECKDCOJ@?5Class?5Hierarchy?5Descriptor?8@ 0000000180201380     libvcruntime:undname.obj
 0002:000093a0       ??_C@_0BK@CFCOFLF@?5Complete?5Object?5Locator?8@ 00000001802013a0     libvcruntime:undname.obj
 0002:000093c0       ??_C@_0BG@JNJLAMPM@?$GAanonymous?5namespace?8@ 00000001802013c0     libvcruntime:undname.obj
 0002:000093d8       ??_C@_04HEJADOOB@CV?3?5@   00000001802013d8     libvcruntime:undname.obj
 0002:000093e0       ??_C@_02MOLJINC@?3?3@      00000001802013e0     libvcruntime:undname.obj
 0002:000093e8       ??_C@_0BE@JAEOCHPE@template?9parameter?9@ 00000001802013e8     libvcruntime:undname.obj
 0002:00009400       ??_C@_0BF@LNLGBBNL@?$GAtemplate?9parameter?9@ 0000000180201400     libvcruntime:undname.obj
 0002:00009418       ??_C@_0O@KHGCOMHP@generic?9type?9@ 0000000180201418     libvcruntime:undname.obj
 0002:00009428       ??_C@_0P@ODDENDLM@?$GAgeneric?9type?9@ 0000000180201428     libvcruntime:undname.obj
 0002:00009438       ??_C@_02OHHJMEON@?8?8@     0000000180201438     libvcruntime:undname.obj
 0002:00009440       ??_C@_0BN@IBLMMFAP@?$GAnon?9type?9template?9parameter@ 0000000180201440     libvcruntime:undname.obj
 0002:00009460       ??_C@_03DLDNIBIK@?$CFlf@   0000000180201460     libvcruntime:undname.obj
 0002:00009464       ??_C@_04OFALKAJ@?$DP?$DP_C@ 0000000180201464     libvcruntime:undname.obj
 0002:0000946c       ??_C@_03KHICJKCI@?4?4?4@   000000018020146c     libvcruntime:undname.obj
 0002:00009470       ??_C@_04HIBGFPH@NULL@      0000000180201470     libvcruntime:undname.obj
 0002:00009478       ??_C@_02DPKJAMEF@?$CFd@    0000000180201478     libvcruntime:undname.obj
 0002:00009480       ??_C@_0BK@IHCCFNEL@?$GAtemplate?9type?9parameter?9@ 0000000180201480     libvcruntime:undname.obj
 0002:000094a0       ??_C@_0BK@OFCNNNKO@?$GAgeneric?9class?9parameter?9@ 00000001802014a0     libvcruntime:undname.obj
 0002:000094c0       ??_C@_0BL@NGJBLFIL@?$GAgeneric?9method?9parameter?9@ 00000001802014c0     libvcruntime:undname.obj
 0002:000094e0       ??_C@_07OHNGEDJK@nullptr@  00000001802014e0     libvcruntime:undname.obj
 0002:000094e8       ??_C@_06COJIGPIB@lambda@   00000001802014e8     libvcruntime:undname.obj
 0002:000094f0       ??_C@_04GKJNKENE@void@     00000001802014f0     libvcruntime:undname.obj
 0002:000094f8       ??_C@_0BE@EODMJLIF@?$GAtemplate?9parameter@ 00000001802014f8     libvcruntime:undname.obj
 0002:0000950c       ??_C@_03OPGICMGF@?$HN?8?5@ 000000018020150c     libvcruntime:undname.obj
 0002:00009510       ??_C@_02IGFCGPIL@?$HN?8@   0000000180201510     libvcruntime:undname.obj
 0002:00009518       ??_C@_0N@CBHHHENL@?$GAvtordispex?$HL@ 0000000180201518     libvcruntime:undname.obj
 0002:00009528       ??_C@_0L@GHPFDFH@?$GAvtordisp?$HL@ 0000000180201528     libvcruntime:undname.obj
 0002:00009538       ??_C@_0L@HNGCOGAE@?$GAadjustor?$HL@ 0000000180201538     libvcruntime:undname.obj
 0002:00009548       ??_C@_0CB@KJDOOODE@?$GAlocal?5static?5destructor?5helper@ 0000000180201548     libvcruntime:undname.obj
 0002:00009570       ??_C@_0DB@ILEFOCIJ@?$GAtemplate?5static?5data?5member?5co@ 0000000180201570     libvcruntime:undname.obj
 0002:000095a8       ??_C@_0DA@HGFJFBBE@?$GAtemplate?5static?5data?5member?5de@ 00000001802015a8     libvcruntime:undname.obj
 0002:000095d8       ??_C@_07PGOEDBHP@static?5@ 00000001802015d8     libvcruntime:undname.obj
 0002:000095e0       ??_C@_08NIEOINHE@virtual?5@ 00000001802015e0     libvcruntime:undname.obj
 0002:000095f0       ??_C@_09LAPHOOG@private?3?5@ 00000001802015f0     libvcruntime:undname.obj
 0002:00009600       ??_C@_0M@GAIFPFIP@protected?3?5@ 0000000180201600     libvcruntime:undname.obj
 0002:00009610       ??_C@_08GPDDCMKI@public?3?5@ 0000000180201610     libvcruntime:undname.obj
 0002:00009620       ??_C@_08KJLFOPNE@?$FLthunk?$FN?3@ 0000000180201620     libvcruntime:undname.obj
 0002:00009630       ??_C@_0M@DHNBOJMP@extern?5?$CCC?$CC?5@ 0000000180201630     libvcruntime:undname.obj
 0002:0000963c       ??_C@_02KCKGHPCA@?$CJ?5@   000000018020163c     libvcruntime:undname.obj
 0002:00009640       ??_C@_05CIHEBHNO@char?5@   0000000180201640     libvcruntime:undname.obj
 0002:00009648       ??_C@_06EHJMALKF@short?5@  0000000180201648     libvcruntime:undname.obj
 0002:00009650       ??_C@_04LAHKHJMA@int?5@    0000000180201650     libvcruntime:undname.obj
 0002:00009658       ??_C@_05CJIMAING@long?5@   0000000180201658     libvcruntime:undname.obj
 0002:00009660       ??_C@_09EBBEKKIH@unsigned?5@ 0000000180201660     libvcruntime:undname.obj
 0002:0000966c       ??_C@_05BEFAKPML@void?5@   000000018020166c     libvcruntime:undname.obj
 0002:00009678       ??_C@_09GAIEOBLP@volatile?5@ 0000000180201678     libvcruntime:undname.obj
 0002:00009688       ??_C@_08PABEKFH@volatile@  0000000180201688     libvcruntime:undname.obj
 0002:00009698       ??_C@_0BA@LKIJLKPP@std?3?3nullptr_t?5@ 0000000180201698     libvcruntime:undname.obj
 0002:000096a8       ??_C@_0P@GCOCNKDM@std?3?3nullptr_t@ 00000001802016a8     libvcruntime:undname.obj
 0002:000096b8       ??_C@_0L@EGPHHEKN@?$DMellipsis?$DO@ 00000001802016b8     libvcruntime:undname.obj
 0002:000096c4       ??_C@_04EENFHACM@?0?4?4?4@ 00000001802016c4     libvcruntime:undname.obj
 0002:000096d0       ??_C@_0M@ELJOJFFH@?0?$DMellipsis?$DO@ 00000001802016d0     libvcruntime:undname.obj
 0002:000096e0       ??_C@_09DNHFEOJI@?5noexcept@ 00000001802016e0     libvcruntime:undname.obj
 0002:000096ec       ??_C@_03PBJBJNON@cpu@      00000001802016ec     libvcruntime:undname.obj
 0002:000096f0       ??_C@_03DCBBJBAA@amp@      00000001802016f0     libvcruntime:undname.obj
 0002:000096f4       ??_C@_02KEGNLNML@?0?5@     00000001802016f4     libvcruntime:undname.obj
 0002:000096f8       ??_C@_04ENMBGAPA@char@     00000001802016f8     libvcruntime:undname.obj
 0002:00009700       ??_C@_05BFKKPKCG@short@    0000000180201700     libvcruntime:undname.obj
 0002:00009708       ??_C@_03JBIPMCLC@int@      0000000180201708     libvcruntime:undname.obj
 0002:0000970c       ??_C@_04GOKPGOLB@long@     000000018020170c     libvcruntime:undname.obj
 0002:00009714       ??_C@_05KNFBNCOH@float@    0000000180201714     libvcruntime:undname.obj
 0002:0000971c       ??_C@_06BNJCAIGJ@double@   000000018020171c     libvcruntime:undname.obj
 0002:00009724       ??_C@_04DDKJGDCM@bool@     0000000180201724     libvcruntime:undname.obj
 0002:0000972c       ??_C@_06EBGKOKIG@__int8@   000000018020172c     libvcruntime:undname.obj
 0002:00009738       ??_C@_07ICFHOGAF@__int16@  0000000180201738     libvcruntime:undname.obj
 0002:00009740       ??_C@_07OFLPPHGP@__int32@  0000000180201740     libvcruntime:undname.obj
 0002:00009748       ??_C@_07LFCOJCAC@__int64@  0000000180201748     libvcruntime:undname.obj
 0002:00009750       ??_C@_08GAHOLHEO@__int128@ 0000000180201750     libvcruntime:undname.obj
 0002:00009760       ??_C@_09EEKGDCPH@?$DMunknown?$DO@ 0000000180201760     libvcruntime:undname.obj
 0002:00009770       ??_C@_07CFHGOPCN@char8_t@  0000000180201770     libvcruntime:undname.obj
 0002:00009778       ??_C@_08HBIPOFJB@char16_t@ 0000000180201778     libvcruntime:undname.obj
 0002:00009788       ??_C@_08IECNCBKG@char32_t@ 0000000180201788     libvcruntime:undname.obj
 0002:00009798       ??_C@_07CLGGIAMF@wchar_t@  0000000180201798     libvcruntime:undname.obj
 0002:000097a0       ??_C@_04HAPDLBFF@auto@     00000001802017a0     libvcruntime:undname.obj
 0002:000097a8       ??_C@_0P@LHCGKIGK@decltype?$CIauto?$CJ@ 00000001802017a8     libvcruntime:undname.obj
 0002:000097b8       ??_C@_05PCNBGHCF@this?5@   00000001802017b8     libvcruntime:undname.obj
 0002:000097c0       ??_C@_06GCICPBLB@__w64?5@  00000001802017c0     libvcruntime:undname.obj
 0002:000097c8       ??_C@_07NFANNNEC@UNKNOWN@  00000001802017c8     libvcruntime:undname.obj
 0002:000097d0       ??_C@_07EDHNAJHC@signed?5@ 00000001802017d0     libvcruntime:undname.obj
 0002:000097d8       ??_C@_05BNCCCJPP@const@    00000001802017d8     libvcruntime:undname.obj
 0002:000097e0       ??_C@_09EFNPDFFP@?5volatile@ 00000001802017e0     libvcruntime:undname.obj
 0002:000097f0       ??_C@_0P@GCIFDJCJ@?$GAunknown?5ecsu?8@ 00000001802017f0     libvcruntime:undname.obj
 0002:00009800       ??_C@_06MOJHIBMG@union?5@  0000000180201800     libvcruntime:undname.obj
 0002:00009808       ??_C@_07DIBCDNGL@struct?5@ 0000000180201808     libvcruntime:undname.obj
 0002:00009810       ??_C@_06LJBABKPM@class?5@  0000000180201810     libvcruntime:undname.obj
 0002:00009818       ??_C@_08KOFANOFK@coclass?5@ 0000000180201818     libvcruntime:undname.obj
 0002:00009828       ??_C@_0N@DLIEFKNA@cointerface?5@ 0000000180201828     libvcruntime:undname.obj
 0002:00009838       ??_C@_05LJGMCFOG@enum?5@   0000000180201838     libvcruntime:undname.obj
 0002:00009840       ??_C@_06LIJLOJAG@const?5@  0000000180201840     libvcruntime:undname.obj
 0002:00009848       ??_C@_02KJPKDIBN@?$CG?5@   0000000180201848     libvcruntime:undname.obj
 0002:0000984c       ??_C@_03PCKGMOPB@?$CG?$CG?5@ 000000018020184c     libvcruntime:undname.obj
 0002:00009850       ??_C@_0M@EALIELKG@cli?3?3array?$DM@ 0000000180201850     libvcruntime:undname.obj
 0002:00009860       ??_C@_0O@GKABPPIF@cli?3?3pin_ptr?$DM@ 0000000180201860     libvcruntime:undname.obj
 0002:00009870       ??_C@_02GOGNNPBN@?$CJ?$FL@ 0000000180201870     libvcruntime:undname.obj
 0002:00009874       ??_C@_06EEGAIFAK@?$HLflat?$HN@ 0000000180201874     libvcruntime:undname.obj
 0002:0000987c       ??_C@_05JIBOFOHK@?$HLfor?5@ 000000018020187c     libvcruntime:undname.obj
 0002:00009884       ??_C@_02MDINNEEG@s?5@      0000000180201884     libvcruntime:undname.obj
 0002:00009890       ??_7DNameNode@@6B@         0000000180201890     libvcruntime:undname.obj
 0002:000098b8       ??_7charNode@@6B@          00000001802018b8     libvcruntime:undname.obj
 0002:000098e0       ??_7pcharNode@@6B@         00000001802018e0     libvcruntime:undname.obj
 0002:00009908       ??_7pDNameNode@@6B@        0000000180201908     libvcruntime:undname.obj
 0002:00009930       ??_7DNameStatusNode@@6B@   0000000180201930     libvcruntime:undname.obj
 0002:00009958       ??_7pairNode@@6B@          0000000180201958     libvcruntime:undname.obj
 0002:00009a80       ??_C@_04OKOHEJBO@?5?$DP?$DP?5@ 0000000180201a80     libvcruntime:undname.obj
 0002:00009a90       ?nodes@?1??make@DNameStatusNode@@SAPEBV2@W4DNameStatus@@@Z@4QBV2@B 0000000180201a90     libvcruntime:undname.obj
 0002:00009ad0       ?s_negLengthTab@FH4@@3QBCB 0000000180201ad0     libvcruntime:risctrnsctrl.obj
 0002:00009ae0       ?s_shiftTab@FH4@@3QBEB     0000000180201ae0     libvcruntime:risctrnsctrl.obj
 0002:00009c40       ??_C@_1DM@KHCHBNEB@?$AAa?$AAp?$AAi?$AA?9?$AAm?$AAs?$AA?9?$AAw?$AAi?$AAn?$AA?9?$AAc?$AAo?$AAr?$AAe@ 0000000180201c40     libvcruntime:winapi_downlevel.obj
 0002:00009c80       ??_C@_1DK@LPPGFMPP@?$AAa?$AAp?$AAi?$AA?9?$AAm?$AAs?$AA?9?$AAw?$AAi?$AAn?$AA?9?$AAc?$AAo?$AAr?$AAe@ 0000000180201c80     libvcruntime:winapi_downlevel.obj
 0002:00009cc0       ??_C@_1BC@GDMECMAK@?$AAk?$AAe?$AAr?$AAn?$AAe?$AAl?$AA3?$AA2@ 0000000180201cc0     libvcruntime:winapi_downlevel.obj
 0002:00009cd8       ??_C@_1BA@PFFKHIOG@?$AAa?$AAp?$AAi?$AA?9?$AAm?$AAs?$AA?9@ 0000000180201cd8     libvcruntime:winapi_downlevel.obj
 0002:00009cf0       ??_C@_08KNHFBNJ@FlsAlloc@  0000000180201cf0     libvcruntime:winapi_downlevel.obj
 0002:00009d08       ??_C@_07PEJMOBNF@FlsFree@  0000000180201d08     libvcruntime:winapi_downlevel.obj
 0002:00009d18       ??_C@_0M@GDNOONDI@FlsGetValue@ 0000000180201d18     libvcruntime:winapi_downlevel.obj
 0002:00009d30       ??_C@_0M@JCPCPOEF@FlsSetValue@ 0000000180201d30     libvcruntime:winapi_downlevel.obj
 0002:00009d48       ??_C@_0BM@HCFOFFN@InitializeCriticalSectionEx@ 0000000180201d48     libvcruntime:winapi_downlevel.obj
 0002:00009d70       ??_7exception@std@@6B@     0000000180201d70     libvcruntime:frame.obj
 0002:00009d80       ??_C@_0BC@EOODALEL@Unknown?5exception@ 0000000180201d80     libvcruntime:frame.obj
 0002:00009da0       ??_7bad_exception@std@@6B@ 0000000180201da0     libvcruntime:frame.obj
 0002:00009db0       ??_C@_0O@DPKOEFFH@bad?5exception@ 0000000180201db0     libvcruntime:frame.obj
 0002:0000a100       ?standard_lookup_table_spectre@__crt_stdio_output@@3V?$spectre_mitigated_lookup_table@Ustate_transition_pair@__crt_stdio_output@@$0IA@@1@B 0000000180202100     libucrt:output.obj
 0002:0000a200       ?format_validation_lookup_table_spectre@__crt_stdio_output@@3V?$spectre_mitigated_lookup_table@Ustate_transition_pair@__crt_stdio_output@@$0IA@@1@B 0000000180202200     libucrt:output.obj
 0002:0000a350       ??_C@_1O@CEDCILHN@?$AA?$CI?$AAn?$AAu?$AAl?$AAl?$AA?$CJ@ 0000000180202350     libucrt:output.obj
 0002:0000a360       ??_C@_06OJHGLDPL@?$CInull?$CJ@ 0000000180202360     libucrt:output.obj
 0002:0000b3f8       __real@3f1a36e2eb1c432d    00000001802033f8     libucrt:atan2f.obj
 0002:0000b400       __real@3fb0000000000000    0000000180203400     libucrt:atan2f.obj
 0002:0000b408       __real@3fc2492482bd6be1    0000000180203408     libucrt:atan2f.obj
 0002:0000b410       __real@3fc99999999643a3    0000000180203410     libucrt:atan2f.obj
 0002:0000b418       __real@3fd5555555550877    0000000180203418     libucrt:atan2f.obj
 0002:0000b420       __real@3fd5555555555538    0000000180203420     libucrt:atan2f.obj
 0002:0000b428       __real@3ff921fb54442d18    0000000180203428     libucrt:atan2f.obj
 0002:0000b430       __real@400921fb54442d18    0000000180203430     libucrt:atan2f.obj
 0002:0000b438       __real@4070000000000000    0000000180203438     libucrt:atan2f.obj
 0002:0000b440       __real@bf490fdb            0000000180203440     libucrt:atan2f.obj
 0002:0000b444       __real@bfc90fdb            0000000180203444     libucrt:atan2f.obj
 0002:0000b448       __real@c016cbe4            0000000180203448     libucrt:atan2f.obj
 0002:0000b44c       __real@c0490fdb            000000018020344c     libucrt:atan2f.obj
 0002:0000b450       ??_C@_05FFFCHCED@acosf@    0000000180203450     libucrt:acosf.obj
 0002:0000b458       __real@3b81ce6b            0000000180203458     libucrt:acosf.obj
 0002:0000b460       __real@3c91a62633145c07    0000000180203460     libucrt:acosf.obj
 0002:0000b468       __real@3d678bdd            0000000180203468     libucrt:acosf.obj
 0002:0000b46c       __real@3e3c94dc            000000018020346c     libucrt:acosf.obj
 0002:0000b470       __real@3f561f0d            0000000180203470     libucrt:acosf.obj
 0002:0000b474       __real@3f8d6fa5            0000000180203474     libucrt:acosf.obj
 0002:0000b478       __real@bc5b3fe1            0000000180203478     libucrt:acosf.obj
 0002:0000b480       __acrt_exception_action_table 0000000180203480     libucrt:exception_filter.obj
 0002:0000b540       __acrt_signal_action_table_count 0000000180203540     libucrt:exception_filter.obj
 0002:0000b548       __acrt_signal_action_first_fpe_index 0000000180203548     libucrt:exception_filter.obj
 0002:0000b550       __acrt_signal_action_fpe_count 0000000180203550     libucrt:exception_filter.obj
 0002:0000b5a8       ??_C@_1BI@BGOHAHKC@?$AAm?$AAs?$AAc?$AAo?$AAr?$AAe?$AAe?$AA?4?$AAd?$AAl?$AAl@ 00000001802035a8     libucrt:exit.obj
 0002:0000b5c0       ??_C@_0P@MIGLKIOC@CorExitProcess@ 00000001802035c0     libucrt:exit.obj
 0002:0000b890       ??_C@_04LAGPAAHP@sinf@     0000000180203890     libucrt:sincos_special.obj
 0002:0000b898       ??_C@_04OBBKPIAC@cosf@     0000000180203898     libucrt:sincos_special.obj
 0002:0000b8a0       ??_C@_04MHPLPEIA@tanf@     00000001802038a0     libucrt:sincos_special.obj
 0002:0000b8b0       __Lcosfarray               00000001802038b0     libucrt:lsincosf_array.obj
 0002:0000b8e0       __Lsinfarray               00000001802038e0     libucrt:lsincosf_array.obj
 0002:0000b900       __L_2_by_pi_bits           0000000180203900     libucrt:l2_by_pi_bits.obj
 0002:0000bc80       ??_C@_1EA@JGEFHKEI@?$AAa?$AAp?$AAi?$AA?9?$AAm?$AAs?$AA?9?$AAw?$AAi?$AAn?$AA?9?$AAc?$AAo?$AAr?$AAe@ 0000000180203c80     libucrt:winapi_thunks.obj
 0002:0000bcc0       ??_C@_1DM@LFJCLCKP@?$AAa?$AAp?$AAi?$AA?9?$AAm?$AAs?$AA?9?$AAw?$AAi?$AAn?$AA?9?$AAc?$AAo?$AAr?$AAe@ 0000000180203cc0     libucrt:winapi_thunks.obj
 0002:0000bd00       ??_C@_1DI@KMEPCBPN@?$AAa?$AAp?$AAi?$AA?9?$AAm?$AAs?$AA?9?$AAw?$AAi?$AAn?$AA?9?$AAc?$AAo?$AAr?$AAe@ 0000000180203d00     libucrt:winapi_thunks.obj
 0002:0000bd38       ??_C@_1DI@IJCEHOCB@?$AAa?$AAp?$AAi?$AA?9?$AAm?$AAs?$AA?9?$AAw?$AAi?$AAn?$AA?9?$AAc?$AAo?$AAr?$AAe@ 0000000180203d38     libucrt:winapi_thunks.obj
 0002:0000bd70       ??_C@_1DI@FFFOPEOO@?$AAa?$AAp?$AAi?$AA?9?$AAm?$AAs?$AA?9?$AAw?$AAi?$AAn?$AA?9?$AAc?$AAo?$AAr?$AAe@ 0000000180203d70     libucrt:winapi_thunks.obj
 0002:0000bdb0       ??_C@_1EI@MPIAOHOC@?$AAa?$AAp?$AAi?$AA?9?$AAm?$AAs?$AA?9?$AAw?$AAi?$AAn?$AA?9?$AAc?$AAo?$AAr?$AAe@ 0000000180203db0     libucrt:winapi_thunks.obj
