 PhysXCooking_64

 Timestamp is 682c4a5b (Tue May 20 18:24:43 2025)

 Preferred load address is 0000000180000000

 Start         Length     Name                   Class
 0001:00000000 00000120H .text$di                CODE
 0001:00000120 000b3670H .text$mn                CODE
 0001:000b3790 00000060H .text$mn$00             CODE
 0001:000b37f0 00000d10H .text$mn$21             CODE
 0001:000b4500 00000f3dH .text$x                 CODE
 0002:00000000 00000318H .idata$5                DATA
 0002:00000318 00000038H .00cfg                  DATA
 0002:00000350 00000008H .CRT$XCA                DATA
 0002:00000358 00000030H .CRT$XCU                DATA
 0002:00000388 00000008H .CRT$XCZ                DATA
 0002:00000390 00000008H .CRT$XIA                DATA
 0002:00000398 00000018H .CRT$XIC                DATA
 0002:000003b0 00000008H .CRT$XIZ                DATA
 0002:000003b8 00000008H .CRT$XPA                DATA
 0002:000003c0 00000010H .CRT$XPX                DATA
 0002:000003d0 00000008H .CRT$XPXA               DATA
 0002:000003d8 00000008H .CRT$XPZ                DATA
 0002:000003e0 00000008H .CRT$XTA                DATA
 0002:000003e8 00000008H .CRT$XTZ                DATA
 0002:000003f0 00000000H .gehcont$y              DATA
 0002:000003f0 00000000H .gfids$y                DATA
 0002:000003f0 00021610H .rdata                  DATA
 0002:00021a00 00000180H .rdata$00               DATA
 0002:00021b80 00000080H .rdata$CastGuardVftablesA DATA
 0002:00021c00 00000080H .rdata$CastGuardVftablesC DATA
 0002:00021c80 00000464H .rdata$r                DATA
 0002:000220e4 000001a0H .rdata$voltmd           DATA
 0002:00022284 000004ccH .rdata$zzzdbg           DATA
 0002:00022750 00000008H .rtc$IAA                DATA
 0002:00022758 00000010H .rtc$IMZ                DATA
 0002:00022768 00000008H .rtc$IZZ                DATA
 0002:00022770 00000008H .rtc$TAA                DATA
 0002:00022778 00000010H .rtc$TMZ                DATA
 0002:00022788 00000008H .rtc$TZZ                DATA
 0002:00022790 00007350H .xdata                  DATA
 0002:00029ae0 00000084H .xdata$x                DATA
 0002:00029b64 00000040H .didat$2                DATA
 0002:00029ba4 00000024H .didat$3                DATA
 0002:00029bc8 000000d8H .didat$4                DATA
 0002:00029ca0 000002a0H .didat$6                DATA
 0002:00029f40 000001f0H .didat$7                DATA
 0002:0002a130 00000af8H .edata                  DATA
 0002:0002ac28 00000014H .idata$2                DATA
 0002:0002ac3c 00000014H .idata$3                DATA
 0002:0002ac50 00000318H .idata$4                DATA
 0002:0002af68 0000072eH .idata$6                DATA
 0003:00000000 00000b40H .data                   DATA
 0003:00000b40 00000108H .data$r                 DATA
 0003:00000c48 000000f0H .data$rs                DATA
 0003:00000d38 000000d8H .didat$5                DATA
 0003:00000e10 00001a68H .bss                    DATA
 0004:00000000 000088c8H .pdata                  DATA
 0005:00000000 00000100H .fptable                DATA
 0006:00000000 000000a0H .rsrc$01                DATA
 0006:000000a0 000004b0H .rsrc$02                DATA

  Address         Publics by Value              Rva+Base               Lib:Object

 0000:00000000       __AbsoluteZero             0000000000000000     <absolute>
 0000:00000000       ___safe_se_handler_count   0000000000000000     <absolute>
 0000:00000000       ___safe_se_handler_table   0000000000000000     <absolute>
 0000:00000000       __arm64x_extra_rfe_table   0000000000000000     <absolute>
 0000:00000000       __arm64x_extra_rfe_table_size 0000000000000000     <absolute>
 0000:00000000       __arm64x_native_entrypoint 0000000000000000     <absolute>
 0000:00000000       __arm64x_redirection_metadata 0000000000000000     <absolute>
 0000:00000000       __arm64x_redirection_metadata_count 0000000000000000     <absolute>
 0000:00000000       __dynamic_value_reloc_table 0000000000000000     <absolute>
 0000:00000000       __enclave_config           0000000000000000     <absolute>
 0000:00000000       __guard_check_icall_a64n_fptr 0000000000000000     <absolute>
 0000:00000000       __guard_eh_cont_count      0000000000000000     <absolute>
 0000:00000000       __guard_eh_cont_table      0000000000000000     <absolute>
 0000:00000000       __guard_fids_count         0000000000000000     <absolute>
 0000:00000000       __guard_fids_table         0000000000000000     <absolute>
 0000:00000000       __guard_iat_count          0000000000000000     <absolute>
 0000:00000000       __guard_iat_table          0000000000000000     <absolute>
 0000:00000000       __guard_longjmp_count      0000000000000000     <absolute>
 0000:00000000       __guard_longjmp_table      0000000000000000     <absolute>
 0000:00000000       __hybrid_auxiliary_delayload_iat 0000000000000000     <absolute>
 0000:00000000       __hybrid_auxiliary_delayload_iat_copy 0000000000000000     <absolute>
 0000:00000000       __hybrid_auxiliary_iat     0000000000000000     <absolute>
 0000:00000000       __hybrid_auxiliary_iat_copy 0000000000000000     <absolute>
 0000:00000000       __hybrid_code_map          0000000000000000     <absolute>
 0000:00000000       __hybrid_code_map_count    0000000000000000     <absolute>
 0000:00000000       __hybrid_image_info_bitfield 0000000000000000     <absolute>
 0000:00000000       __x64_code_ranges_to_entry_points 0000000000000000     <absolute>
 0000:00000000       __x64_code_ranges_to_entry_points_count 0000000000000000     <absolute>
 0000:00000100       __guard_flags              0000000000000100     <absolute>
 0000:00000000       __ImageBase                0000000180000000     <linker-defined>
 0001:00000120       PxGetStandaloneInsertionCallback 0000000180001120 f   Cooking.obj
 0001:00000140       PxCookBVH                  0000000180001140 f   Cooking.obj
 0001:00000170       PxCreateBVH                0000000180001170 f   Cooking.obj
 0001:000001a0       PxCookHeightField          00000001800011a0 f   Cooking.obj
 0001:000001d0       PxCreateHeightField        00000001800011d0 f   Cooking.obj
 0001:00000200       PxCookConvexMesh           0000000180001200 f   Cooking.obj
 0001:00000240       PxCreateConvexMesh         0000000180001240 f   Cooking.obj
 0001:00000280       PxValidateConvexMesh       0000000180001280 f   Cooking.obj
 0001:000002b0       PxComputeHullPolygons      00000001800012b0 f   Cooking.obj
 0001:00000330       PxValidateTriangleMesh     0000000180001330 f   Cooking.obj
 0001:00000360       PxCookTriangleMesh         0000000180001360 f   Cooking.obj
 0001:000003a0       PxCreateTriangleMesh       00000001800013a0 f   Cooking.obj
 0001:000003e0       PxCookTetrahedronMesh      00000001800013e0 f   Cooking.obj
 0001:00000420       PxCreateTetrahedronMesh    0000000180001420 f   Cooking.obj
 0001:00000460       PxCookDeformableVolumeMesh 0000000180001460 f   Cooking.obj
 0001:000004b0       PxCreateDeformableVolumeMesh 00000001800014b0 f   Cooking.obj
 0001:00000500       PxComputeModelsMapping     0000000180001500 f   Cooking.obj
 0001:00000550       PxComputeCollisionData     0000000180001550 f   Cooking.obj
 0001:00000580       PxComputeSimulationData    0000000180001580 f   Cooking.obj
 0001:000005b0       PxAssembleDeformableVolumeMesh 00000001800015b0 f   Cooking.obj
 0001:00000600       PxCreateTriangleMeshInternal 0000000180001600 f   Cooking.obj
 0001:000006a0       PxCreateBVHInternal        00000001800016a0 f   Cooking.obj
 0001:00000740       ??$?4V?$PxReflectionAllocator@USlab@NodeAllocator@Gu@physx@@@physx@@@?$PxArray@USlab@NodeAllocator@Gu@physx@@V?$PxReflectionAllocator@USlab@NodeAllocator@Gu@physx@@@4@@physx@@QEAAAEAV01@AEBV01@@Z 0000000180001740 f i Cooking.obj
 0001:000007d0       ??$PX_UNUSED@PEAI@@YAXAEBQEAI@Z 00000001800017d0 f i Cooking.obj
 0001:000007e0       ??$copy@V?$PxReflectionAllocator@USlab@NodeAllocator@Gu@physx@@@physx@@@?$PxArray@USlab@NodeAllocator@Gu@physx@@V?$PxReflectionAllocator@USlab@NodeAllocator@Gu@physx@@@4@@physx@@IEAAXAEBV01@@Z 00000001800017e0 f i Cooking.obj
 0001:000008a0       ??0?$PxArray@USlab@NodeAllocator@Gu@physx@@V?$PxReflectionAllocator@USlab@NodeAllocator@Gu@physx@@@4@@physx@@QEAA@AEBV01@AEBV?$PxReflectionAllocator@USlab@NodeAllocator@Gu@physx@@@1@@Z 00000001800018a0 f i Cooking.obj
 0001:000008e0       ??0?$PxReflectionAllocator@USlab@NodeAllocator@Gu@physx@@@physx@@QEAA@AEBV01@@Z 00000001800018e0 f i Cooking.obj
 0001:000008f0       ??0?$PxReflectionAllocator@USlab@NodeAllocator@Gu@physx@@@physx@@QEAA@PEBD@Z 00000001800018f0 f i Cooking.obj
 0001:00000900       ??0?$PxReflectionAllocator@VBV4TriangleMesh@Gu@physx@@@physx@@QEAA@PEBD@Z 0000000180001900 f i Cooking.obj
 0001:00000910       ??0?$PxReflectionAllocator@VBVH@Gu@physx@@@physx@@QEAA@PEBD@Z 0000000180001910 f i Cooking.obj
 0001:00000920       ??0?$PxVec3T@M@physx@@QEAA@XZ 0000000180001920 f i Cooking.obj
 0001:00000930       ??0AABBTreeBounds@Gu@physx@@QEAA@XZ 0000000180001930 f i Cooking.obj
 0001:00000960       ??0AABBTreeBuildNode@Gu@physx@@QEAA@AEBV012@@Z 0000000180001960 f i Cooking.obj
 0001:000009c0       ??0AABBTreeBuildNode@Gu@physx@@QEAA@XZ 00000001800019c0 f i Cooking.obj
 0001:000009f0       ??0AABBTreeBuildParams@Gu@physx@@QEAA@IIPEBVAABBTreeBounds@12@W4BVHBuildStrategy@12@@Z 00000001800019f0 f i Cooking.obj
 0001:00000a50       ??0NodeAllocator@Gu@physx@@QEAA@AEBV012@@Z 0000000180001a50 f i Cooking.obj
 0001:00000ad0       ??0PxAllocator@physx@@QEAA@PEBD@Z 0000000180001ad0 f i Cooking.obj
 0001:00000ae0       ??0PxBounds3@physx@@QEAA@AEBV01@@Z 0000000180001ae0 f i Cooking.obj
 0001:00000b50       ??0PxBounds3@physx@@QEAA@XZ 0000000180001b50 f i Cooking.obj
 0001:00000b90       ??0PxFoundation@physx@@QEAA@AEBV01@@Z 0000000180001b90 f i Cooking.obj
 0001:00000bb0       ??0PxFoundation@physx@@QEAA@XZ 0000000180001bb0 f i Cooking.obj
 0001:00000bd0       ??1AABBTreeBounds@Gu@physx@@QEAA@XZ 0000000180001bd0 f i Cooking.obj
 0001:00000bf0       ??1AABBTreeBuildNode@Gu@physx@@QEAA@XZ 0000000180001bf0 f i Cooking.obj
 0001:00000c00       ??1AABBTreeBuildParams@Gu@physx@@QEAA@XZ 0000000180001c00 f i Cooking.obj
 0001:00000c20       ??1PxFoundation@physx@@MEAA@XZ 0000000180001c20 f i Cooking.obj
 0001:00000c40       ??2@YAPEAX_KPEAX@Z         0000000180001c40 f i Cooking.obj
 0001:00000c50       ??2PxUserAllocated@physx@@SAPEAX_KPEAX@Z 0000000180001c50 f i Cooking.obj
 0001:00000c60       ??4?$PxArray@USlab@NodeAllocator@Gu@physx@@V?$PxReflectionAllocator@USlab@NodeAllocator@Gu@physx@@@4@@physx@@QEAAAEAV01@AEBV01@@Z 0000000180001c60 f i Cooking.obj
 0001:00000c90       ??4?$PxVec3T@M@physx@@QEAAAEAV01@AEBV01@@Z 0000000180001c90 f i Cooking.obj
 0001:00000ce0       ??4AABBTreeBounds@Gu@physx@@QEAAAEAV012@AEBV012@@Z 0000000180001ce0 f i Cooking.obj
 0001:00000d10       ??4AABBTreeBuildNode@Gu@physx@@QEAAAEAV012@AEBV012@@Z 0000000180001d10 f i Cooking.obj
 0001:00000d70       ??4AABBTreeBuildParams@Gu@physx@@QEAAAEAV012@AEBV012@@Z 0000000180001d70 f i Cooking.obj
 0001:00000da0       ??4NodeAllocator@Gu@physx@@QEAAAEAV012@AEBV012@@Z 0000000180001da0 f i Cooking.obj
 0001:00000e10       ??4PxBounds3@physx@@QEAAXAEBV01@@Z 0000000180001e10 f i Cooking.obj
 0001:00000e50       ??4PxFoundation@physx@@QEAAAEAV01@AEBV01@@Z 0000000180001e50 f i Cooking.obj
 0001:00000e60       ??_EPxFoundation@physx@@MEAAPEAXI@Z 0000000180001e60 f i Cooking.obj
 0001:00000f00       ??_FAABBTreeBuildParams@Gu@physx@@QEAAXXZ 0000000180001f00 f i Cooking.obj
 0001:00000f30       ??_GPxFoundation@physx@@MEAAPEAXI@Z 0000000180001f30 f i Cooking.obj
 0001:00000f70       ??_H@YAXPEAX_K1P6APEAX0@Z@Z 0000000180001f70 f i Cooking.obj
 0001:00000ff0       ??_I@YAXPEAX_K1P6AX0@Z@Z   0000000180001ff0 f i Cooking.obj
 0001:00001090       ?FLoad@aos@physx@@YA?AT__m128@@M@Z 0000000180002090 f i Cooking.obj
 0001:000010c0       ?PxMarkSerializedMemory@physx@@YAXPEAXI@Z 00000001800020c0 f i Cooking.obj
 0001:000010f0       ?PxMemSet@physx@@YAPEAXPEAXHI@Z 00000001800020f0 f i Cooking.obj
 0001:00001140       ?V3Load@aos@physx@@YA?AT__m128@@M@Z 0000000180002140 f i Cooking.obj
 0001:00001180       ?V4Load@aos@physx@@YA?AT__m128@@M@Z 0000000180002180 f i Cooking.obj
 0001:000011b0       ?__empty_global_delete@@YAXPEAX@Z 00000001800021b0 f i Cooking.obj
 0001:000011c0       ?__empty_global_delete@@YAXPEAX_K@Z 00000001800021c0 f i Cooking.obj
 0001:000011d0       ?__global_array_delete@@YAXPEAX@Z 00000001800021d0 f i Cooking.obj
 0001:000011f0       ?__global_array_delete@@YAXPEAX_K@Z 00000001800021f0 f i Cooking.obj
 0001:00001220       ?__global_delete@@YAXPEAX@Z 0000000180002220 f i Cooking.obj
 0001:00001240       ?__global_delete@@YAXPEAX_K@Z 0000000180002240 f i Cooking.obj
 0001:00001270       ?allocate@?$PxArray@USlab@NodeAllocator@Gu@physx@@V?$PxReflectionAllocator@USlab@NodeAllocator@Gu@physx@@@4@@physx@@IEAAPEAUSlab@NodeAllocator@Gu@2@IPEAI@Z 0000000180002270 f i Cooking.obj
 0001:000012e0       ?allocate@?$PxReflectionAllocator@USlab@NodeAllocator@Gu@physx@@@physx@@SAPEAX_KPEBDHPEAI@Z 00000001800022e0 f i Cooking.obj
 0001:00001360       ?allocate@?$PxReflectionAllocator@VBV4TriangleMesh@Gu@physx@@@physx@@SAPEAX_KPEBDHPEAI@Z 0000000180002360 f i Cooking.obj
 0001:000013e0       ?allocate@?$PxReflectionAllocator@VBVH@Gu@physx@@@physx@@SAPEAX_KPEBDHPEAI@Z 00000001800023e0 f i Cooking.obj
 0001:00001460       ?begin@?$PxArray@USlab@NodeAllocator@Gu@physx@@V?$PxReflectionAllocator@USlab@NodeAllocator@Gu@physx@@@4@@physx@@QEBAPEBUSlab@NodeAllocator@Gu@2@XZ 0000000180002460 f i Cooking.obj
 0001:00001470       ?capacity@?$PxArray@USlab@NodeAllocator@Gu@physx@@V?$PxReflectionAllocator@USlab@NodeAllocator@Gu@physx@@@4@@physx@@QEBAIXZ 0000000180002470 f i Cooking.obj
 0001:00001490       ?clear@?$PxArray@USlab@NodeAllocator@Gu@physx@@V?$PxReflectionAllocator@USlab@NodeAllocator@Gu@physx@@@4@@physx@@QEAAXXZ 0000000180002490 f i Cooking.obj
 0001:000014d0       ?copy@?$PxArray@USlab@NodeAllocator@Gu@physx@@V?$PxReflectionAllocator@USlab@NodeAllocator@Gu@physx@@@4@@physx@@KAXPEAUSlab@NodeAllocator@Gu@2@0PEBU3452@@Z 00000001800024d0 f i Cooking.obj
 0001:00001550       ?deallocate@?$PxArray@USlab@NodeAllocator@Gu@physx@@V?$PxReflectionAllocator@USlab@NodeAllocator@Gu@physx@@@4@@physx@@IEAAXPEAXPEAI@Z 0000000180002550 f i Cooking.obj
 0001:00001580       ?deallocate@?$PxReflectionAllocator@USlab@NodeAllocator@Gu@physx@@@physx@@SAXPEAXPEAI@Z 0000000180002580 f i Cooking.obj
 0001:000015d0       ?deallocate@PxAllocator@physx@@SAXPEAXPEAI@Z 00000001800025d0 f i Cooking.obj
 0001:00001620       ?destroy@?$PxArray@USlab@NodeAllocator@Gu@physx@@V?$PxReflectionAllocator@USlab@NodeAllocator@Gu@physx@@@4@@physx@@KAXPEAUSlab@NodeAllocator@Gu@2@0@Z 0000000180002620 f i Cooking.obj
 0001:00001650       ?empty@?$PxArray@USlab@NodeAllocator@Gu@physx@@V?$PxReflectionAllocator@USlab@NodeAllocator@Gu@physx@@@4@@physx@@QEBA_NXZ 0000000180002650 f i Cooking.obj
 0001:00001680       ?getAABB@AABBTreeBuildNode@Gu@physx@@QEBAAEBVPxBounds3@3@XZ 0000000180002680 f i Cooking.obj
 0001:00001690       ?getBounds@AABBTreeBounds@Gu@physx@@QEAAPEAVPxBounds3@3@XZ 0000000180002690 f i Cooking.obj
 0001:000016a0       ?getBounds@AABBTreeBounds@Gu@physx@@QEBAPEBVPxBounds3@3@XZ 00000001800026a0 f i Cooking.obj
 0001:000016b0       ?getName@?$PxReflectionAllocator@USlab@NodeAllocator@Gu@physx@@@physx@@CAPEBD_N@Z 00000001800026b0 f i Cooking.obj
 0001:000016e0       ?getName@?$PxReflectionAllocator@VBV4TriangleMesh@Gu@physx@@@physx@@CAPEBD_N@Z 00000001800026e0 f i Cooking.obj
 0001:00001710       ?getName@?$PxReflectionAllocator@VBVH@Gu@physx@@@physx@@CAPEBD_N@Z 0000000180002710 f i Cooking.obj
 0001:00001740       ?getNbPrimitives@AABBTreeBuildNode@Gu@physx@@QEBAIXZ 0000000180002740 f i Cooking.obj
 0001:00001750       ?getNbRuntimePrimitives@AABBTreeBuildNode@Gu@physx@@QEBAIXZ 0000000180002750 f i Cooking.obj
 0001:00001760       ?getNeg@AABBTreeBuildNode@Gu@physx@@QEBAPEBV123@XZ 0000000180002760 f i Cooking.obj
 0001:000017a0       ?getPos@AABBTreeBuildNode@Gu@physx@@QEBAPEBV123@XZ 00000001800027a0 f i Cooking.obj
 0001:000017b0       ?getPrimitives@AABBTreeBuildNode@Gu@physx@@QEAAPEAIPEAI@Z 00000001800027b0 f i Cooking.obj
 0001:000017d0       ?getPrimitives@AABBTreeBuildNode@Gu@physx@@QEBAPEBIPEBI@Z 00000001800027d0 f i Cooking.obj
 0001:000017f0       ?grow@?$PxArray@USlab@NodeAllocator@Gu@physx@@V?$PxReflectionAllocator@USlab@NodeAllocator@Gu@physx@@@4@@physx@@IEAAXI@Z 00000001800027f0 f i Cooking.obj
 0001:00001850       ?isInUserMemory@?$PxArray@USlab@NodeAllocator@Gu@physx@@V?$PxReflectionAllocator@USlab@NodeAllocator@Gu@physx@@@4@@physx@@QEBAIXZ 0000000180002850 f i Cooking.obj
 0001:00001870       ?isLeaf@AABBTreeBuildNode@Gu@physx@@QEBA_NXZ 0000000180002870 f i Cooking.obj
 0001:000018b0       ?memSet@intrinsics@physx@@YAPEAXPEAXHI@Z 00000001800028b0 f i Cooking.obj
 0001:000018e0       ?moveFrom@AABBTreeBounds@Gu@physx@@QEAAXAEAV123@@Z 00000001800028e0 f i Cooking.obj
 0001:00001910       ?name@type_info@@QEBAPEBDXZ 0000000180002910 f i Cooking.obj
 0001:00001940       ?ownsMemory@AABBTreeBounds@Gu@physx@@QEBA_NXZ 0000000180002940 f i Cooking.obj
 0001:00001970       ?recreate@?$PxArray@USlab@NodeAllocator@Gu@physx@@V?$PxReflectionAllocator@USlab@NodeAllocator@Gu@physx@@@4@@physx@@IEAAXI@Z 0000000180002970 f i Cooking.obj
 0001:00001a80       ?reserve@?$PxArray@USlab@NodeAllocator@Gu@physx@@V?$PxReflectionAllocator@USlab@NodeAllocator@Gu@physx@@@4@@physx@@QEAAXI@Z 0000000180002a80 f i Cooking.obj
 0001:00001ac0       ?reset@AABBTreeBuildParams@Gu@physx@@QEAAXXZ 0000000180002ac0 f i Cooking.obj
 0001:00001b30       ?setBounds@AABBTreeBounds@Gu@physx@@QEAAXPEAVPxBounds3@3@@Z 0000000180002b30 f i Cooking.obj
 0001:00001b60       ?setNbRunTimePrimitives@AABBTreeBuildNode@Gu@physx@@QEAAXI@Z 0000000180002b60 f i Cooking.obj
 0001:00001b80       ?size@?$PxArray@USlab@NodeAllocator@Gu@physx@@V?$PxReflectionAllocator@USlab@NodeAllocator@Gu@physx@@@4@@physx@@QEBAIXZ 0000000180002b80 f i Cooking.obj
 0001:00001b90       ?takeOwnership@AABBTreeBounds@Gu@physx@@QEAAXXZ 0000000180002b90 f i Cooking.obj
 0001:00001bb0       PxSetPhysXCookingDelayLoadHook 0000000180002bb0 f   WindowsCookingDelayLoadHook.obj
 0001:00001bd0       ?cookingDelayHook@@YAP6A_JXZIPEAUDelayLoadInfo@@@Z 0000000180002bd0 f   WindowsCookingDelayLoadHook.obj
 0001:00001c50       ?loadLibrary@Cm@physx@@YAPEAUHINSTANCE__@@PEBD@Z 0000000180002c50 f i WindowsCookingDelayLoadHook.obj
 0001:00001c70       ?physXCommonDliNotePreLoadLibrary@Cm@physx@@YAP6A_JXZPEBDPEBVPxDelayLoadHook@2@@Z 0000000180002c70 f i WindowsCookingDelayLoadHook.obj
 0001:00001cfb       getInsertionCallback       0000000180002cfb f   PhysXCommon_64:PhysXCommon_64.dll
 0001:00001d01       __tailMerge_physxcommon_64_dll 0000000180002d01     PhysXCommon_64:PhysXCommon_64.dll
 0001:00001d7a       __imp_load_getInsertionCallback 0000000180002d7a f   PhysXCommon_64:PhysXCommon_64.dll
 0001:00001d86       cookBVH                    0000000180002d86 f   PhysXCommon_64:PhysXCommon_64.dll
 0001:00001d8c       __imp_load_cookBVH         0000000180002d8c f   PhysXCommon_64:PhysXCommon_64.dll
 0001:00001d98       createBVH                  0000000180002d98 f   PhysXCommon_64:PhysXCommon_64.dll
 0001:00001d9e       __imp_load_createBVH       0000000180002d9e f   PhysXCommon_64:PhysXCommon_64.dll
 0001:00001daa       cookHeightField            0000000180002daa f   PhysXCommon_64:PhysXCommon_64.dll
 0001:00001db0       __imp_load_cookHeightField 0000000180002db0 f   PhysXCommon_64:PhysXCommon_64.dll
 0001:00001dbc       createHeightField          0000000180002dbc f   PhysXCommon_64:PhysXCommon_64.dll
 0001:00001dc2       __imp_load_createHeightField 0000000180002dc2 f   PhysXCommon_64:PhysXCommon_64.dll
 0001:00001dce       cookConvexMesh             0000000180002dce f   PhysXCommon_64:PhysXCommon_64.dll
 0001:00001dd4       __imp_load_cookConvexMesh  0000000180002dd4 f   PhysXCommon_64:PhysXCommon_64.dll
 0001:00001de0       createConvexMesh           0000000180002de0 f   PhysXCommon_64:PhysXCommon_64.dll
 0001:00001de6       __imp_load_createConvexMesh 0000000180002de6 f   PhysXCommon_64:PhysXCommon_64.dll
 0001:00001df2       validateConvexMesh         0000000180002df2 f   PhysXCommon_64:PhysXCommon_64.dll
 0001:00001df8       __imp_load_validateConvexMesh 0000000180002df8 f   PhysXCommon_64:PhysXCommon_64.dll
 0001:00001e04       computeHullPolygons        0000000180002e04 f   PhysXCommon_64:PhysXCommon_64.dll
 0001:00001e0a       __imp_load_computeHullPolygons 0000000180002e0a f   PhysXCommon_64:PhysXCommon_64.dll
 0001:00001e16       validateTriangleMesh       0000000180002e16 f   PhysXCommon_64:PhysXCommon_64.dll
 0001:00001e1c       __imp_load_validateTriangleMesh 0000000180002e1c f   PhysXCommon_64:PhysXCommon_64.dll
 0001:00001e28       createTriangleMesh         0000000180002e28 f   PhysXCommon_64:PhysXCommon_64.dll
 0001:00001e2e       __imp_load_createTriangleMesh 0000000180002e2e f   PhysXCommon_64:PhysXCommon_64.dll
 0001:00001e3a       cookTriangleMesh           0000000180002e3a f   PhysXCommon_64:PhysXCommon_64.dll
 0001:00001e40       __imp_load_cookTriangleMesh 0000000180002e40 f   PhysXCommon_64:PhysXCommon_64.dll
 0001:00001e4c       cookTetrahedronMesh        0000000180002e4c f   PhysXCommon_64:PhysXCommon_64.dll
 0001:00001e52       __imp_load_cookTetrahedronMesh 0000000180002e52 f   PhysXCommon_64:PhysXCommon_64.dll
 0001:00001e5e       createTetrahedronMesh      0000000180002e5e f   PhysXCommon_64:PhysXCommon_64.dll
 0001:00001e64       __imp_load_createTetrahedronMesh 0000000180002e64 f   PhysXCommon_64:PhysXCommon_64.dll
 0001:00001e70       cookDeformableVolumeMesh   0000000180002e70 f   PhysXCommon_64:PhysXCommon_64.dll
 0001:00001e76       __imp_load_cookDeformableVolumeMesh 0000000180002e76 f   PhysXCommon_64:PhysXCommon_64.dll
 0001:00001e82       createDeformableVolumeMesh 0000000180002e82 f   PhysXCommon_64:PhysXCommon_64.dll
 0001:00001e88       __imp_load_createDeformableVolumeMesh 0000000180002e88 f   PhysXCommon_64:PhysXCommon_64.dll
 0001:00001e94       computeModelsMapping       0000000180002e94 f   PhysXCommon_64:PhysXCommon_64.dll
 0001:00001e9a       __imp_load_computeModelsMapping 0000000180002e9a f   PhysXCommon_64:PhysXCommon_64.dll
 0001:00001ea6       computeCollisionData       0000000180002ea6 f   PhysXCommon_64:PhysXCommon_64.dll
 0001:00001eac       __imp_load_computeCollisionData 0000000180002eac f   PhysXCommon_64:PhysXCommon_64.dll
 0001:00001eb8       computeSimulationData      0000000180002eb8 f   PhysXCommon_64:PhysXCommon_64.dll
 0001:00001ebe       __imp_load_computeSimulationData 0000000180002ebe f   PhysXCommon_64:PhysXCommon_64.dll
 0001:00001eca       assembleDeformableVolumeMesh 0000000180002eca f   PhysXCommon_64:PhysXCommon_64.dll
 0001:00001ed0       __imp_load_assembleDeformableVolumeMesh 0000000180002ed0 f   PhysXCommon_64:PhysXCommon_64.dll
 0001:00001edc       ?release@AABBTreeBounds@Gu@physx@@QEAAXXZ 0000000180002edc f   PhysXCommon_64:PhysXCommon_64.dll
 0001:00001ee2       __imp_load_?release@AABBTreeBounds@Gu@physx@@QEAAXXZ 0000000180002ee2 f   PhysXCommon_64:PhysXCommon_64.dll
 0001:00001eee       ??0BVH@Gu@physx@@QEAA@AEBUPxBVHInternalData@2@@Z 0000000180002eee f   PhysXCommon_64:PhysXCommon_64.dll
 0001:00001ef4       __imp_load_??0BVH@Gu@physx@@QEAA@AEBUPxBVHInternalData@2@@Z 0000000180002ef4 f   PhysXCommon_64:PhysXCommon_64.dll
 0001:00001f00       ??0BV4TriangleMesh@Gu@physx@@QEAA@AEBUPxTriangleMeshInternalData@2@@Z 0000000180002f00 f   PhysXCommon_64:PhysXCommon_64.dll
 0001:00001f06       __imp_load_??0BV4TriangleMesh@Gu@physx@@QEAA@AEBUPxTriangleMeshInternalData@2@@Z 0000000180002f06 f   PhysXCommon_64:PhysXCommon_64.dll
 0001:00001f12       ?PxAssert@physx@@YAXPEBD0HAEA_N@Z 0000000180002f12 f   PhysXFoundation_64:PhysXFoundation_64.dll
 0001:00001f18       __tailMerge_physxfoundation_64_dll 0000000180002f18     PhysXFoundation_64:PhysXFoundation_64.dll
 0001:00001f91       __imp_load_?PxAssert@physx@@YAXPEBD0HAEA_N@Z 0000000180002f91 f   PhysXFoundation_64:PhysXFoundation_64.dll
 0001:00001f9d       PxGetBroadcastAllocator    0000000180002f9d f   PhysXFoundation_64:PhysXFoundation_64.dll
 0001:00001fa3       __imp_load_PxGetBroadcastAllocator 0000000180002fa3 f   PhysXFoundation_64:PhysXFoundation_64.dll
 0001:00001faf       LoadLibraryA               0000000180002faf f   kernel32:KERNEL32.dll
 0001:000021bc       ??$PFromRva@PEAP6A_JXZ@@YAPEAP6A_JXZK@Z 00000001800031bc f i Delayimp:delayhlp.obj
 0001:000021cc       ??$PFromRva@PEAPEAUHINSTANCE__@@@@YAPEAPEAUHINSTANCE__@@K@Z 00000001800031cc f i Delayimp:delayhlp.obj
 0001:000021dc       ??$PFromRva@PEAU_IMAGE_IMPORT_BY_NAME@@@@YAPEAU_IMAGE_IMPORT_BY_NAME@@K@Z 00000001800031dc f i Delayimp:delayhlp.obj
 0001:000021ec       ??$PFromRva@PEAU_IMAGE_THUNK_DATA64@@@@YAPEAU_IMAGE_THUNK_DATA64@@K@Z 00000001800031ec f i Delayimp:delayhlp.obj
 0001:000021fc       ??$PFromRva@PEBD@@YAPEBDK@Z 00000001800031fc f i Delayimp:delayhlp.obj
 0001:0000220c       ??$PFromRva@PEBUImgDelayDescr@@@@YAPEBUImgDelayDescr@@K@Z 000000018000320c f i Delayimp:delayhlp.obj
 0001:0000221c       ??$PFromRva@PEBU_IMAGE_THUNK_DATA64@@@@YAPEBU_IMAGE_THUNK_DATA64@@K@Z 000000018000321c f i Delayimp:delayhlp.obj
 0001:00002290       ?CountOfImports@@YAIPEBU_IMAGE_THUNK_DATA64@@@Z 0000000180003290 f i Delayimp:delayhlp.obj
 0001:000022a4       ?DloadAcquireSectionWriteAccess@@YAXXZ 00000001800032a4 f i Delayimp:delayhlp.obj
 0001:00002360       ?DloadGetSRWLockFunctionPointers@@YAEXZ 0000000180003360 f i Delayimp:delayhlp.obj
 0001:00002400       ?DloadLock@@YAXXZ          0000000180003400 f i Delayimp:delayhlp.obj
 0001:00002448       ?DloadMakePermanentImageCommit@@YAXPEAX_K@Z 0000000180003448 f i Delayimp:delayhlp.obj
 0001:000024e0       ?DloadObtainSection@@YAPEAXPEAK0@Z 00000001800034e0 f i Delayimp:delayhlp.obj
 0001:0000257c       ?DloadProtectSection@@YAXPEAX_KKPEAK@Z 000000018000357c f i Delayimp:delayhlp.obj
 0001:00002674       ?DloadReleaseSectionWriteAccess@@YAXXZ 0000000180003674 f i Delayimp:delayhlp.obj
 0001:00002720       ?DloadUnlock@@YAXXZ        0000000180003720 f i Delayimp:delayhlp.obj
 0001:00002760       ?IndexFromPImgThunkData@@YAIPEBU_IMAGE_THUNK_DATA64@@0@Z 0000000180003760 f i Delayimp:delayhlp.obj
 0001:0000276c       ?IsBufferInBounds@@YAEPEAX_K01@Z 000000018000376c f i Delayimp:delayhlp.obj
 0001:00002890       HRESULT_FROM_WIN32         0000000180003890 f i Delayimp:delayhlp.obj
 0001:000028a0       ReadAcquire64              00000001800038a0 f i Delayimp:delayhlp.obj
 0001:000028a4       ReadPointerAcquire         00000001800038a4 f i Delayimp:delayhlp.obj
 0001:000028a8       WritePointerRelease        00000001800038a8 f i Delayimp:delayhlp.obj
 0001:000028ac       WriteRelease64             00000001800038ac f i Delayimp:delayhlp.obj
 0001:000028b0       __FUnloadDelayLoadedDLL2   00000001800038b0 f   Delayimp:delayhlp.obj
 0001:00002968       __HrLoadAllImportsForDll   0000000180003968 f   Delayimp:delayhlp.obj
 0001:000029dc       __delayLoadHelper2         00000001800039dc f   Delayimp:delayhlp.obj
 0001:00002ce0       ??3@YAXPEAX@Z              0000000180003ce0 f   LIBCMTD:delete_scalar.obj
 0001:00002d00       ??3@YAXPEAX_K@Z            0000000180003d00 f   LIBCMTD:delete_scalar_size.obj
 0001:00002d20       ??_V@YAXPEAX@Z             0000000180003d20 f   LIBCMTD:delete_array.obj
 0001:00002d40       ??_V@YAXPEAX_K@Z           0000000180003d40 f   LIBCMTD:delete_array_size.obj
 0001:00002d60       _CRT_RTC_INIT              0000000180003d60 f   LIBCMTD:init.obj
 0001:00002d70       _CRT_RTC_INITW             0000000180003d70 f   LIBCMTD:init.obj
 0001:00002d80       _RTC_InitBase              0000000180003d80 f   LIBCMTD:init.obj
 0001:00002dc0       _RTC_Shutdown              0000000180003dc0 f   LIBCMTD:init.obj
 0001:00002df0       ??1type_info@@UEAA@XZ      0000000180003df0 f   LIBCMTD:std_type_info_static.obj
 0001:00002e10       ??_Etype_info@@UEAAPEAXI@Z 0000000180003e10 f i LIBCMTD:std_type_info_static.obj
 0001:00002e10       ??_Gtype_info@@UEAAPEAXI@Z 0000000180003e10 f i LIBCMTD:std_type_info_static.obj
 0001:00002e50       ?__scrt_initialize_type_info@@YAXXZ 0000000180003e50 f   LIBCMTD:tncleanup.obj
 0001:00002e70       ?__scrt_uninitialize_type_info@@YAXXZ 0000000180003e70 f   LIBCMTD:tncleanup.obj
 0001:000032a0       _CRT_INIT                  00000001800042a0 f   LIBCMTD:dll_dllmain.obj
 0001:000032d0       _DllMainCRTStartup         00000001800042d0 f   LIBCMTD:dll_dllmain.obj
 0001:00003310       _guard_check_icall_nop     0000000180004310 f i LIBCMTD:guard_support.obj
 0001:00003320       ReadNoFence64              0000000180004320 f i LIBCMTD:guard_support.obj
 0001:00003340       ReadPointerNoFence         0000000180004340 f i LIBCMTD:guard_support.obj
 0001:00003360       __castguard_check_failure_debugbreak 0000000180004360 f i LIBCMTD:guard_support.obj
 0001:00003380       __castguard_check_failure_fastfail 0000000180004380 f i LIBCMTD:guard_support.obj
 0001:000033b0       __castguard_check_failure_nop 00000001800043b0 f i LIBCMTD:guard_support.obj
 0001:000033c0       __castguard_check_failure_os_handled 00000001800043c0 f i LIBCMTD:guard_support.obj
 0001:00003430       __castguard_check_failure_user_handled 0000000180004430 f i LIBCMTD:guard_support.obj
 0001:00003520       __castguard_set_user_handler 0000000180004520 f i LIBCMTD:guard_support.obj
 0001:00003550       __castguard_slow_path_check_debugbreak 0000000180004550 f i LIBCMTD:guard_support.obj
 0001:00003590       __castguard_slow_path_check_fastfail 0000000180004590 f i LIBCMTD:guard_support.obj
 0001:000035e0       __castguard_slow_path_check_nop 00000001800045e0 f i LIBCMTD:guard_support.obj
 0001:000035f0       __castguard_slow_path_check_os_handled 00000001800045f0 f i LIBCMTD:guard_support.obj
 0001:00003640       __castguard_slow_path_check_user_handled 0000000180004640 f i LIBCMTD:guard_support.obj
 0001:00003700       _guard_icall_checks_enforced 0000000180004700 f i LIBCMTD:guard_support.obj
 0001:00003740       _guard_rf_checks_enforced  0000000180004740 f i LIBCMTD:guard_support.obj
 0001:00003750       ?_RTC_GetErrorFunc@@YAP6AHHPEBDH00ZZPEBX@Z 0000000180004750 f   LIBCMTD:userapi.obj
 0001:00003760       ?_RTC_GetErrorFuncW@@YAP6AHHPEB_WH00ZZPEBX@Z 0000000180004760 f   LIBCMTD:userapi.obj
 0001:00003770       _RTC_GetErrDesc            0000000180004770 f   LIBCMTD:userapi.obj
 0001:00003790       _RTC_NumErrors             0000000180004790 f   LIBCMTD:userapi.obj
 0001:000037a0       _RTC_SetErrorFunc          00000001800047a0 f   LIBCMTD:userapi.obj
 0001:000037c0       _RTC_SetErrorFuncW         00000001800047c0 f   LIBCMTD:userapi.obj
 0001:000037e0       _RTC_SetErrorType          00000001800047e0 f   LIBCMTD:userapi.obj
 0001:000038c0       __security_init_cookie     00000001800048c0 f   LIBCMTD:gs_support.obj
 0001:00003940       DllMain                    0000000180004940 f   LIBCMTD:dll_dllmain_stub.obj
 0001:00003960       __local_stdio_printf_options 0000000180004960 f i LIBCMTD:default_local_stdio_options.obj
 0001:00003970       __local_stdio_scanf_options 0000000180004970 f i LIBCMTD:default_local_stdio_options.obj
 0001:00003980       __scrt_initialize_default_local_stdio_options 0000000180004980 f   LIBCMTD:default_local_stdio_options.obj
 0001:000039d0       ?configure_argv@__scrt_narrow_argv_policy@@SAHXZ 00000001800049d0 f i LIBCMTD:utility.obj
 0001:00003ac0       ?initialize_environment@__scrt_narrow_environment_policy@@SAHXZ 0000000180004ac0 f i LIBCMTD:utility.obj
 0001:00003b60       NtCurrentTeb               0000000180004b60 f i LIBCMTD:utility.obj
 0001:00003b70       __scrt_acquire_startup_lock 0000000180004b70 f   LIBCMTD:utility.obj
 0001:00003be0       __scrt_dllmain_after_initialize_c 0000000180004be0 f   LIBCMTD:utility.obj
 0001:00003c10       __scrt_dllmain_before_initialize_c 0000000180004c10 f   LIBCMTD:utility.obj
 0001:00003c30       __scrt_dllmain_crt_thread_attach 0000000180004c30 f   LIBCMTD:utility.obj
 0001:00003c60       __scrt_dllmain_crt_thread_detach 0000000180004c60 f   LIBCMTD:utility.obj
 0001:00003c80       __scrt_dllmain_exception_filter 0000000180004c80 f   LIBCMTD:utility.obj
 0001:00003cf0       __scrt_dllmain_uninitialize_c 0000000180004cf0 f   LIBCMTD:utility.obj
 0001:00003d20       __scrt_dllmain_uninitialize_critical 0000000180004d20 f   LIBCMTD:utility.obj
 0001:00003d40       __scrt_initialize_crt      0000000180004d40 f   LIBCMTD:utility.obj
 0001:00003d90       __scrt_initialize_onexit_tables 0000000180004d90 f   LIBCMTD:utility.obj
 0001:00003ea0       __scrt_is_nonwritable_in_current_image 0000000180004ea0 f   LIBCMTD:utility.obj
 0001:00003f30       __scrt_release_startup_lock 0000000180004f30 f   LIBCMTD:utility.obj
 0001:00003f60       __scrt_uninitialize_crt    0000000180004f60 f   LIBCMTD:utility.obj
 0001:00003fa0       _onexit                    0000000180004fa0 f   LIBCMTD:utility.obj
 0001:00004020       at_quick_exit              0000000180005020 f   LIBCMTD:utility.obj
 0001:00004070       atexit                     0000000180005070 f   LIBCMTD:utility.obj
 0001:000040b0       __scrt_get_dyn_tls_init_callback 00000001800050b0 f   LIBCMTD:dyn_tls_init.obj
 0001:000040c0       __crt_debugger_hook        00000001800050c0 f   LIBCMTD:utility_desktop.obj
 0001:000040d0       __scrt_fastfail            00000001800050d0 f   LIBCMTD:utility_desktop.obj
 0001:00004270       __scrt_get_show_window_mode 0000000180005270 f   LIBCMTD:utility_desktop.obj
 0001:000042d0       __scrt_initialize_mta      00000001800052d0 f   LIBCMTD:utility_desktop.obj
 0001:000042e0       __scrt_initialize_winrt    00000001800052e0 f   LIBCMTD:utility_desktop.obj
 0001:000042f0       __scrt_is_managed_app      00000001800052f0 f   LIBCMTD:utility_desktop.obj
 0001:000043a0       __scrt_set_unhandled_exception_filter 00000001800053a0 f   LIBCMTD:utility_desktop.obj
 0001:000043c0       __scrt_exe_initialize_mta  00000001800053c0 f   LIBCMTD:utility_desktop.obj
 0001:000043c0       __scrt_stub_for_initialize_mta 00000001800053c0 f   LIBCMTD:utility_desktop.obj
 0001:000043d0       __scrt_unhandled_exception_filter 00000001800053d0 f   LIBCMTD:utility_desktop.obj
 0001:00004470       _RTC_Initialize            0000000180005470 f   LIBCMTD:initsect.obj
 0001:000044c0       _RTC_Terminate             00000001800054c0 f   LIBCMTD:initsect.obj
 0001:000045a0       ?_RTC_AllocaFailure@@YAXPEAXPEAU_RTC_ALLOCA_NODE@@H@Z 00000001800055a0 f   LIBCMTD:error.obj
 0001:00004700       ?_RTC_Failure@@YAXPEAXH@Z  0000000180005700 f   LIBCMTD:error.obj
 0001:00004750       ?_RTC_StackFailure@@YAXPEAXPEBD@Z 0000000180005750 f   LIBCMTD:error.obj
 0001:00004ba0       _RTC_UninitUse             0000000180005ba0 f   LIBCMTD:error.obj
 0001:00004c70       _vsprintf_s_l              0000000180005c70 f i LIBCMTD:error.obj
 0001:00004ce0       sprintf_s                  0000000180005ce0 f i LIBCMTD:error.obj
 0001:00004d10       __isa_available_init       0000000180005d10 f   LIBCMTD:cpu_disp.obj
 0001:00005200       _get_startup_argv_mode     0000000180006200 f   LIBCMTD:argv_mode.obj
 0001:00005210       __scrt_is_ucrt_dll_in_use  0000000180006210 f   LIBCMTD:ucrt_detection.obj
 0001:00005760       ?_RTC_GetSrcLine@@YAHPEAEPEA_WKPEAH1K@Z 0000000180006760 f   LIBCMTD:pdblkup.obj
 0001:00005b30       __GSHandlerCheck           0000000180006b30 f   LIBCMTD:gshandler.obj
 0001:00005b70       __GSHandlerCheckCommon     0000000180006b70 f   LIBCMTD:gshandler.obj
 0001:00005c80       __security_check_cookie    0000000180006c80 f   LIBCMTD:amdsecgs.obj
 0001:00005ca0       __raise_securityfailure    0000000180006ca0 f   LIBCMTD:gs_report.obj
 0001:00005ce0       __report_gsfailure         0000000180006ce0 f   LIBCMTD:gs_report.obj
 0001:00005dc0       __report_rangecheckfailure 0000000180006dc0 f   LIBCMTD:gs_report.obj
 0001:00005de0       __report_securityfailure   0000000180006de0 f   LIBCMTD:gs_report.obj
 0001:00005e80       __report_securityfailureEx 0000000180006e80 f   LIBCMTD:gs_report.obj
 0001:000060f0       ??$__crt_interlocked_exchange_pointer@$$A6AXXZP6AXXZ@@YAP6AXXZPEDS6AXXZQ6AXXZ@Z 00000001800070f0 f i libvcruntimed:purevirt.obj
 0001:00006110       ??$__crt_interlocked_read_pointer@$$A6AXXZ@@YAP6AXXZPEDS6AXXZ@Z 0000000180007110 f i libvcruntimed:purevirt.obj
 0001:00006130       ?__crt_interlocked_read_64@@YA_JPED_J@Z 0000000180007130 f i libvcruntimed:purevirt.obj
 0001:00006150       _get_purecall_handler      0000000180007150 f   libvcruntimed:purevirt.obj
 0001:00006170       _purecall                  0000000180007170 f   libvcruntimed:purevirt.obj
 0001:000061b0       _set_purecall_handler      00000001800071b0 f   libvcruntimed:purevirt.obj
 0001:00006210       ??$?RD@__crt_internal_free_policy@@QEBAXQEBD@Z 0000000180007210 f i libvcruntimed:std_type_info.obj
 0001:00006240       ??$?RX@__crt_internal_free_policy@@QEBAXQEBX@Z 0000000180007240 f i libvcruntimed:std_type_info.obj
 0001:00006270       ??$__crt_interlocked_compare_exchange_pointer@$$CBDPEAD$$T@@YAPEBDPEDSEBDQEAD$$T@Z 0000000180007270 f i libvcruntimed:std_type_info.obj
 0001:000062b0       ??$__crt_interlocked_read_pointer@$$CBD@@YAPEBDPEDSEBD@Z 00000001800072b0 f i libvcruntimed:std_type_info.obj
 0001:000062d0       ??0?$__crt_unique_heap_ptr@DU__crt_internal_free_policy@@@@QEAA@QEAD@Z 00000001800072d0 f i libvcruntimed:std_type_info.obj
 0001:000062f0       ??0?$__crt_unique_heap_ptr@XU__crt_internal_free_policy@@@@QEAA@QEAX@Z 00000001800072f0 f i libvcruntimed:std_type_info.obj
 0001:00006310       ??1?$__crt_unique_heap_ptr@DU__crt_internal_free_policy@@@@QEAA@XZ 0000000180007310 f i libvcruntimed:std_type_info.obj
 0001:00006330       ??1?$__crt_unique_heap_ptr@XU__crt_internal_free_policy@@@@QEAA@XZ 0000000180007330 f i libvcruntimed:std_type_info.obj
 0001:00006350       ??B?$__crt_unique_heap_ptr@DU__crt_internal_free_policy@@@@QEBA_NXZ 0000000180007350 f i libvcruntimed:std_type_info.obj
 0001:00006370       ??B?$__crt_unique_heap_ptr@XU__crt_internal_free_policy@@@@QEBA_NXZ 0000000180007370 f i libvcruntimed:std_type_info.obj
 0001:000063f0       ?detach@?$__crt_unique_heap_ptr@XU__crt_internal_free_policy@@@@QEAAPEAXXZ 00000001800073f0 f i libvcruntimed:std_type_info.obj
 0001:00006420       ?get@?$__crt_unique_heap_ptr@DU__crt_internal_free_policy@@@@QEBAPEADXZ 0000000180007420 f i libvcruntimed:std_type_info.obj
 0001:00006430       ?get@?$__crt_unique_heap_ptr@XU__crt_internal_free_policy@@@@QEBAPEAXXZ 0000000180007430 f i libvcruntimed:std_type_info.obj
 0001:00006440       ?is_valid@?$__crt_unique_heap_ptr@DU__crt_internal_free_policy@@@@QEBA_NXZ 0000000180007440 f i libvcruntimed:std_type_info.obj
 0001:00006470       ?is_valid@?$__crt_unique_heap_ptr@XU__crt_internal_free_policy@@@@QEBA_NXZ 0000000180007470 f i libvcruntimed:std_type_info.obj
 0001:000064a0       ?release@?$__crt_unique_heap_ptr@DU__crt_internal_free_policy@@@@QEAAXXZ 00000001800074a0 f i libvcruntimed:std_type_info.obj
 0001:000064d0       ?release@?$__crt_unique_heap_ptr@XU__crt_internal_free_policy@@@@QEAAXXZ 00000001800074d0 f i libvcruntimed:std_type_info.obj
 0001:00006500       __std_type_info_compare    0000000180007500 f   libvcruntimed:std_type_info.obj
 0001:00006540       __std_type_info_destroy_list 0000000180007540 f   libvcruntimed:std_type_info.obj
 0001:000065a0       __std_type_info_hash       00000001800075a0 f   libvcruntimed:std_type_info.obj
 0001:00006650       __std_type_info_name       0000000180007650 f   libvcruntimed:std_type_info.obj
 0001:000068e0       strstr                     00000001800078e0 f   libvcruntimed:strstr.obj
 0001:00006f20       __C_specific_handler       0000000180007f20 f   libvcruntimed:riscchandler.obj
 0001:00007390       __vcrt_initialize          0000000180008390 f   libvcruntimed:initialization.obj
 0001:000073d0       __vcrt_thread_attach       00000001800083d0 f   libvcruntimed:initialization.obj
 0001:000073f0       __vcrt_thread_detach       00000001800083f0 f   libvcruntimed:initialization.obj
 0001:00007400       __vcrt_uninitialize        0000000180008400 f   libvcruntimed:initialization.obj
 0001:00007420       __vcrt_uninitialize_critical 0000000180008420 f   libvcruntimed:initialization.obj
 0001:00007440       __DestructExceptionObject  0000000180008440 f   libvcruntimed:ehhelpers.obj
 0001:00007540       ?_CallMemberFunction0@@YAXQEAX0@Z 0000000180008540 f i libvcruntimed:ehhelpers.obj
 0001:00007620       ?raw_name@type_info@@QEBAPEBDXZ 0000000180008620 f i libvcruntimed:ehhelpers.obj
 0001:00007630       _IsExceptionObjectToBeDestroyed 0000000180008630 f   libvcruntimed:ehhelpers.obj
 0001:00007680       _SetWinRTOutOfMemoryExceptionCallback 0000000180008680 f   libvcruntimed:ehhelpers.obj
 0001:000076a0       __AdjustPointer            00000001800086a0 f   libvcruntimed:ehhelpers.obj
 0001:00007720       __FrameUnwindFilter        0000000180008720 f   libvcruntimed:ehhelpers.obj
 0001:000077d0       __GetPlatformExceptionInfo 00000001800087d0 f   libvcruntimed:ehhelpers.obj
 0001:00007880       __current_exception        0000000180008880 f   libvcruntimed:ehhelpers.obj
 0001:000078a0       __current_exception_context 00000001800088a0 f   libvcruntimed:ehhelpers.obj
 0001:000078c0       __processing_throw         00000001800088c0 f   libvcruntimed:ehhelpers.obj
 0001:000078e0       __std_terminate            00000001800088e0 f   libvcruntimed:ehhelpers.obj
 0001:000078f0       _is_exception_typeof       00000001800088f0 f   libvcruntimed:ehhelpers.obj
 0001:00007a40       __C_specific_handler_noexcept 0000000180008a40 f   libvcruntimed:chandler_noexcept.obj
 0001:00007ad0       __vcrt_GetModuleFileNameW  0000000180008ad0 f   libvcruntimed:winapi_thunks.obj
 0001:00007b00       __vcrt_GetModuleHandleW    0000000180008b00 f   libvcruntimed:winapi_thunks.obj
 0001:00007b20       __vcrt_LoadLibraryExW      0000000180008b20 f   libvcruntimed:winapi_thunks.obj
 0001:00007b50       ??$?0$00@DName@@QEAA@PEAVUnDecorator@@PEBDU?$StringLifeSelector@$00@@@Z 0000000180008b50 f i libvcruntimed:undname.obj
 0001:00007bd0       ??$?0$00@pcharNode@@QEAA@PEBDHU?$StringLifeSelector@$00@@AEAV_HeapManager@@@Z 0000000180008bd0 f i libvcruntimed:undname.obj
 0001:00007c30       ??$?0$01@DName@@QEAA@PEAVUnDecorator@@PEBDU?$StringLifeSelector@$01@@@Z 0000000180008c30 f i libvcruntimed:undname.obj
 0001:00007cb0       ??$?0$01@pcharNode@@QEAA@PEBDHU?$StringLifeSelector@$01@@AEAV_HeapManager@@@Z 0000000180008cb0 f i libvcruntimed:undname.obj
 0001:00007d60       ??$?0$0A@@DName@@QEAA@PEAVUnDecorator@@PEBDU?$StringLifeSelector@$0A@@@@Z 0000000180008d60 f i libvcruntimed:undname.obj
 0001:00007de0       ??$?0$0A@@pcharNode@@QEAA@PEBDHU?$StringLifeSelector@$0A@@@AEAV_HeapManager@@@Z 0000000180008de0 f i libvcruntimed:undname.obj
 0001:00007e90       ??$?0_K$0A@@?$optional@_K@std@@QEAA@$$QEA_K@Z 0000000180008e90 f i libvcruntimed:undname.obj
 0001:00007ec0       ??$?0_K@?$_Optional_construct_base@_K@std@@QEAA@Uin_place_t@1@$$QEA_K@Z 0000000180008ec0 f i libvcruntimed:undname.obj
 0001:00007f00       ??$?0_K@?$_Optional_destruct_base@_K$00@std@@QEAA@Uin_place_t@1@$$QEA_K@Z 0000000180008f00 f i libvcruntimed:undname.obj
 0001:00007f30       ??$append@VDNameNode@@@DName@@AEAAXPEBVDNameNode@@@Z 0000000180008f30 f i libvcruntimed:undname.obj
 0001:00007ff0       ??$append@VDNameStatusNode@@@DName@@AEAAXPEBVDNameStatusNode@@@Z 0000000180008ff0 f i libvcruntimed:undname.obj
 0001:000080b0       ??$append@VcharNode@@@DName@@AEAAXPEBVcharNode@@@Z 00000001800090b0 f i libvcruntimed:undname.obj
 0001:00008170       ??$append@VpDNameNode@@@DName@@AEAAXPEBVpDNameNode@@@Z 0000000180009170 f i libvcruntimed:undname.obj
 0001:00008230       ??$append@VpcharNode@@@DName@@AEAAXPEBVpcharNode@@@Z 0000000180009230 f i libvcruntimed:undname.obj
 0001:000082f0       ??$doPchar@$00@DName@@AEAAXPEBDH@Z 00000001800092f0 f i libvcruntimed:undname.obj
 0001:000084a0       ??$doPchar@$01@DName@@AEAAXPEBDH@Z 00000001800094a0 f i libvcruntimed:undname.obj
 0001:00008650       ??$doPchar@$0A@@DName@@AEAAXPEBDH@Z 0000000180009650 f i libvcruntimed:undname.obj
 0001:000089a0       ??0?$_Optional_construct_base@_K@std@@QEAA@XZ 00000001800099a0 f i libvcruntimed:undname.obj
 0001:000089c0       ??0?$_Optional_destruct_base@_K$00@std@@QEAA@XZ 00000001800099c0 f i libvcruntimed:undname.obj
 0001:000089f0       ??0?$optional@_K@std@@QEAA@XZ 00000001800099f0 f i libvcruntimed:undname.obj
 0001:00008a10       ??0Block@_HeapManager@@QEAA@XZ 0000000180009a10 f i libvcruntimed:undname.obj
 0001:00008a30       ??0DName@@QEAA@AEBV0@@Z    0000000180009a30 f i libvcruntimed:undname.obj
 0001:00008a80       ??0DName@@QEAA@PEAVUnDecorator@@@Z 0000000180009a80 f i libvcruntimed:undname.obj
 0001:00008ac0       ??0DName@@QEAA@PEAVUnDecorator@@AEAPEBDD@Z 0000000180009ac0 f   libvcruntimed:undname.obj
 0001:00008cb0       ??0DName@@QEAA@PEAVUnDecorator@@AEBUStringLiteral@@@Z 0000000180009cb0 f   libvcruntimed:undname.obj
 0001:00008d20       ??0DName@@QEAA@PEAVUnDecorator@@D@Z 0000000180009d20 f   libvcruntimed:undname.obj
 0001:00008d80       ??0DName@@QEAA@PEAVUnDecorator@@PEAV0@@Z 0000000180009d80 f   libvcruntimed:undname.obj
 0001:00008e80       ??0DName@@QEAA@PEAVUnDecorator@@W4DNameStatus@@@Z 0000000180009e80 f   libvcruntimed:undname.obj
 0001:00008f50       ??0DName@@QEAA@PEAVUnDecorator@@_J@Z 0000000180009f50 f   libvcruntimed:undname.obj
 0001:00009070       ??0DName@@QEAA@PEAVUnDecorator@@_K@Z 000000018000a070 f   libvcruntimed:undname.obj
 0001:00009160       ??0DNameNode@@IEAA@XZ      000000018000a160 f i libvcruntimed:undname.obj
 0001:00009180       ??0Replicator@@QEAA@PEAVUnDecorator@@@Z 000000018000a180 f i libvcruntimed:undname.obj
 0001:00009200       ??0UnDecorator@@QEAA@PEBDP6APEADJ@ZKP6APEAX_K@ZP6AXPEAX@Z@Z 000000018000a200 f i libvcruntimed:undname.obj
 0001:000093a0       ??0_HeapManager@@QEAA@P6APEAX_K@ZP6AXPEAX@Z@Z 000000018000a3a0 f i libvcruntimed:undname.obj
 0001:00009400       ??0_Nontrivial_dummy_type@std@@QEAA@XZ 000000018000a400 f i libvcruntimed:undname.obj
 0001:00009410       ??0charNode@@QEAA@D@Z      000000018000a410 f i libvcruntimed:undname.obj
 0001:00009450       ??0pDNameNode@@QEAA@PEAVDName@@@Z 000000018000a450 f   libvcruntimed:undname.obj
 0001:000094d0       ??0pairNode@@QEAA@PEBVDNameNode@@0@Z 000000018000a4d0 f i libvcruntimed:undname.obj
 0001:00009550       ??2@YAPEAX_KAEAV_HeapManager@@H@Z 000000018000a550 f   libvcruntimed:undname.obj
 0001:000095b0       ??4DName@@QEAAAEAV0@AEBUStringLiteral@@@Z 000000018000a5b0 f   libvcruntimed:undname.obj
 0001:00009600       ??4DName@@QEAAAEAV0@AEBV0@@Z 000000018000a600 f   libvcruntimed:undname.obj
 0001:00009630       ??4DName@@QEAAAEAV0@D@Z    000000018000a630 f i libvcruntimed:undname.obj
 0001:00009670       ??4DName@@QEAAAEAV0@PEAV0@@Z 000000018000a670 f   libvcruntimed:undname.obj
 0001:00009740       ??4DName@@QEAAAEAV0@W4DNameStatus@@@Z 000000018000a740 f   libvcruntimed:undname.obj
 0001:000097d0       ??AReplicator@@QEBA?AVDName@@H@Z 000000018000a7d0 f   libvcruntimed:undname.obj
 0001:00009870       ??B?$optional@_K@std@@QEBA_NXZ 000000018000a870 f i libvcruntimed:undname.obj
 0001:00009880       ??D?$_Optional_construct_base@_K@std@@QEGAAAEA_KXZ 000000018000a880 f i libvcruntimed:undname.obj
 0001:00009900       ??H@YA?AVDName@@AEBUStringLiteral@@AEBV0@@Z 000000018000a900 f i libvcruntimed:undname.obj
 0001:00009950       ??H@YA?AVDName@@DAEBV0@@Z  000000018000a950 f i libvcruntimed:undname.obj
 0001:000099a0       ??H@YA?AVDName@@W4DNameStatus@@AEBV0@@Z 000000018000a9a0 f i libvcruntimed:undname.obj
 0001:000099f0       ??HDName@@QEBA?AV0@AEBUStringLiteral@@@Z 000000018000a9f0 f   libvcruntimed:undname.obj
 0001:00009a30       ??HDName@@QEBA?AV0@AEBV0@@Z 000000018000aa30 f   libvcruntimed:undname.obj
 0001:00009a70       ??HDName@@QEBA?AV0@D@Z     000000018000aa70 f   libvcruntimed:undname.obj
 0001:00009ab0       ??HDName@@QEBA?AV0@PEAV0@@Z 000000018000aab0 f   libvcruntimed:undname.obj
 0001:00009af0       ??HDName@@QEBA?AV0@W4DNameStatus@@@Z 000000018000aaf0 f   libvcruntimed:undname.obj
 0001:00009b30       ??HStringLiteral@@QEBA?AU0@H@Z 000000018000ab30 f i libvcruntimed:undname.obj
 0001:00009b70       ??YDName@@QEAAAEAV0@AEBUStringLiteral@@@Z 000000018000ab70 f   libvcruntimed:undname.obj
 0001:00009c90       ??YDName@@QEAAAEAV0@AEBV0@@Z 000000018000ac90 f   libvcruntimed:undname.obj
 0001:00009d50       ??YDName@@QEAAAEAV0@D@Z    000000018000ad50 f   libvcruntimed:undname.obj
 0001:00009e00       ??YDName@@QEAAAEAV0@PEAV0@@Z 000000018000ae00 f   libvcruntimed:undname.obj
 0001:00009ef0       ??YDName@@QEAAAEAV0@W4DNameStatus@@@Z 000000018000aef0 f   libvcruntimed:undname.obj
 0001:00009f70       ??YReplicator@@QEAAAEAV0@AEBVDName@@@Z 000000018000af70 f   libvcruntimed:undname.obj
 0001:0000a040       ??_5DName@@QEAAAEAV0@AEBV0@@Z 000000018000b040 f   libvcruntimed:undname.obj
 0001:0000a0c0       ??__K_l@@YA?AUStringLiteral@@PEBD_K@Z 000000018000b0c0 f i libvcruntimed:undname.obj
 0001:0000a0f0       ?Destructor@UnDecorator@@QEAAXXZ 000000018000b0f0 f i libvcruntimed:undname.obj
 0001:0000a120       ?Destructor@_HeapManager@@QEAAXXZ 000000018000b120 f i libvcruntimed:undname.obj
 0001:0000a1c0       ?UScore@UnDecorator@@QEAA?AUStringLiteral@@W4Tokens@@@Z 000000018000b1c0 f   libvcruntimed:undname.obj
 0001:0000a250       ?composeDeclaration@UnDecorator@@AEAA?AVDName@@AEBV2@@Z 000000018000b250 f i libvcruntimed:undname.obj
 0001:0000c9d0       ?doAccessSpecifiers@UnDecorator@@QEAAHXZ 000000018000d9d0 f i libvcruntimed:undname.obj
 0001:0000ca10       ?doAllocationLanguage@UnDecorator@@QEAAHXZ 000000018000da10 f i libvcruntimed:undname.obj
 0001:0000ca50       ?doAllocationModel@UnDecorator@@QEAAHXZ 000000018000da50 f i libvcruntimed:undname.obj
 0001:0000ca90       ?doEcsu@UnDecorator@@QEAAHXZ 000000018000da90 f i libvcruntimed:undname.obj
 0001:0000cad0       ?doEllipsis@UnDecorator@@QEAAHXZ 000000018000dad0 f i libvcruntimed:undname.obj
 0001:0000cb10       ?doFunctionReturns@UnDecorator@@QEAAHXZ 000000018000db10 f i libvcruntimed:undname.obj
 0001:0000cb50       ?doMSKeywords@UnDecorator@@QEAAHXZ 000000018000db50 f i libvcruntimed:undname.obj
 0001:0000cb90       ?doMemberTypes@UnDecorator@@QEAAHXZ 000000018000db90 f i libvcruntimed:undname.obj
 0001:0000cbd0       ?doNameOnly@UnDecorator@@QEAAHXZ 000000018000dbd0 f i libvcruntimed:undname.obj
 0001:0000cbf0       ?doNoIdentCharCheck@UnDecorator@@QEAAHXZ 000000018000dbf0 f i libvcruntimed:undname.obj
 0001:0000cc10       ?doPchar@DName@@AEAAXD@Z   000000018000dc10 f   libvcruntimed:undname.obj
 0001:0000ccb0       ?doPtr64@UnDecorator@@QEAAHXZ 000000018000dcb0 f i libvcruntimed:undname.obj
 0001:0000ccf0       ?doRestrictionSpec@UnDecorator@@QEAAHXZ 000000018000dcf0 f i libvcruntimed:undname.obj
 0001:0000cd30       ?doThisTypes@UnDecorator@@QEAAHXZ 000000018000dd30 f i libvcruntimed:undname.obj
 0001:0000cd70       ?doThrowTypes@UnDecorator@@QEAAHXZ 000000018000dd70 f i libvcruntimed:undname.obj
 0001:0000cdb0       ?doTypeOnly@UnDecorator@@QEAAHXZ 000000018000ddb0 f i libvcruntimed:undname.obj
 0001:0000cdd0       ?doUnderScore@UnDecorator@@QEAAHXZ 000000018000ddd0 f i libvcruntimed:undname.obj
 0001:0000ce10       ?getAddressOf@UnDecorator@@AEAA?AVDName@@XZ 000000018000de10 f   libvcruntimed:undname.obj
 0001:0000ced0       ?getArgumentList@UnDecorator@@AEAA?AVDName@@XZ 000000018000ded0 f   libvcruntimed:undname.obj
 0001:0000d0f0       ?getArgumentTypes@UnDecorator@@AEAA?AVDName@@XZ 000000018000e0f0 f   libvcruntimed:undname.obj
 0001:0000d410       ?getArrayAccess@UnDecorator@@AEAA?AVDName@@XZ 000000018000e410 f   libvcruntimed:undname.obj
 0001:0000d4f0       ?getArrayObject@UnDecorator@@AEAA?AVDName@@XZ 000000018000e4f0 f   libvcruntimed:undname.obj
 0001:0000d6a0       ?getArrayType@UnDecorator@@AEAA?AVDName@@AEBV2@@Z 000000018000e6a0 f i libvcruntimed:undname.obj
 0001:0000dad0       ?getBasedType@UnDecorator@@AEAA?AVDName@@XZ 000000018000ead0 f   libvcruntimed:undname.obj
 0001:0000dc40       ?getBasicDataType@UnDecorator@@AEAA?AVDName@@AEBV2@@Z 000000018000ec40 f   libvcruntimed:undname.obj
 0001:0000eb90       ?getCHPEName@UnDecorator@@QEAAPEADPEADH@Z 000000018000fb90 f i libvcruntimed:undname.obj
 0001:0000ede0       ?getCallIndex@UnDecorator@@AEAA?AVDName@@XZ 000000018000fde0 f i libvcruntimed:undname.obj
 0001:0000ee10       ?getCallingConvention@UnDecorator@@AEAA?AVDName@@XZ 000000018000fe10 f   libvcruntimed:undname.obj
 0001:0000f160       ?getDataIndirectType@UnDecorator@@AEAA?AVDName@@AEBV2@W4IndirectionKind@@0H@Z 0000000180010160 f   libvcruntimed:undname.obj
 0001:0000ff40       ?getDataIndirectType@UnDecorator@@AEAA?AVDName@@XZ 0000000180010f40 f i libvcruntimed:undname.obj
 0001:0000ffc0       ?getDataType@UnDecorator@@AEAA?AVDName@@PEAV2@@Z 0000000180010fc0 f   libvcruntimed:undname.obj
 0001:000101c0       ?getDecoratedName@UnDecorator@@AEAA?AVDName@@XZ 00000001800111c0 f   libvcruntimed:undname.obj
 0001:000107d0       ?getDimension@UnDecorator@@AEAA?AVDName@@_N@Z 00000001800117d0 f   libvcruntimed:undname.obj
 0001:00010b20       ?getDispatchTarget@UnDecorator@@AEAA?AVDName@@XZ 0000000180011b20 f   libvcruntimed:undname.obj
 0001:00010c00       ?getDisplacement@UnDecorator@@AEAA?AVDName@@XZ 0000000180011c00 f i libvcruntimed:undname.obj
 0001:00010c30       ?getECSUDataType@UnDecorator@@AEAA?AVDName@@XZ 0000000180011c30 f   libvcruntimed:undname.obj
 0001:000110f0       ?getECSUName@UnDecorator@@AEAA?AVDName@@XZ 00000001800120f0 f i libvcruntimed:undname.obj
 0001:00011120       ?getEnumType@UnDecorator@@AEAA?AVDName@@XZ 0000000180012120 f i libvcruntimed:undname.obj
 0001:000113e0       ?getExtendedDataIndirectType@UnDecorator@@AEAA?AVDName@@AEAW4IndirectionKind@@AEA_NH@Z 00000001800123e0 f   libvcruntimed:undname.obj
 0001:00011800       ?getExternalDataType@UnDecorator@@AEAA?AVDName@@AEBV2@@Z 0000000180012800 f i libvcruntimed:undname.obj
 0001:000118f0       ?getFloatingPoint@UnDecorator@@AEAA?AVDName@@H@Z 00000001800128f0 f   libvcruntimed:undname.obj
 0001:00011a80       ?getFunctionIndirectType@UnDecorator@@AEAA?AVDName@@AEBV2@@Z 0000000180012a80 f   libvcruntimed:undname.obj
 0001:000121f0       ?getGuardNumber@UnDecorator@@AEAA?AVDName@@XZ 00000001800131f0 f i libvcruntimed:undname.obj
 0001:00012220       ?getHeap@UnDecorator@@QEAAAEAV_HeapManager@@XZ 0000000180013220 f i libvcruntimed:undname.obj
 0001:00012240       ?getLastChar@DName@@QEBADXZ 0000000180013240 f i libvcruntimed:undname.obj
 0001:00012290       ?getLastChar@DNameStatusNode@@UEBADXZ 0000000180013290 f i libvcruntimed:undname.obj
 0001:000122d0       ?getLastChar@charNode@@UEBADXZ 00000001800132d0 f i libvcruntimed:undname.obj
 0001:000122e0       ?getLastChar@pDNameNode@@UEBADXZ 00000001800132e0 f i libvcruntimed:undname.obj
 0001:00012320       ?getLastChar@pairNode@@UEBADXZ 0000000180013320 f i libvcruntimed:undname.obj
 0001:000123a0       ?getLastChar@pcharNode@@UEBADXZ 00000001800133a0 f i libvcruntimed:undname.obj
 0001:000123e0       ?getLexicalFrame@UnDecorator@@AEAA?AVDName@@XZ 00000001800133e0 f i libvcruntimed:undname.obj
 0001:00012440       ?getMemberAccess@UnDecorator@@AEAA?AVDName@@XZ 0000000180013440 f   libvcruntimed:undname.obj
 0001:00012520       ?getMemoryWithBuffer@_HeapManager@@QEAAPEAX_K@Z 0000000180013520 f   libvcruntimed:undname.obj
 0001:00012660       ?getMemoryWithoutBuffer@_HeapManager@@QEAAPEAX_K@Z 0000000180013660 f   libvcruntimed:undname.obj
 0001:000126b0       ?getNoexcept@UnDecorator@@AEAA?AVDName@@XZ 00000001800136b0 f   libvcruntimed:undname.obj
 0001:00012760       ?getNumberOfDimensions@UnDecorator@@AEAAHXZ 0000000180013760 f   libvcruntimed:undname.obj
 0001:00012870       ?getOperatorName@UnDecorator@@AEAA?AVDName@@_NPEA_N@Z 0000000180013870 f i libvcruntimed:undname.obj
 0001:000139a0       ?getPointerToMember@UnDecorator@@AEAA?AVDName@@XZ 00000001800149a0 f   libvcruntimed:undname.obj
 0001:00013b30       ?getPointerType@UnDecorator@@AEAA?AVDName@@AEBV2@0@Z 0000000180014b30 f i libvcruntimed:undname.obj
 0001:00013b80       ?getPointerTypeArray@UnDecorator@@AEAA?AVDName@@AEBV2@0@Z 0000000180014b80 f i libvcruntimed:undname.obj
 0001:00013bd0       ?getPrimaryDataType@UnDecorator@@AEAA?AVDName@@AEBV2@@Z 0000000180014bd0 f   libvcruntimed:undname.obj
 0001:00014290       ?getPtrRefDataType@UnDecorator@@AEAA?AVDName@@AEBV2@H@Z 0000000180015290 f   libvcruntimed:undname.obj
 0001:000146f0       ?getPtrRefType@UnDecorator@@AEAA?AVDName@@AEBV2@0W4IndirectionKind@@@Z 00000001800156f0 f   libvcruntimed:undname.obj
 0001:00014980       ?getReferenceType@UnDecorator@@AEAA?AVDName@@AEBV2@0W4IndirectionKind@@@Z 0000000180015980 f i libvcruntimed:undname.obj
 0001:000149d0       ?getRestrictionSpec@UnDecorator@@AEAA?AVDName@@XZ 00000001800159d0 f   libvcruntimed:undname.obj
 0001:00014c80       ?getReturnType@UnDecorator@@AEAA?AVDName@@PEAV2@@Z 0000000180015c80 f   libvcruntimed:undname.obj
 0001:00014cf0       ?getScope@UnDecorator@@AEAA?AVDName@@XZ 0000000180015cf0 f   libvcruntimed:undname.obj
 0001:00015560       ?getScopedName@UnDecorator@@AEAA?AVDName@@XZ 0000000180016560 f   libvcruntimed:undname.obj
 0001:000157b0       ?getSignedDimension@UnDecorator@@AEAA?AVDName@@XZ 00000001800167b0 f   libvcruntimed:undname.obj
 0001:00015860       ?getStorageConvention@UnDecorator@@AEAA?AVDName@@XZ 0000000180016860 f i libvcruntimed:undname.obj
 0001:00015890       ?getString@DName@@QEBAPEADPEAD0@Z 0000000180016890 f i libvcruntimed:undname.obj
 0001:00015910       ?getString@DName@@QEBAPEADPEADH@Z 0000000180016910 f i libvcruntimed:undname.obj
 0001:000159d0       ?getString@DNameStatusNode@@UEBAPEADPEAD0@Z 00000001800169d0 f i libvcruntimed:undname.obj
 0001:00015a20       ?getString@charNode@@UEBAPEADPEAD0@Z 0000000180016a20 f i libvcruntimed:undname.obj
 0001:00015a60       ?getString@pDNameNode@@UEBAPEADPEAD0@Z 0000000180016a60 f i libvcruntimed:undname.obj
 0001:00015ac0       ?getString@pairNode@@UEBAPEADPEAD0@Z 0000000180016ac0 f i libvcruntimed:undname.obj
 0001:00015b90       ?getString@pcharNode@@UEBAPEADPEAD0@Z 0000000180016b90 f i libvcruntimed:undname.obj
 0001:00015bd0       ?getStringEncoding@UnDecorator@@AEAA?AVDName@@W4PrefixKind@@H@Z 0000000180016bd0 f   libvcruntimed:undname.obj
 0001:00015da0       ?getStringHelper@@YAPEADPEADPEBD1H@Z 0000000180016da0 f i libvcruntimed:undname.obj
 0001:00015e10       ?getStringObject@UnDecorator@@AEAA?AVDName@@XZ 0000000180016e10 f   libvcruntimed:undname.obj
 0001:00015ef0       ?getSymbolName@UnDecorator@@AEAA?AVDName@@XZ 0000000180016ef0 f i libvcruntimed:undname.obj
 0001:00015fa0       ?getTemplateArgumentList@UnDecorator@@AEAA?AVDName@@XZ 0000000180016fa0 f   libvcruntimed:undname.obj
 0001:000163a0       ?getTemplateName@UnDecorator@@AEAA?AVDName@@_N@Z 00000001800173a0 f   libvcruntimed:undname.obj
 0001:00016690       ?getTemplateNonTypeArgument@UnDecorator@@AEAA?AVDName@@XZ 0000000180017690 f   libvcruntimed:undname.obj
 0001:00017060       ?getTemplateTypeArgument@UnDecorator@@AEAA?AVDName@@XZ 0000000180018060 f   libvcruntimed:undname.obj
 0001:00017340       ?getThisType@UnDecorator@@AEAA?AVDName@@XZ 0000000180018340 f i libvcruntimed:undname.obj
 0001:000173c0       ?getThrowTypes@UnDecorator@@AEAA?AVDName@@XZ 00000001800183c0 f   libvcruntimed:undname.obj
 0001:00017410       ?getTypeEncoding@UnDecorator@@AEAAHXZ 0000000180018410 f i libvcruntimed:undname.obj
 0001:00018140       ?getUndecoratedName@UnDecorator@@QEAAPEADPEADH@Z 0000000180019140 f i libvcruntimed:undname.obj
 0001:00018370       ?getUnionObject@UnDecorator@@AEAA?AVDName@@XZ 0000000180019370 f   libvcruntimed:undname.obj
 0001:000184d0       ?getVCallThunkType@UnDecorator@@AEAA?AVDName@@XZ 00000001800194d0 f i libvcruntimed:undname.obj
 0001:00018590       ?getValue@UnDecorator@@AEAA?AV?$optional@_K@std@@XZ 0000000180019590 f   libvcruntimed:undname.obj
 0001:00018670       ?getValueObject@UnDecorator@@AEAA?AVDName@@XZ 0000000180019670 f   libvcruntimed:undname.obj
 0001:00018980       ?getVbTableType@UnDecorator@@AEAA?AVDName@@AEBV2@@Z 0000000180019980 f i libvcruntimed:undname.obj
 0001:000189c0       ?getVdispMapType@UnDecorator@@AEAA?AVDName@@AEBV2@@Z 00000001800199c0 f i libvcruntimed:undname.obj
 0001:00018a90       ?getVfTableType@UnDecorator@@AEAA?AVDName@@AEBV2@@Z 0000000180019a90 f i libvcruntimed:undname.obj
 0001:00018da0       ?getZName@UnDecorator@@AEAA?AVDName@@_N0@Z 0000000180019da0 f   libvcruntimed:undname.obj
 0001:000192d0       ?get_current_character_and_increment_buffer@UnDecorator@@AEAADXZ 000000018001a2d0 f i libvcruntimed:undname.obj
 0001:00019320       ?haveTemplateParameters@UnDecorator@@QEAAHXZ 000000018001a320 f i libvcruntimed:undname.obj
 0001:00019340       ?increment_buffer@UnDecorator@@AEAA_N_K@Z 000000018001a340 f i libvcruntimed:undname.obj
 0001:000193b0       ?increment_buffer_no_check@UnDecorator@@AEAAXXZ 000000018001a3b0 f i libvcruntimed:undname.obj
 0001:000193e0       ?increment_buffer_no_check@UnDecorator@@AEAAX_K@Z 000000018001a3e0 f i libvcruntimed:undname.obj
 0001:00019440       ?isArray@DName@@QEBAHXZ    000000018001a440 f i libvcruntimed:undname.obj
 0001:00019460       ?isComArray@DName@@QEBAHXZ 000000018001a460 f i libvcruntimed:undname.obj
 0001:00019480       ?isEmpty@DName@@QEBAHXZ    000000018001a480 f i libvcruntimed:undname.obj
 0001:000194b0       ?isFull@Replicator@@QEBAHXZ 000000018001a4b0 f i libvcruntimed:undname.obj
 0001:000194e0       ?isNoTE@DName@@QEBAHXZ     000000018001a4e0 f i libvcruntimed:undname.obj
 0001:00019500       ?isPinPtr@DName@@QEBAHXZ   000000018001a500 f i libvcruntimed:undname.obj
 0001:00019520       ?isPtrRef@DName@@QEBAHXZ   000000018001a520 f i libvcruntimed:undname.obj
 0001:00019540       ?isUDC@DName@@QEBAHXZ      000000018001a540 f i libvcruntimed:undname.obj
 0001:00019590       ?isUDTThunk@DName@@QEBAHXZ 000000018001a590 f i libvcruntimed:undname.obj
 0001:000195e0       ?isVCallThunk@DName@@QEBAHXZ 000000018001a5e0 f i libvcruntimed:undname.obj
 0001:00019600       ?isValid@DName@@QEBAHXZ    000000018001a600 f i libvcruntimed:undname.obj
 0001:00019640       ?length@DName@@QEBAHXZ     000000018001a640 f i libvcruntimed:undname.obj
 0001:00019690       ?length@DNameStatusNode@@UEBAHXZ 000000018001a690 f i libvcruntimed:undname.obj
 0001:000196a0       ?length@charNode@@UEBAHXZ  000000018001a6a0 f i libvcruntimed:undname.obj
 0001:000196b0       ?length@pDNameNode@@UEBAHXZ 000000018001a6b0 f i libvcruntimed:undname.obj
 0001:000196f0       ?length@pairNode@@UEBAHXZ  000000018001a6f0 f i libvcruntimed:undname.obj
 0001:00019780       ?length@pcharNode@@UEBAHXZ 000000018001a780 f i libvcruntimed:undname.obj
 0001:00019790       ?make@DNameStatusNode@@SAPEBV1@W4DNameStatus@@@Z 000000018001a790 f i libvcruntimed:undname.obj
 0001:000197e0       ?parseDecoratedName@UnDecorator@@AEAA?AVDName@@XZ 000000018001a7e0 f   libvcruntimed:undname.obj
 0001:00019a90       ?raw_length@DNameStatusNode@@UEBAHXZ 000000018001aa90 f i libvcruntimed:undname.obj
 0001:00019ab0       ?raw_length@charNode@@UEBAHXZ 000000018001aab0 f i libvcruntimed:undname.obj
 0001:00019ad0       ?raw_length@pDNameNode@@UEBAHXZ 000000018001aad0 f i libvcruntimed:undname.obj
 0001:00019ae0       ?raw_length@pairNode@@UEBAHXZ 000000018001aae0 f i libvcruntimed:undname.obj
 0001:00019af0       ?raw_length@pcharNode@@UEBAHXZ 000000018001aaf0 f i libvcruntimed:undname.obj
 0001:00019b10       ?setIsArray@DName@@QEAAXXZ 000000018001ab10 f i libvcruntimed:undname.obj
 0001:00019b30       ?setIsComArray@DName@@QEAAXXZ 000000018001ab30 f i libvcruntimed:undname.obj
 0001:00019b50       ?setIsNoTE@DName@@QEAAXXZ  000000018001ab50 f i libvcruntimed:undname.obj
 0001:00019b70       ?setIsPinPtr@DName@@QEAAXXZ 000000018001ab70 f i libvcruntimed:undname.obj
 0001:00019b90       ?setIsUDC@DName@@QEAAXXZ   000000018001ab90 f i libvcruntimed:undname.obj
 0001:00019bc0       ?setIsVCallThunk@DName@@QEAAXXZ 000000018001abc0 f i libvcruntimed:undname.obj
 0001:00019be0       ?setPtrRef@DName@@QEAAAEAV1@XZ 000000018001abe0 f i libvcruntimed:undname.obj
 0001:00019c00       ?status@DName@@QEBA?AW4DNameStatus@@XZ 000000018001ac00 f i libvcruntimed:undname.obj
 0001:00019d30       __unDName                  000000018001ad30 f   libvcruntimed:undname.obj
 0001:00019d90       __unDNameEx                000000018001ad90 f   libvcruntimed:undname.obj
 0001:00019e50       snprintf                   000000018001ae50 f i libvcruntimed:undname.obj
 0001:00019eb0       unDNameGenerateCHPE        000000018001aeb0 f   libvcruntimed:undname.obj
 0001:00019f50       vsnprintf                  000000018001af50 f i libvcruntimed:undname.obj
 0001:0001a000       _NLG_Notify                000000018001b000 f   libvcruntimed:notify.obj
 0001:0001a020       __NLG_Dispatch2            000000018001b020 f   libvcruntimed:notify.obj
 0001:0001a030       __NLG_Return2              000000018001b030 f   libvcruntimed:notify.obj
 0001:0001a050       __except_validate_context_record 000000018001b050 f   libvcruntimed:jbcxrval.obj
 0001:0001a0b0       __except_validate_jump_buffer 000000018001b0b0 f   libvcruntimed:jbcxrval.obj
 0001:0001a0d0       __except_validate_jump_buffer_common 000000018001b0d0 f i libvcruntimed:jbcxrval.obj
 0001:0001a150       ??$?RU__vcrt_ptd@@@__crt_internal_free_policy@@QEBAXQEBU__vcrt_ptd@@@Z 000000018001b150 f i libvcruntimed:per_thread_data.obj
 0001:0001a180       ??0?$__crt_unique_heap_ptr@U__vcrt_ptd@@U__crt_internal_free_policy@@@@QEAA@QEAU__vcrt_ptd@@@Z 000000018001b180 f i libvcruntimed:per_thread_data.obj
 0001:0001a1c0       ??1?$__crt_unique_heap_ptr@U__vcrt_ptd@@U__crt_internal_free_policy@@@@QEAA@XZ 000000018001b1c0 f i libvcruntimed:per_thread_data.obj
 0001:0001a200       ??B?$__crt_unique_heap_ptr@U__vcrt_ptd@@U__crt_internal_free_policy@@@@QEBA_NXZ 000000018001b200 f i libvcruntimed:per_thread_data.obj
 0001:0001a220       ?detach@?$__crt_unique_heap_ptr@U__vcrt_ptd@@U__crt_internal_free_policy@@@@QEAAPEAU__vcrt_ptd@@XZ 000000018001b220 f i libvcruntimed:per_thread_data.obj
 0001:0001a250       ?get@?$__crt_unique_heap_ptr@U__vcrt_ptd@@U__crt_internal_free_policy@@@@QEBAPEAU__vcrt_ptd@@XZ 000000018001b250 f i libvcruntimed:per_thread_data.obj
 0001:0001a260       ?is_valid@?$__crt_unique_heap_ptr@U__vcrt_ptd@@U__crt_internal_free_policy@@@@QEBA_NXZ 000000018001b260 f i libvcruntimed:per_thread_data.obj
 0001:0001a290       ?release@?$__crt_unique_heap_ptr@U__vcrt_ptd@@U__crt_internal_free_policy@@@@QEAAXXZ 000000018001b290 f i libvcruntimed:per_thread_data.obj
 0001:0001a300       __vcrt_freefls             000000018001b300 f   libvcruntimed:per_thread_data.obj
 0001:0001a340       __vcrt_freeptd_for_this_thread 000000018001b340 f   libvcruntimed:per_thread_data.obj
 0001:0001a380       __vcrt_getptd              000000018001b380 f   libvcruntimed:per_thread_data.obj
 0001:0001a3b0       __vcrt_getptd_noexit       000000018001b3b0 f   libvcruntimed:per_thread_data.obj
 0001:0001a550       __vcrt_getptd_noinit       000000018001b550 f   libvcruntimed:per_thread_data.obj
 0001:0001a5b0       __vcrt_initialize_ptd      000000018001b5b0 f   libvcruntimed:per_thread_data.obj
 0001:0001a600       __vcrt_uninitialize_ptd    000000018001b600 f   libvcruntimed:per_thread_data.obj
 0001:0001a630       __vcrt_initialize_locks    000000018001b630 f   libvcruntimed:locks.obj
 0001:0001a6a0       __vcrt_lock                000000018001b6a0 f   libvcruntimed:locks.obj
 0001:0001a6d0       __vcrt_uninitialize_locks  000000018001b6d0 f   libvcruntimed:locks.obj
 0001:0001a730       __vcrt_unlock              000000018001b730 f   libvcruntimed:locks.obj
 0001:0001a760       ??$?0AEAViterator@TryBlockMap4@FH4@@AEAV012@$0A@@?$pair@Viterator@TryBlockMap4@FH4@@V123@@std@@QEAA@AEAViterator@TryBlockMap4@FH4@@0@Z 000000018001b760 f i libvcruntimed:risctrnsctrl.obj
 0001:0001a7a0       ??$?0AEAViterator@TryBlockMap@__FrameHandler3@@AEAV012@$0A@@?$pair@Viterator@TryBlockMap@__FrameHandler3@@V123@@std@@QEAA@AEAViterator@TryBlockMap@__FrameHandler3@@0@Z 000000018001b7a0 f i libvcruntimed:risctrnsctrl.obj
 0001:0001a990       ??$_CallSETranslator@V__FrameHandler3@@@@YAHPEAUEHExceptionRecord@@PEA_KPEAU_CONTEXT@@PEAU_xDISPATCHER_CONTEXT@@PEBU_s_FuncInfo@@K1H@Z 000000018001b990 f i libvcruntimed:risctrnsctrl.obj
 0001:0001aa20       ??$_CallSETranslator@V__FrameHandler4@@@@YAHPEAUEHExceptionRecord@@PEA_KPEAU_CONTEXT@@PEAU_xDISPATCHER_CONTEXT@@PEAUFuncInfo4@FH4@@K1H@Z 000000018001ba20 f i libvcruntimed:risctrnsctrl.obj
 0001:0001aab0       ??0FuncInfo4@FH4@@QEAA@XZ  000000018001bab0 f i libvcruntimed:risctrnsctrl.obj
 0001:0001ab20       ??0FuncInfoHeader@FH4@@QEAA@XZ 000000018001bb20 f i libvcruntimed:risctrnsctrl.obj
 0001:0001ab40       ??0iterator@TryBlockMap4@FH4@@QEAA@AEAV12@I@Z 000000018001bb40 f i libvcruntimed:risctrnsctrl.obj
 0001:0001ab70       ??0iterator@TryBlockMap@__FrameHandler3@@QEAA@AEAV12@I@Z 000000018001bb70 f i libvcruntimed:risctrnsctrl.obj
 0001:0001aba0       ??4iterator@TryBlockMap4@FH4@@QEAAAEAV012@AEBV012@@Z 000000018001bba0 f i libvcruntimed:risctrnsctrl.obj
 0001:0001abc0       ??9iterator@TryBlockMap4@FH4@@QEBA_NAEBV012@@Z 000000018001bbc0 f i libvcruntimed:risctrnsctrl.obj
 0001:0001ac00       ??Diterator@TryBlockMap4@FH4@@QEAA?AUTryBlockMapEntry4@2@XZ 000000018001bc00 f i libvcruntimed:risctrnsctrl.obj
 0001:0001ac30       ??Eiterator@TryBlockMap4@FH4@@QEAAAEAV012@XZ 000000018001bc30 f i libvcruntimed:risctrnsctrl.obj
 0001:0001ac70       ?CatchTryBlock@__FrameHandler3@@SAPEBU_s_TryBlockMapEntry@@PEBU_s_FuncInfo@@H@Z 000000018001bc70 f   libvcruntimed:risctrnsctrl.obj
 0001:0001ad00       ?DecompFuncInfo@FH4@@YA_JPEAEAEAUFuncInfo4@1@_KH@Z 000000018001bd00 f i libvcruntimed:risctrnsctrl.obj
 0001:0001ad40       ?DecompFuncInfo@FH4@@YA_JPEAEAEAUFuncInfo4@1@_KH_N@Z 000000018001bd40 f i libvcruntimed:risctrnsctrl.obj
 0001:0001af20       ?DecompTryBlock@TryBlockMap4@FH4@@AEAAXXZ 000000018001bf20 f i libvcruntimed:risctrnsctrl.obj
 0001:0001afa0       ?ExecutionInCatch@__FrameHandler3@@SA_NPEAU_xDISPATCHER_CONTEXT@@PEBU_s_FuncInfo@@@Z 000000018001bfa0 f   libvcruntimed:risctrnsctrl.obj
 0001:0001aff0       ?ExecutionInCatch@__FrameHandler4@@SA_NPEAU_xDISPATCHER_CONTEXT@@PEAUFuncInfo4@FH4@@@Z 000000018001bff0 f   libvcruntimed:risctrnsctrl.obj
 0001:0001b010       ?FrameUnwindToEmptyState@__FrameHandler3@@SAXPEA_KPEAU_xDISPATCHER_CONTEXT@@PEBU_s_FuncInfo@@@Z 000000018001c010 f   libvcruntimed:risctrnsctrl.obj
 0001:0001b0b0       ?FrameUnwindToEmptyState@__FrameHandler4@@SAXPEA_KPEAU_xDISPATCHER_CONTEXT@@PEAUFuncInfo4@FH4@@@Z 000000018001c0b0 f   libvcruntimed:risctrnsctrl.obj
 0001:0001b110       ?GetEstablisherFrame@__FrameHandler3@@SAPEA_KPEA_KPEAU_xDISPATCHER_CONTEXT@@PEBU_s_FuncInfo@@0@Z 000000018001c110 f   libvcruntimed:risctrnsctrl.obj
 0001:0001b280       ?GetEstablisherFrame@__FrameHandler4@@SAPEA_KPEA_KPEAU_xDISPATCHER_CONTEXT@@PEAUFuncInfo4@FH4@@0@Z 000000018001c280 f   libvcruntimed:risctrnsctrl.obj
 0001:0001b2f0       ?GetRangeOfTrysToCheck@__FrameHandler3@@SA?AU?$pair@Viterator@TryBlockMap@__FrameHandler3@@V123@@std@@AEAVTryBlockMap@1@HPEAU_xDISPATCHER_CONTEXT@@PEBU_s_FuncInfo@@H@Z 000000018001c2f0 f   libvcruntimed:risctrnsctrl.obj
 0001:0001b530       ?GetRangeOfTrysToCheck@__FrameHandler4@@SA?AU?$pair@Viterator@TryBlockMap4@FH4@@V123@@std@@AEAVTryBlockMap4@FH4@@HPEAU_xDISPATCHER_CONTEXT@@PEAUFuncInfo4@5@H@Z 000000018001c530 f   libvcruntimed:risctrnsctrl.obj
 0001:0001b6f0       ?ReadInt@FH4@@YAHPEAPEAE@Z 000000018001c6f0 f i libvcruntimed:risctrnsctrl.obj
 0001:0001b730       ?ReadUnsigned@FH4@@YAIPEAPEAE@Z 000000018001c730 f i libvcruntimed:risctrnsctrl.obj
 0001:0001b7c0       ?UnwindNestedFrames@__FrameHandler3@@SAXPEA_KPEAUEHExceptionRecord@@PEAU_CONTEXT@@0PEAXPEBU_s_FuncInfo@@HHPEBU_s_HandlerType@@PEAU_xDISPATCHER_CONTEXT@@E@Z 000000018001c7c0 f   libvcruntimed:risctrnsctrl.obj
 0001:0001b930       ?UnwindNestedFrames@__FrameHandler4@@SAXPEA_KPEAUEHExceptionRecord@@PEAU_CONTEXT@@0PEAXPEAUFuncInfo4@FH4@@HHPEAUHandlerType4@5@PEAU_xDISPATCHER_CONTEXT@@E@Z 000000018001c930 f   libvcruntimed:risctrnsctrl.obj
 0001:0001bb00       ?begin@TryBlockMap4@FH4@@QEAA?AViterator@12@XZ 000000018001cb00 f i libvcruntimed:risctrnsctrl.obj
 0001:0001bb30       ?end@TryBlockMap4@FH4@@QEAA?AViterator@12@XZ 000000018001cb30 f i libvcruntimed:risctrnsctrl.obj
 0001:0001bb60       ?imageRelToByteBuffer@FH4@@YAPEAE_KH@Z 000000018001cb60 f i libvcruntimed:risctrnsctrl.obj
 0001:0001bb80       ?incrementToSentinel@iterator@TryBlockMap4@FH4@@QEAAXXZ 000000018001cb80 f i libvcruntimed:risctrnsctrl.obj
 0001:0001bba0       ?setBuffer@TryBlockMap4@FH4@@QEAAXViterator@12@@Z 000000018001cba0 f i libvcruntimed:risctrnsctrl.obj
 0001:0001bc10       _CreateFrameInfo           000000018001cc10 f   libvcruntimed:risctrnsctrl.obj
 0001:0001bc80       _FindAndUnlinkFrame        000000018001cc80 f   libvcruntimed:risctrnsctrl.obj
 0001:0001bd00       _GetImageBase              000000018001cd00 f   libvcruntimed:risctrnsctrl.obj
 0001:0001bd20       _GetThrowImageBase         000000018001cd20 f   libvcruntimed:risctrnsctrl.obj
 0001:0001bd40       _SetImageBase              000000018001cd40 f   libvcruntimed:risctrnsctrl.obj
 0001:0001bd60       _SetThrowImageBase         000000018001cd60 f   libvcruntimed:risctrnsctrl.obj
 0001:0001bd80       __CxxFrameHandler          000000018001cd80 f   libvcruntimed:risctrnsctrl.obj
 0001:0001bdc0       __CxxFrameHandler2         000000018001cdc0 f   libvcruntimed:risctrnsctrl.obj
 0001:0001be00       __CxxFrameHandler3         000000018001ce00 f   libvcruntimed:risctrnsctrl.obj
 0001:0001bee0       __CxxFrameHandler4         000000018001cee0 f   libvcruntimed:risctrnsctrl.obj
 0001:0001bff0       ??$__crt_interlocked_exchange_pointer@UHINSTANCE__@@PEAU1@@@YAPEAUHINSTANCE__@@PEDSEAU0@QEAU0@@Z 000000018001cff0 f i libvcruntimed:winapi_downlevel.obj
 0001:0001c010       ??$__crt_interlocked_exchange_pointer@UHINSTANCE__@@PEAX@@YAPEAUHINSTANCE__@@PEDSEAU0@QEAX@Z 000000018001d010 f i libvcruntimed:winapi_downlevel.obj
 0001:0001c030       ??$__crt_interlocked_exchange_pointer@XPEAX@@YAPEAXPEDSEAXQEAX@Z 000000018001d030 f i libvcruntimed:winapi_downlevel.obj
 0001:0001c050       ??$__crt_interlocked_read_pointer@UHINSTANCE__@@@@YAPEAUHINSTANCE__@@PEDSEAU0@@Z 000000018001d050 f i libvcruntimed:winapi_downlevel.obj
 0001:0001c070       ??$__crt_interlocked_read_pointer@X@@YAPEAXPEDSEAX@Z 000000018001d070 f i libvcruntimed:winapi_downlevel.obj
 0001:0001c580       __vcrt_FlsAlloc            000000018001d580 f   libvcruntimed:winapi_downlevel.obj
 0001:0001c5d0       __vcrt_FlsFree             000000018001d5d0 f   libvcruntimed:winapi_downlevel.obj
 0001:0001c620       __vcrt_FlsGetValue         000000018001d620 f   libvcruntimed:winapi_downlevel.obj
 0001:0001c670       __vcrt_FlsSetValue         000000018001d670 f   libvcruntimed:winapi_downlevel.obj
 0001:0001c6d0       __vcrt_InitializeCriticalSectionEx 000000018001d6d0 f   libvcruntimed:winapi_downlevel.obj
 0001:0001c740       ?GetCurrentState@__FrameHandler3@@SAHPEA_KPEAU_xDISPATCHER_CONTEXT@@PEBU_s_FuncInfo@@@Z 000000018001d740 f   libvcruntimed:ehstate.obj
 0001:0001c7a0       ?GetUnwindTryBlock@__FrameHandler3@@SAHPEA_KPEAU_xDISPATCHER_CONTEXT@@PEBU_s_FuncInfo@@@Z 000000018001d7a0 f   libvcruntimed:ehstate.obj
 0001:0001c7f0       ?SetState@__FrameHandler3@@SAXPEA_KPEBU_s_FuncInfo@@H@Z 000000018001d7f0 f   libvcruntimed:ehstate.obj
 0001:0001c820       ?SetUnwindTryBlock@__FrameHandler3@@SAXPEA_KPEAU_xDISPATCHER_CONTEXT@@PEBU_s_FuncInfo@@H@Z 000000018001d820 f   libvcruntimed:ehstate.obj
 0001:0001c890       ?StateFromControlPc@__FrameHandler3@@SAHPEBU_s_FuncInfo@@PEAU_xDISPATCHER_CONTEXT@@@Z 000000018001d890 f   libvcruntimed:ehstate.obj
 0001:0001c8d0       ?StateFromControlPc@__FrameHandler4@@SAHPEAUFuncInfo4@FH4@@PEAU_xDISPATCHER_CONTEXT@@@Z 000000018001d8d0 f   libvcruntimed:ehstate.obj
 0001:0001c910       ?StateFromIp@__FrameHandler3@@SAHPEBU_s_FuncInfo@@PEAU_xDISPATCHER_CONTEXT@@_K@Z 000000018001d910 f   libvcruntimed:ehstate.obj
 0001:0001ca10       ?StateFromIp@__FrameHandler4@@SAHPEAUFuncInfo4@FH4@@PEAU_xDISPATCHER_CONTEXT@@_K@Z 000000018001da10 f   libvcruntimed:ehstate.obj
 0001:0001cb00       ?__FuncRelToRealOffset@@YA_KPEAU_xDISPATCHER_CONTEXT@@I@Z 000000018001db00 f i libvcruntimed:ehstate.obj
 0001:0001cb30       ?__RVAtoRealOffset@@YA_KPEAU_xDISPATCHER_CONTEXT@@H@Z 000000018001db30 f i libvcruntimed:ehstate.obj
 0001:0001edd0       ??$TypeMatchHelper@V__FrameHandler3@@@@YAHPEBU_s_HandlerType@@PEBU_s_CatchableType@@PEBU_s_ThrowInfo@@@Z 000000018001fdd0 f i libvcruntimed:frame.obj
 0001:0001efd0       ??$TypeMatchHelper@V__FrameHandler4@@@@YAHPEAUHandlerType4@FH4@@PEBU_s_CatchableType@@PEBU_s_ThrowInfo@@@Z 000000018001ffd0 f i libvcruntimed:frame.obj
 0001:0001f1e0       ??$__InternalCxxFrameHandler@V__FrameHandler3@@@@YA?AW4_EXCEPTION_DISPOSITION@@PEAUEHExceptionRecord@@PEA_KPEAU_CONTEXT@@PEAU_xDISPATCHER_CONTEXT@@PEBU_s_FuncInfo@@H1E@Z 00000001800201e0 f i libvcruntimed:frame.obj
 0001:0001f660       ??$__InternalCxxFrameHandler@V__FrameHandler4@@@@YA?AW4_EXCEPTION_DISPOSITION@@PEAUEHExceptionRecord@@PEA_KPEAU_CONTEXT@@PEAU_xDISPATCHER_CONTEXT@@PEAUFuncInfo4@FH4@@H1E@Z 0000000180020660 f i libvcruntimed:frame.obj
 0001:0001fb00       ??$__InternalCxxFrameHandlerWrapper@V__FrameHandler3@@@@YA?AW4_EXCEPTION_DISPOSITION@@PEAUEHExceptionRecord@@PEA_KPEAU_CONTEXT@@PEAU_xDISPATCHER_CONTEXT@@PEBU_s_FuncInfo@@H1E@Z 0000000180020b00 f i libvcruntimed:frame.obj
 0001:0001fb70       ??$__InternalCxxFrameHandlerWrapper@V__FrameHandler4@@@@YA?AW4_EXCEPTION_DISPOSITION@@PEAUEHExceptionRecord@@PEA_KPEAU_CONTEXT@@PEAU_xDISPATCHER_CONTEXT@@PEAUFuncInfo4@FH4@@H1E@Z 0000000180020b70 f i libvcruntimed:frame.obj
 0001:0001fc00       ??0HandlerMap4@FH4@@QEAA@PEBUTryBlockMapEntry4@1@_KH@Z 0000000180020c00 f i libvcruntimed:frame.obj
 0001:0001fce0       ??0HandlerMap@__FrameHandler3@@QEAA@PEBU_s_TryBlockMapEntry@@_KI@Z 0000000180020ce0 f i libvcruntimed:frame.obj
 0001:0001fd30       ??0HandlerType4@FH4@@QEAA@XZ 0000000180020d30 f i libvcruntimed:frame.obj
 0001:0001fd50       ??0TryBlockMap4@FH4@@QEAA@PEBUFuncInfo4@1@_K@Z 0000000180020d50 f i libvcruntimed:frame.obj
 0001:0001fe10       ??0TryBlockMap@__FrameHandler3@@QEAA@PEBU_s_FuncInfo@@_K@Z 0000000180020e10 f i libvcruntimed:frame.obj
 0001:0001fe40       ??0UWMap4@FH4@@QEAA@PEBUFuncInfo4@1@_K@Z 0000000180020e40 f i libvcruntimed:frame.obj
 0001:0001fed0       ??0bad_exception@std@@QEAA@AEBV01@@Z 0000000180020ed0 f i libvcruntimed:frame.obj
 0001:0001ff10       ??0bad_exception@std@@QEAA@XZ 0000000180020f10 f i libvcruntimed:frame.obj
 0001:0001ff50       ??0exception@std@@QEAA@AEBV01@@Z 0000000180020f50 f i libvcruntimed:frame.obj
 0001:0001ffb0       ??0exception@std@@QEAA@QEBDH@Z 0000000180020fb0 f i libvcruntimed:frame.obj
 0001:00020000       ??0iterator@HandlerMap4@FH4@@QEAA@AEAV12@I@Z 0000000180021000 f i libvcruntimed:frame.obj
 0001:00020030       ??0iterator@HandlerMap@__FrameHandler3@@QEAA@AEAV12@I@Z 0000000180021030 f i libvcruntimed:frame.obj
 0001:00020060       ??0iterator@UWMap4@FH4@@QEAA@AEAV12@PEAE@Z 0000000180021060 f i libvcruntimed:frame.obj
 0001:00020090       ??1bad_exception@std@@UEAA@XZ 0000000180021090 f i libvcruntimed:frame.obj
 0001:000200b0       ??1exception@std@@UEAA@XZ  00000001800210b0 f i libvcruntimed:frame.obj
 0001:000200e0       ??4iterator@UWMap4@FH4@@QEAAAEAV012@AEBV012@@Z 00000001800210e0 f i libvcruntimed:frame.obj
 0001:00020130       ??8iterator@HandlerMap4@FH4@@QEBA_NAEBV012@@Z 0000000180021130 f i libvcruntimed:frame.obj
 0001:00020170       ??8iterator@HandlerMap@__FrameHandler3@@QEBA_NAEBV012@@Z 0000000180021170 f i libvcruntimed:frame.obj
 0001:000201b0       ??8type_info@@QEBA_NAEBV0@@Z 00000001800211b0 f i libvcruntimed:frame.obj
 0001:00020230       ??9iterator@HandlerMap4@FH4@@QEBA_NAEBV012@@Z 0000000180021230 f i libvcruntimed:frame.obj
 0001:00020270       ??9iterator@HandlerMap@__FrameHandler3@@QEBA_NAEBV012@@Z 0000000180021270 f i libvcruntimed:frame.obj
 0001:000202b0       ??Diterator@HandlerMap4@FH4@@QEAA?AUHandlerType4@2@XZ 00000001800212b0 f i libvcruntimed:frame.obj
 0001:000202e0       ??Diterator@HandlerMap@__FrameHandler3@@QEAA?BU_s_HandlerType@@XZ 00000001800212e0 f i libvcruntimed:frame.obj
 0001:00020320       ??Diterator@TryBlockMap@__FrameHandler3@@QEAA?BU_s_TryBlockMapEntry@@XZ 0000000180021320 f i libvcruntimed:frame.obj
 0001:00020370       ??Diterator@UWMap4@FH4@@QEAA?AUUnwindMapEntry4@2@XZ 0000000180021370 f i libvcruntimed:frame.obj
 0001:000203f0       ??Eiterator@HandlerMap4@FH4@@QEAAAEAV012@XZ 00000001800213f0 f i libvcruntimed:frame.obj
 0001:00020430       ??Eiterator@HandlerMap@__FrameHandler3@@QEAAAEAV012@XZ 0000000180021430 f i libvcruntimed:frame.obj
 0001:00020450       ??Eiterator@TryBlockMap@__FrameHandler3@@QEAAAEAV012@XZ 0000000180021450 f i libvcruntimed:frame.obj
 0001:00020470       ??Eiterator@UWMap4@FH4@@QEAAAEAV012@XZ 0000000180021470 f i libvcruntimed:frame.obj
 0001:000204b0       ??Giterator@UWMap4@FH4@@QEBA_JAEBV012@@Z 00000001800214b0 f i libvcruntimed:frame.obj
 0001:000204d0       ??Miterator@TryBlockMap4@FH4@@QEBA_NAEBV012@@Z 00000001800214d0 f i libvcruntimed:frame.obj
 0001:00020510       ??Miterator@TryBlockMap@__FrameHandler3@@QEBA_NAEBV012@@Z 0000000180021510 f i libvcruntimed:frame.obj
 0001:00020550       ??Oiterator@UWMap4@FH4@@QEBA_NAEBV012@@Z 0000000180021550 f i libvcruntimed:frame.obj
 0001:00020590       ??Piterator@UWMap4@FH4@@QEBA_NAEBV012@@Z 0000000180021590 f i libvcruntimed:frame.obj
 0001:000205d0       ??_Ebad_exception@std@@UEAAPEAXI@Z 00000001800215d0 f i libvcruntimed:frame.obj
 0001:000205d0       ??_Gbad_exception@std@@UEAAPEAXI@Z 00000001800215d0 f i libvcruntimed:frame.obj
 0001:00020610       ??_Eexception@std@@UEAAPEAXI@Z 0000000180021610 f i libvcruntimed:frame.obj
 0001:00020610       ??_Gexception@std@@UEAAPEAXI@Z 0000000180021610 f i libvcruntimed:frame.obj
 0001:00020650       ?BuildCatchObject@__FrameHandler3@@SAXPEAUEHExceptionRecord@@PEAXPEBU_s_HandlerType@@PEBU_s_CatchableType@@@Z 0000000180021650 f   libvcruntimed:frame.obj
 0001:00020690       ?BuildCatchObject@__FrameHandler4@@SAXPEAUEHExceptionRecord@@PEAXPEAUHandlerType4@FH4@@PEBU_s_CatchableType@@@Z 0000000180021690 f   libvcruntimed:frame.obj
 0001:000206d0       ?BuildCatchObjectHelper@__FrameHandler3@@SAHPEAUEHExceptionRecord@@PEAXPEBU_s_HandlerType@@PEBU_s_CatchableType@@@Z 00000001800216d0 f   libvcruntimed:frame.obj
 0001:00020710       ?BuildCatchObjectHelper@__FrameHandler4@@SAHPEAUEHExceptionRecord@@PEAXPEAUHandlerType4@FH4@@PEBU_s_CatchableType@@@Z 0000000180021710 f   libvcruntimed:frame.obj
 0001:00020750       ?CxxCallCatchBlock@__FrameHandler3@@SAPEAXPEAU_EXCEPTION_RECORD@@@Z 0000000180021750 f   libvcruntimed:frame.obj
 0001:000209b0       ?CxxCallCatchBlock@__FrameHandler4@@SAPEAXPEAU_EXCEPTION_RECORD@@@Z 00000001800219b0 f   libvcruntimed:frame.obj
 0001:00020ce0       ?DecompHandler@HandlerMap4@FH4@@AEAAXXZ 0000000180021ce0 f i libvcruntimed:frame.obj
 0001:000210b0       ?FrameUnwindToState@__FrameHandler3@@SAXPEA_KPEAU_xDISPATCHER_CONTEXT@@PEBU_s_FuncInfo@@H@Z 00000001800220b0 f   libvcruntimed:frame.obj
 0001:00021300       ?FrameUnwindToState@__FrameHandler4@@SAXPEA_KPEAU_xDISPATCHER_CONTEXT@@PEAUFuncInfo4@FH4@@H@Z 0000000180022300 f   libvcruntimed:frame.obj
 0001:00021620       ?GetHandlerSearchState@__FrameHandler3@@SAHPEA_KPEAU_xDISPATCHER_CONTEXT@@PEBU_s_FuncInfo@@@Z 0000000180022620 f i libvcruntimed:frame.obj
 0001:000216d0       ?GetHandlerSearchState@__FrameHandler4@@SAHPEA_KPEAU_xDISPATCHER_CONTEXT@@PEAUFuncInfo4@FH4@@@Z 00000001800226d0 f i libvcruntimed:frame.obj
 0001:00021760       ?GetMaxState@__FrameHandler3@@SAHPEAU_xDISPATCHER_CONTEXT@@PEBU_s_FuncInfo@@@Z 0000000180022760 f i libvcruntimed:frame.obj
 0001:00021780       ?GetMaxState@__FrameHandler4@@SAHPEAU_xDISPATCHER_CONTEXT@@PEAUFuncInfo4@FH4@@@Z 0000000180022780 f i libvcruntimed:frame.obj
 0001:000219b0       ?ReadEntry@UWMap4@FH4@@AEAAXPEAPEAE@Z 00000001800229b0 f i libvcruntimed:frame.obj
 0001:00021a60       ?TypeMatch@__FrameHandler3@@SAHPEBU_s_HandlerType@@PEBU_s_CatchableType@@PEBU_s_ThrowInfo@@@Z 0000000180022a60 f   libvcruntimed:frame.obj
 0001:00021a90       ?TypeMatch@__FrameHandler4@@SAHPEAUHandlerType4@FH4@@PEBU_s_CatchableType@@PEBU_s_ThrowInfo@@@Z 0000000180022a90 f   libvcruntimed:frame.obj
 0001:00021ac0       ?WalkBack@UWMap4@FH4@@AEAAXPEAPEAE@Z 0000000180022ac0 f i libvcruntimed:frame.obj
 0001:00021b10       ?WalkBack@iterator@UWMap4@FH4@@QEAAXXZ 0000000180022b10 f i libvcruntimed:frame.obj
 0001:00021b50       ?WalkForward@UWMap4@FH4@@AEAAXPEAPEAE@Z 0000000180022b50 f i libvcruntimed:frame.obj
 0001:00021b80       ?_CallMemberFunction1@@YAXQEAX00@Z 0000000180022b80 f i libvcruntimed:frame.obj
 0001:00021bc0       ?_CallMemberFunction2@@YAXQEAX00H@Z 0000000180022bc0 f i libvcruntimed:frame.obj
 0001:00021c50       ?begin@HandlerMap4@FH4@@QEAA?AViterator@12@XZ 0000000180022c50 f i libvcruntimed:frame.obj
 0001:00021c80       ?begin@HandlerMap@__FrameHandler3@@QEAA?AViterator@12@XZ 0000000180022c80 f i libvcruntimed:frame.obj
 0001:00021cb0       ?begin@UWMap4@FH4@@QEAA?AViterator@12@XZ 0000000180022cb0 f i libvcruntimed:frame.obj
 0001:00021ce0       ?end@HandlerMap4@FH4@@QEAA?AViterator@12@XZ 0000000180022ce0 f i libvcruntimed:frame.obj
 0001:00021d10       ?end@HandlerMap@__FrameHandler3@@QEAA?AViterator@12@XZ 0000000180022d10 f i libvcruntimed:frame.obj
 0001:00021d40       ?getESTypes@__FrameHandler3@@SAPEBU_s_ESTypeList@@PEBU_s_FuncInfo@@@Z 0000000180022d40 f i libvcruntimed:frame.obj
 0001:00021d80       ?getESTypes@__FrameHandler4@@SAPEBU_s_ESTypeList@@PEAUFuncInfo4@FH4@@@Z 0000000180022d80 f i libvcruntimed:frame.obj
 0001:00021d90       ?getLastEntry@HandlerMap4@FH4@@QEAAPEAUHandlerType4@2@XZ 0000000180022d90 f i libvcruntimed:frame.obj
 0001:00021dd0       ?getLastEntry@HandlerMap@__FrameHandler3@@QEAAPEBU_s_HandlerType@@XZ 0000000180022dd0 f i libvcruntimed:frame.obj
 0001:00021df0       ?getMagicNum@__FrameHandler3@@SAIPEBU_s_FuncInfo@@@Z 0000000180022df0 f i libvcruntimed:frame.obj
 0001:00021e10       ?getMagicNum@__FrameHandler4@@SAIPEAUFuncInfo4@FH4@@@Z 0000000180022e10 f i libvcruntimed:frame.obj
 0001:00021e20       ?getNumTryBlocks@TryBlockMap4@FH4@@QEAAIXZ 0000000180022e20 f i libvcruntimed:frame.obj
 0001:00021e30       ?getNumTryBlocks@TryBlockMap@__FrameHandler3@@QEAAIXZ 0000000180022e30 f i libvcruntimed:frame.obj
 0001:00021e50       ?getStartStop@UWMap4@FH4@@QEAAXHHAEAViterator@12@0@Z 0000000180022e50 f i libvcruntimed:frame.obj
 0001:00021f70       ?getStateFromIterators@UWMap4@FH4@@SAHAEBViterator@12@H0H0@Z 0000000180022f70 f i libvcruntimed:frame.obj
 0001:000220b0       ?isEHs@__FrameHandler3@@SA_NPEBU_s_FuncInfo@@@Z 00000001800230b0 f i libvcruntimed:frame.obj
 0001:000220f0       ?isEHs@__FrameHandler4@@SA_NPEAUFuncInfo4@FH4@@@Z 00000001800230f0 f i libvcruntimed:frame.obj
 0001:00022110       ?isNoExcept@__FrameHandler3@@SA_NPEBU_s_FuncInfo@@@Z 0000000180023110 f i libvcruntimed:frame.obj
 0001:00022150       ?isNoExcept@__FrameHandler4@@SA_NPEAUFuncInfo4@FH4@@@Z 0000000180023150 f i libvcruntimed:frame.obj
 0001:00022170       ?reset@HandlerType4@FH4@@QEAAXXZ 0000000180023170 f i libvcruntimed:frame.obj
 0001:000221d0       ?resetBuffer@HandlerMap4@FH4@@QEAAXXZ 00000001800231d0 f i libvcruntimed:frame.obj
 0001:000221f0       ?setBuffer@HandlerMap4@FH4@@QEAAXI@Z 00000001800231f0 f i libvcruntimed:frame.obj
 0001:00022250       ?what@exception@std@@UEBAPEBDXZ 0000000180023250 f i libvcruntimed:frame.obj
 0001:00022290       __BuildCatchObject         0000000180023290 f   libvcruntimed:frame.obj
 0001:000222d0       __BuildCatchObjectHelper   00000001800232d0 f   libvcruntimed:frame.obj
 0001:00022310       __TypeMatch                0000000180023310 f   libvcruntimed:frame.obj
 0001:00022340       __vcrt_EncodePointer       0000000180023340 f i libvcruntimed:frame.obj
 0001:000223a0       _CallSettingFrame          00000001800233a0 f   libvcruntimed:handlers.obj
 0001:000223e0       _CallSettingFrame_LookupContinuationIndex 00000001800233e0 f   libvcruntimed:handlers.obj
 0001:00022410       _CallSettingFrame_NotifyContinuationAddr 0000000180023410 f   libvcruntimed:handlers.obj
 0001:00022440       _CallSettingFrameEncoded   0000000180023440 f   libvcruntimed:handlers.obj
 0001:00022490       ??$?RD@__crt_public_free_policy@@QEBAXQEBD@Z 0000000180023490 f i libvcruntimed:std_exception.obj
 0001:000224b0       ??0?$__crt_unique_heap_ptr@DU__crt_public_free_policy@@@@QEAA@QEAD@Z 00000001800234b0 f i libvcruntimed:std_exception.obj
 0001:000224d0       ??1?$__crt_unique_heap_ptr@DU__crt_public_free_policy@@@@QEAA@XZ 00000001800234d0 f i libvcruntimed:std_exception.obj
 0001:000224f0       ??B?$__crt_unique_heap_ptr@DU__crt_public_free_policy@@@@QEBA_NXZ 00000001800234f0 f i libvcruntimed:std_exception.obj
 0001:00022510       ?detach@?$__crt_unique_heap_ptr@DU__crt_public_free_policy@@@@QEAAPEADXZ 0000000180023510 f i libvcruntimed:std_exception.obj
 0001:00022540       ?get@?$__crt_unique_heap_ptr@DU__crt_public_free_policy@@@@QEBAPEADXZ 0000000180023540 f i libvcruntimed:std_exception.obj
 0001:00022550       ?is_valid@?$__crt_unique_heap_ptr@DU__crt_public_free_policy@@@@QEBA_NXZ 0000000180023550 f i libvcruntimed:std_exception.obj
 0001:00022580       ?release@?$__crt_unique_heap_ptr@DU__crt_public_free_policy@@@@QEAAXXZ 0000000180023580 f i libvcruntimed:std_exception.obj
 0001:000225b0       __std_exception_copy       00000001800235b0 f   libvcruntimed:std_exception.obj
 0001:000226f0       __std_exception_destroy    00000001800236f0 f   libvcruntimed:std_exception.obj
 0001:00022730       _CxxThrowException         0000000180023730 f   libvcruntimed:throw.obj
 0001:00022870       __p__crtDbgFlag            0000000180023870 f   libucrtd:debug_heap.obj
 0001:00022880       __p__crtBreakAlloc         0000000180023880 f   libucrtd:debug_heap.obj
 0001:00022890       _CrtGetAllocHook           0000000180023890 f   libucrtd:debug_heap.obj
 0001:000228a0       _CrtSetAllocHook           00000001800238a0 f   libucrtd:debug_heap.obj
 0001:000228d0       _CrtGetDumpClient          00000001800238d0 f   libucrtd:debug_heap.obj
 0001:000228e0       _CrtSetDumpClient          00000001800238e0 f   libucrtd:debug_heap.obj
 0001:00022910       _CrtCheckMemory            0000000180023910 f   libucrtd:debug_heap.obj
 0001:00022ab0       _CrtDoForAllClientObjects  0000000180023ab0 f   libucrtd:debug_heap.obj
 0001:00022c00       _CrtDumpMemoryLeaks        0000000180023c00 f   libucrtd:debug_heap.obj
 0001:00022ce0       _CrtIsMemoryBlock          0000000180023ce0 f   libucrtd:debug_heap.obj
 0001:00022e20       _CrtIsValidHeapPointer     0000000180023e20 f   libucrtd:debug_heap.obj
 0001:00022e70       _CrtIsValidPointer         0000000180023e70 f   libucrtd:debug_heap.obj
 0001:00022eb0       _CrtMemCheckpoint          0000000180023eb0 f   libucrtd:debug_heap.obj
 0001:00023140       _CrtMemDifference          0000000180024140 f   libucrtd:debug_heap.obj
 0001:000234a0       _CrtMemDumpAllObjectsSince 00000001800244a0 f   libucrtd:debug_heap.obj
 0001:00023500       _CrtMemDumpStatistics      0000000180024500 f   libucrtd:debug_heap.obj
 0001:000236a0       _CrtReportBlockType        00000001800246a0 f   libucrtd:debug_heap.obj
 0001:000236e0       _CrtSetBreakAlloc          00000001800246e0 f   libucrtd:debug_heap.obj
 0001:00023710       _CrtSetDbgFlag             0000000180024710 f   libucrtd:debug_heap.obj
 0001:00023870       _aligned_free_dbg          0000000180024870 f   libucrtd:debug_heap.obj
 0001:00023960       _aligned_malloc_dbg        0000000180024960 f   libucrtd:debug_heap.obj
 0001:000239b0       _aligned_msize_dbg         00000001800249b0 f   libucrtd:debug_heap.obj
 0001:00023b80       _aligned_offset_malloc_dbg 0000000180024b80 f   libucrtd:debug_heap.obj
 0001:00023e70       _aligned_offset_realloc_dbg 0000000180024e70 f   libucrtd:debug_heap.obj
 0001:00024370       _aligned_offset_recalloc_dbg 0000000180025370 f   libucrtd:debug_heap.obj
 0001:00024490       _aligned_realloc_dbg       0000000180025490 f   libucrtd:debug_heap.obj
 0001:000244e0       _aligned_recalloc_dbg      00000001800254e0 f   libucrtd:debug_heap.obj
 0001:00024540       _calloc_dbg                0000000180025540 f   libucrtd:debug_heap.obj
 0001:000245e0       _expand_dbg                00000001800255e0 f   libucrtd:debug_heap.obj
 0001:00024720       _free_dbg                  0000000180025720 f   libucrtd:debug_heap.obj
 0001:00024790       _malloc_dbg                0000000180025790 f   libucrtd:debug_heap.obj
 0001:000247d0       _msize_dbg                 00000001800257d0 f   libucrtd:debug_heap.obj
 0001:00024970       _realloc_dbg               0000000180025970 f   libucrtd:debug_heap.obj
 0001:000249f0       _recalloc_dbg              00000001800259f0 f   libucrtd:debug_heap.obj
 0001:000262d0       _CrtSetDbgBlockType        00000001800272d0 f   libucrtd:debug_heap.obj
 0001:00026f90       ??0_LocaleUpdate@@QEAA@QEAU__crt_locale_pointers@@@Z 0000000180027f90 f i libucrtd:debug_heap.obj
 0001:000270b0       ??1_LocaleUpdate@@QEAA@XZ  00000001800280b0 f i libucrtd:debug_heap.obj
 0001:000270e0       ?GetLocaleT@_LocaleUpdate@@QEAAPEAU__crt_locale_pointers@@XZ 00000001800280e0 f i libucrtd:debug_heap.obj
 0001:000270f0       __acrt_disable_global_locale_sync 00000001800280f0 f i libucrtd:debug_heap.obj
 0001:00027120       __acrt_enable_global_locale_sync 0000000180028120 f i libucrtd:debug_heap.obj
 0001:00027150       __acrt_get_locale_data_prefix 0000000180028150 f i libucrtd:debug_heap.obj
 0001:00027170       __acrt_locale_changed      0000000180028170 f i libucrtd:debug_heap.obj
 0001:000271a0       _chvalidchk_l              00000001800281a0 f i libucrtd:debug_heap.obj
 0001:000271d0       _invoke_watson_if_oneof    00000001800281d0 f i libucrtd:debug_heap.obj
 0001:00027230       _ischartype_l              0000000180028230 f i libucrtd:debug_heap.obj
 0001:000272c0       ??$?RU?$__crt_report_hook_node@D@@@__crt_internal_free_policy@@QEBAXQEBU?$__crt_report_hook_node@D@@@Z 00000001800282c0 f i libucrtd:dbgrpt.obj
 0001:000272f0       ??$?RU?$__crt_report_hook_node@_W@@@__crt_internal_free_policy@@QEBAXQEBU?$__crt_report_hook_node@_W@@@Z 00000001800282f0 f i libucrtd:dbgrpt.obj
 0001:00028570       ??$get_module_file_name@AEAPEAUHINSTANCE__@@AEAY0BAF@DK@?$__crt_char_traits@D@@SAKAEAPEAUHINSTANCE__@@AEAY0BAF@D$$QEAK@Z 0000000180029570 f i libucrtd:dbgrpt.obj
 0001:000285b0       ??$get_module_file_name@AEAPEAUHINSTANCE__@@AEAY0BAF@_WK@?$__crt_char_traits@_W@@SAKAEAPEAUHINSTANCE__@@AEAY0BAF@_W$$QEAK@Z 00000001800295b0 f i libucrtd:dbgrpt.obj
 0001:000285f0       ??$tcscpy_s@AEAY0BAF@D_KPEBD@?$__crt_char_traits@D@@SAHAEAY0BAF@D$$QEA_K$$QEAPEBD@Z 00000001800295f0 f i libucrtd:dbgrpt.obj
 0001:00028630       ??$tcscpy_s@AEAY0BAF@_W_KPEB_W@?$__crt_char_traits@_W@@SAHAEAY0BAF@_W$$QEA_K$$QEAPEB_W@Z 0000000180029630 f i libucrtd:dbgrpt.obj
 0001:00028670       ??$tcslen@AEAY0BAF@D@?$__crt_char_traits@D@@SA_KAEAY0BAF@D@Z 0000000180029670 f i libucrtd:dbgrpt.obj
 0001:00028690       ??$tcslen@AEAY0BAF@_W@?$__crt_char_traits@_W@@SA_KAEAY0BAF@_W@Z 0000000180029690 f i libucrtd:dbgrpt.obj
 0001:000286b0       ??$tcslen@AEBQEBD@?$__crt_char_traits@D@@SA_KAEBQEBD@Z 00000001800296b0 f i libucrtd:dbgrpt.obj
 0001:000286d0       ??$tcslen@AEBQEB_W@?$__crt_char_traits@_W@@SA_KAEBQEB_W@Z 00000001800296d0 f i libucrtd:dbgrpt.obj
 0001:000287d0       ??0?$__crt_unique_heap_ptr@U?$__crt_report_hook_node@D@@U__crt_internal_free_policy@@@@QEAA@QEAU?$__crt_report_hook_node@D@@@Z 00000001800297d0 f i libucrtd:dbgrpt.obj
 0001:000287f0       ??0?$__crt_unique_heap_ptr@U?$__crt_report_hook_node@_W@@U__crt_internal_free_policy@@@@QEAA@QEAU?$__crt_report_hook_node@_W@@@Z 00000001800297f0 f i libucrtd:dbgrpt.obj
 0001:00028810       ??1?$__crt_unique_heap_ptr@U?$__crt_report_hook_node@D@@U__crt_internal_free_policy@@@@QEAA@XZ 0000000180029810 f i libucrtd:dbgrpt.obj
 0001:00028830       ??1?$__crt_unique_heap_ptr@U?$__crt_report_hook_node@_W@@U__crt_internal_free_policy@@@@QEAA@XZ 0000000180029830 f i libucrtd:dbgrpt.obj
 0001:00028850       ??B?$__crt_unique_heap_ptr@U?$__crt_report_hook_node@D@@U__crt_internal_free_policy@@@@QEBA_NXZ 0000000180029850 f i libucrtd:dbgrpt.obj
 0001:00028870       ??B?$__crt_unique_heap_ptr@U?$__crt_report_hook_node@_W@@U__crt_internal_free_policy@@@@QEBA_NXZ 0000000180029870 f i libucrtd:dbgrpt.obj
 0001:00028f90       ?detach@?$__crt_unique_heap_ptr@U?$__crt_report_hook_node@D@@U__crt_internal_free_policy@@@@QEAAPEAU?$__crt_report_hook_node@D@@XZ 0000000180029f90 f i libucrtd:dbgrpt.obj
 0001:00028fc0       ?detach@?$__crt_unique_heap_ptr@U?$__crt_report_hook_node@_W@@U__crt_internal_free_policy@@@@QEAAPEAU?$__crt_report_hook_node@_W@@XZ 0000000180029fc0 f i libucrtd:dbgrpt.obj
 0001:00028ff0       ?get@?$__crt_unique_heap_ptr@U?$__crt_report_hook_node@D@@U__crt_internal_free_policy@@@@QEBAPEAU?$__crt_report_hook_node@D@@XZ 0000000180029ff0 f i libucrtd:dbgrpt.obj
 0001:00029000       ?get@?$__crt_unique_heap_ptr@U?$__crt_report_hook_node@_W@@U__crt_internal_free_policy@@@@QEBAPEAU?$__crt_report_hook_node@_W@@XZ 000000018002a000 f i libucrtd:dbgrpt.obj
 0001:00029070       ?is_valid@?$__crt_unique_heap_ptr@U?$__crt_report_hook_node@D@@U__crt_internal_free_policy@@@@QEBA_NXZ 000000018002a070 f i libucrtd:dbgrpt.obj
 0001:000290a0       ?is_valid@?$__crt_unique_heap_ptr@U?$__crt_report_hook_node@_W@@U__crt_internal_free_policy@@@@QEBA_NXZ 000000018002a0a0 f i libucrtd:dbgrpt.obj
 0001:000290d0       ?release@?$__crt_unique_heap_ptr@U?$__crt_report_hook_node@D@@U__crt_internal_free_policy@@@@QEAAXXZ 000000018002a0d0 f i libucrtd:dbgrpt.obj
 0001:00029100       ?release@?$__crt_unique_heap_ptr@U?$__crt_report_hook_node@_W@@U__crt_internal_free_policy@@@@QEAAXXZ 000000018002a100 f i libucrtd:dbgrpt.obj
 0001:00029130       _CrtDbgReport              000000018002a130 f   libucrtd:dbgrpt.obj
 0001:000291b0       _CrtDbgReportW             000000018002a1b0 f   libucrtd:dbgrpt.obj
 0001:00029230       _CrtSetReportHook2         000000018002a230 f   libucrtd:dbgrpt.obj
 0001:00029250       _CrtSetReportHookW2        000000018002a250 f   libucrtd:dbgrpt.obj
 0001:00029270       __acrt_MessageWindowA      000000018002a270 f   libucrtd:dbgrpt.obj
 0001:000292c0       __acrt_MessageWindowW      000000018002a2c0 f   libucrtd:dbgrpt.obj
 0001:00029310       _invoke_watson_if_error    000000018002a310 f i libucrtd:dbgrpt.obj
 0001:00029360       _snwprintf_s               000000018002a360 f i libucrtd:dbgrpt.obj
 0001:000293e0       _vsnwprintf_s_l            000000018002a3e0 f i libucrtd:dbgrpt.obj
 0001:00029460       _initterm                  000000018002a460 f   libucrtd:initterm.obj
 0001:000294c0       _initterm_e                000000018002a4c0 f   libucrtd:initterm.obj
 0001:000295b0       _seh_filter_dll            000000018002a5b0 f   libucrtd:exception_filter.obj
 0001:000295e0       _seh_filter_exe            000000018002a5e0 f   libucrtd:exception_filter.obj
 0001:000298a0       ??$?B$$A6AXPEAXK0@Z@__crt_fast_encoded_nullptr_t@@QEBAP6AXPEAXK0@ZXZ 000000018002a8a0 f i libucrtd:exit.obj
 0001:00029960       ??$__crt_fast_decode_pointer@P6AXPEAXK0@Z@@YAP6AXPEAXK0@ZQ6AX0K0@Z@Z 000000018002a960 f i libucrtd:exit.obj
 0001:000299a0       ??$__crt_fast_encode_pointer@P6AXPEAXK0@Z@@YAP6AXPEAXK0@ZQ6AX0K0@Z@Z 000000018002a9a0 f i libucrtd:exit.obj
 0001:000299e0       ??$__crt_get_proc_address@P6AXI@Z@@YAP6AXI@ZQEAUHINSTANCE__@@QEBD@Z 000000018002a9e0 f i libucrtd:exit.obj
 0001:00029a10       ??$__crt_interlocked_read@J@@YAJPEDJ@Z 000000018002aa10 f i libucrtd:exit.obj
 0001:00029ac0       ??0?$__crt_unique_handle_t@U__crt_hmodule_traits@@@@QEAA@QEAUHINSTANCE__@@@Z 000000018002aac0 f i libucrtd:exit.obj
 0001:00029ae0       ??1?$__crt_unique_handle_t@U__crt_hmodule_traits@@@@QEAA@XZ 000000018002aae0 f i libucrtd:exit.obj
 0001:00029c50       ?__acrt_select_exit_lock@@YA?AW4__acrt_lock_id@@XZ 000000018002ac50 f i libucrtd:exit.obj
 0001:00029c60       ?__crt_fast_encode_pointer@@YA?AU__crt_fast_encoded_nullptr_t@@$$T@Z 000000018002ac60 f i libucrtd:exit.obj
 0001:00029c80       ?__crt_interlocked_read_32@@YAHPEDH@Z 000000018002ac80 f i libucrtd:exit.obj
 0001:00029ca0       ?__crt_rotate_pointer_value@@YA_K_KH@Z 000000018002aca0 f i libucrtd:exit.obj
 0001:00029ce0       ?close@?$__crt_unique_handle_t@U__crt_hmodule_traits@@@@QEAAXXZ 000000018002ace0 f i libucrtd:exit.obj
 0001:00029d20       ?close@__crt_hmodule_traits@@SA_NPEAUHINSTANCE__@@@Z 000000018002ad20 f i libucrtd:exit.obj
 0001:00029e60       ?get@?$__crt_unique_handle_t@U__crt_hmodule_traits@@@@QEBAPEAUHINSTANCE__@@XZ 000000018002ae60 f i libucrtd:exit.obj
 0001:00029e70       ?get_address_of@?$__crt_unique_handle_t@U__crt_hmodule_traits@@@@QEAAPEAPEAUHINSTANCE__@@XZ 000000018002ae70 f i libucrtd:exit.obj
 0001:00029e80       ?get_invalid_value@__crt_hmodule_traits@@SAPEAUHINSTANCE__@@XZ 000000018002ae80 f i libucrtd:exit.obj
 0001:0002a030       _Exit                      000000018002b030 f   libucrtd:exit.obj
 0001:0002a050       __acrt_initialize_thread_local_exit_callback 000000018002b050 f   libucrtd:exit.obj
 0001:0002a070       _c_exit                    000000018002b070 f   libucrtd:exit.obj
 0001:0002a090       _cexit                     000000018002b090 f   libucrtd:exit.obj
 0001:0002a0b0       _exit                      000000018002b0b0 f   libucrtd:exit.obj
 0001:0002a0d0       _is_c_termination_complete 000000018002b0d0 f   libucrtd:exit.obj
 0001:0002a0f0       _register_thread_local_exe_atexit_callback 000000018002b0f0 f   libucrtd:exit.obj
 0001:0002a140       exit                       000000018002b140 f   libucrtd:exit.obj
 0001:0002a160       quick_exit                 000000018002b160 f   libucrtd:exit.obj
 0001:0002a180       ??$?RE@__crt_internal_free_policy@@QEBAXQEBE@Z 000000018002b180 f i libucrtd:argv_parsing.obj
 0001:0002a1b0       ??$?RPEAD@__crt_internal_free_policy@@QEBAXQEBQEAD@Z 000000018002b1b0 f i libucrtd:argv_parsing.obj
 0001:0002a1e0       ??$?RPEA_W@__crt_internal_free_policy@@QEBAXQEBQEA_W@Z 000000018002b1e0 f i libucrtd:argv_parsing.obj
 0001:0002a930       ??$get_module_file_name@$$TAEAY0BAF@DH@?$__crt_char_traits@D@@SAK$$QEA$$TAEAY0BAF@D$$QEAH@Z 000000018002b930 f i libucrtd:argv_parsing.obj
 0001:0002a970       ??$get_module_file_name@$$TAEAY0BAF@_WH@?$__crt_char_traits@_W@@SAK$$QEA$$TAEAY0BAF@_W$$QEAH@Z 000000018002b970 f i libucrtd:argv_parsing.obj
 0001:0002b390       ??$set_program_name@PEAD@?$__crt_char_traits@D@@SAX$$QEAPEAD@Z 000000018002c390 f i libucrtd:argv_parsing.obj
 0001:0002b3b0       ??$set_program_name@PEA_W@?$__crt_char_traits@_W@@SAX$$QEAPEA_W@Z 000000018002c3b0 f i libucrtd:argv_parsing.obj
 0001:0002b410       ??0?$__crt_unique_heap_ptr@EU__crt_internal_free_policy@@@@QEAA@QEAE@Z 000000018002c410 f i libucrtd:argv_parsing.obj
 0001:0002b430       ??0?$__crt_unique_heap_ptr@PEADU__crt_internal_free_policy@@@@QEAA@QEAPEAD@Z 000000018002c430 f i libucrtd:argv_parsing.obj
 0001:0002b450       ??0?$__crt_unique_heap_ptr@PEA_WU__crt_internal_free_policy@@@@QEAA@QEAPEA_W@Z 000000018002c450 f i libucrtd:argv_parsing.obj
 0001:0002b470       ??1?$__crt_unique_heap_ptr@EU__crt_internal_free_policy@@@@QEAA@XZ 000000018002c470 f i libucrtd:argv_parsing.obj
 0001:0002b490       ??1?$__crt_unique_heap_ptr@PEADU__crt_internal_free_policy@@@@QEAA@XZ 000000018002c490 f i libucrtd:argv_parsing.obj
 0001:0002b4b0       ??1?$__crt_unique_heap_ptr@PEA_WU__crt_internal_free_policy@@@@QEAA@XZ 000000018002c4b0 f i libucrtd:argv_parsing.obj
 0001:0002b4d0       ??B?$__crt_unique_heap_ptr@EU__crt_internal_free_policy@@@@QEBA_NXZ 000000018002c4d0 f i libucrtd:argv_parsing.obj
 0001:0002b5b0       ?detach@?$__crt_unique_heap_ptr@EU__crt_internal_free_policy@@@@QEAAPEAEXZ 000000018002c5b0 f i libucrtd:argv_parsing.obj
 0001:0002b5e0       ?detach@?$__crt_unique_heap_ptr@PEADU__crt_internal_free_policy@@@@QEAAPEAPEADXZ 000000018002c5e0 f i libucrtd:argv_parsing.obj
 0001:0002b610       ?detach@?$__crt_unique_heap_ptr@PEA_WU__crt_internal_free_policy@@@@QEAAPEAPEA_WXZ 000000018002c610 f i libucrtd:argv_parsing.obj
 0001:0002b6d0       ?get@?$__crt_unique_heap_ptr@EU__crt_internal_free_policy@@@@QEBAPEAEXZ 000000018002c6d0 f i libucrtd:argv_parsing.obj
 0001:0002b6e0       ?get@?$__crt_unique_heap_ptr@PEADU__crt_internal_free_policy@@@@QEBAPEAPEADXZ 000000018002c6e0 f i libucrtd:argv_parsing.obj
 0001:0002b6f0       ?get@?$__crt_unique_heap_ptr@PEA_WU__crt_internal_free_policy@@@@QEBAPEAPEA_WXZ 000000018002c6f0 f i libucrtd:argv_parsing.obj
 0001:0002b700       ?get_address_of@?$__crt_unique_heap_ptr@PEADU__crt_internal_free_policy@@@@QEAAPEAPEAPEADXZ 000000018002c700 f i libucrtd:argv_parsing.obj
 0001:0002b710       ?get_address_of@?$__crt_unique_heap_ptr@PEA_WU__crt_internal_free_policy@@@@QEAAPEAPEAPEA_WXZ 000000018002c710 f i libucrtd:argv_parsing.obj
 0001:0002b760       ?is_valid@?$__crt_unique_heap_ptr@EU__crt_internal_free_policy@@@@QEBA_NXZ 000000018002c760 f i libucrtd:argv_parsing.obj
 0001:0002b790       ?release@?$__crt_unique_heap_ptr@EU__crt_internal_free_policy@@@@QEAAXXZ 000000018002c790 f i libucrtd:argv_parsing.obj
 0001:0002b7c0       ?release@?$__crt_unique_heap_ptr@PEADU__crt_internal_free_policy@@@@QEAAXXZ 000000018002c7c0 f i libucrtd:argv_parsing.obj
 0001:0002b7f0       ?release@?$__crt_unique_heap_ptr@PEA_WU__crt_internal_free_policy@@@@QEAAXXZ 000000018002c7f0 f i libucrtd:argv_parsing.obj
 0001:0002b870       __acrt_allocate_buffer_for_argv 000000018002c870 f   libucrtd:argv_parsing.obj
 0001:0002b990       _configure_narrow_argv     000000018002c990 f   libucrtd:argv_parsing.obj
 0001:0002b9b0       _configure_wide_argv       000000018002c9b0 f   libucrtd:argv_parsing.obj
 0001:0002b9d0       _set_pgmptr                000000018002c9d0 f i libucrtd:argv_parsing.obj
 0001:0002b9f0       _set_wpgmptr               000000018002c9f0 f i libucrtd:argv_parsing.obj
 0001:0002ba10       ??$?R_W@__crt_internal_free_policy@@QEBAXQEB_W@Z 000000018002ca10 f i libucrtd:environment_initialization.obj
 0001:0002c3d0       ??$get_environment_from_os@$$V@?$__crt_char_traits@D@@SAPEADXZ 000000018002d3d0 f i libucrtd:environment_initialization.obj
 0001:0002c3e0       ??$get_environment_from_os@$$V@?$__crt_char_traits@_W@@SAPEA_WXZ 000000018002d3e0 f i libucrtd:environment_initialization.obj
 0001:0002c6f0       ??$set_variable_in_environment_nolock@PEADH@?$__crt_char_traits@D@@SAH$$QEAPEAD$$QEAH@Z 000000018002d6f0 f i libucrtd:environment_initialization.obj
 0001:0002c720       ??$set_variable_in_environment_nolock@PEA_WH@?$__crt_char_traits@_W@@SAH$$QEAPEA_W$$QEAH@Z 000000018002d720 f i libucrtd:environment_initialization.obj
 0001:0002c750       ??$tcscpy_s@PEADAEB_KAEAPEAD@?$__crt_char_traits@D@@SAH$$QEAPEADAEB_KAEAPEAD@Z 000000018002d750 f i libucrtd:environment_initialization.obj
 0001:0002c790       ??$tcscpy_s@PEA_WAEB_KAEAPEA_W@?$__crt_char_traits@_W@@SAH$$QEAPEA_WAEB_KAEAPEA_W@Z 000000018002d790 f i libucrtd:environment_initialization.obj
 0001:0002c7d0       ??$tcslen@AEAPEAD@?$__crt_char_traits@D@@SA_KAEAPEAD@Z 000000018002d7d0 f i libucrtd:environment_initialization.obj
 0001:0002c7f0       ??$tcslen@AEAPEA_W@?$__crt_char_traits@_W@@SA_KAEAPEA_W@Z 000000018002d7f0 f i libucrtd:environment_initialization.obj
 0001:0002c810       ??$uninitialize@A6AXAEAPEAPEAD@_E@?$dual_state_global@PEAPEAD@__crt_state_management@@QEAAXA6AXAEAPEAPEAD@_E@Z 000000018002d810 f i libucrtd:environment_initialization.obj
 0001:0002c880       ??$uninitialize@A6AXAEAPEAPEA_W@_E@?$dual_state_global@PEAPEA_W@__crt_state_management@@QEAAXA6AXAEAPEAPEA_W@_E@Z 000000018002d880 f i libucrtd:environment_initialization.obj
 0001:0002c970       ??0?$__crt_unique_heap_ptr@_WU__crt_internal_free_policy@@@@QEAA@QEA_W@Z 000000018002d970 f i libucrtd:environment_initialization.obj
 0001:0002c990       ??1?$__crt_unique_heap_ptr@_WU__crt_internal_free_policy@@@@QEAA@XZ 000000018002d990 f i libucrtd:environment_initialization.obj
 0001:0002c9b0       ??B?$__crt_unique_heap_ptr@PEADU__crt_internal_free_policy@@@@QEBA_NXZ 000000018002d9b0 f i libucrtd:environment_initialization.obj
 0001:0002c9d0       ??B?$__crt_unique_heap_ptr@PEA_WU__crt_internal_free_policy@@@@QEBA_NXZ 000000018002d9d0 f i libucrtd:environment_initialization.obj
 0001:0002c9f0       ??B?$__crt_unique_heap_ptr@_WU__crt_internal_free_policy@@@@QEBA_NXZ 000000018002d9f0 f i libucrtd:environment_initialization.obj
 0001:0002ca10       ?__crt_compute_required_transform_buffer_count@@YA_KIQEBD@Z 000000018002da10 f i libucrtd:environment_initialization.obj
 0001:0002ca50       ?__crt_compute_required_transform_buffer_count@@YA_KIQEB_W@Z 000000018002da50 f i libucrtd:environment_initialization.obj
 0001:0002caa0       ?__crt_transform_string@@YA_KIQEBDQEA_W_K@Z 000000018002daa0 f i libucrtd:environment_initialization.obj
 0001:0002caf0       ?__crt_transform_string@@YA_KIQEB_WQEAD_K@Z 000000018002daf0 f i libucrtd:environment_initialization.obj
 0001:0002cb50       ?detach@?$__crt_unique_heap_ptr@DU__crt_internal_free_policy@@@@QEAAPEADXZ 000000018002db50 f i libucrtd:environment_initialization.obj
 0001:0002cb80       ?detach@?$__crt_unique_heap_ptr@_WU__crt_internal_free_policy@@@@QEAAPEA_WXZ 000000018002db80 f i libucrtd:environment_initialization.obj
 0001:0002cbb0       ?get@?$__crt_unique_heap_ptr@_WU__crt_internal_free_policy@@@@QEBAPEA_WXZ 000000018002dbb0 f i libucrtd:environment_initialization.obj
 0001:0002cbc0       ?get_current_state_index@__crt_state_management@@YA_KXZ 000000018002dbc0 f i libucrtd:environment_initialization.obj
 0001:0002cc50       ?initialize@?$dual_state_global@PEAPEAD@__crt_state_management@@QEAAXQEAPEAD@Z 000000018002dc50 f i libucrtd:environment_initialization.obj
 0001:0002cca0       ?initialize@?$dual_state_global@PEAPEA_W@__crt_state_management@@QEAAXQEAPEA_W@Z 000000018002dca0 f i libucrtd:environment_initialization.obj
 0001:0002ccf0       ?is_valid@?$__crt_unique_heap_ptr@PEADU__crt_internal_free_policy@@@@QEBA_NXZ 000000018002dcf0 f i libucrtd:environment_initialization.obj
 0001:0002cd20       ?is_valid@?$__crt_unique_heap_ptr@PEA_WU__crt_internal_free_policy@@@@QEBA_NXZ 000000018002dd20 f i libucrtd:environment_initialization.obj
 0001:0002cd50       ?is_valid@?$__crt_unique_heap_ptr@_WU__crt_internal_free_policy@@@@QEBA_NXZ 000000018002dd50 f i libucrtd:environment_initialization.obj
 0001:0002cdb0       ?release@?$__crt_unique_heap_ptr@_WU__crt_internal_free_policy@@@@QEAAXXZ 000000018002ddb0 f i libucrtd:environment_initialization.obj
 0001:0002cde0       ?value@?$dual_state_global@PEAPEAD@__crt_state_management@@QEAAAEAPEAPEADXZ 000000018002dde0 f i libucrtd:environment_initialization.obj
 0001:0002ce00       ?value@?$dual_state_global@PEAPEA_W@__crt_state_management@@QEAAAEAPEAPEA_WXZ 000000018002de00 f i libucrtd:environment_initialization.obj
 0001:0002ce20       __dcrt_get_or_create_narrow_environment_nolock 000000018002de20 f   libucrtd:environment_initialization.obj
 0001:0002ce30       __dcrt_get_or_create_wide_environment_nolock 000000018002de30 f   libucrtd:environment_initialization.obj
 0001:0002ce40       __dcrt_uninitialize_environments_nolock 000000018002de40 f   libucrtd:environment_initialization.obj
 0001:0002ce90       __p__environ               000000018002de90 f   libucrtd:environment_initialization.obj
 0001:0002ceb0       __p__wenviron              000000018002deb0 f   libucrtd:environment_initialization.obj
 0001:0002ced0       _get_initial_narrow_environment 000000018002ded0 f   libucrtd:environment_initialization.obj
 0001:0002cee0       _get_initial_wide_environment 000000018002dee0 f   libucrtd:environment_initialization.obj
 0001:0002cef0       _initialize_narrow_environment 000000018002def0 f   libucrtd:environment_initialization.obj
 0001:0002cf00       _initialize_wide_environment 000000018002df00 f   libucrtd:environment_initialization.obj
 0001:0002cf10       ??$?B$$A6AXXZ@__crt_fast_encoded_nullptr_t@@QEBAP6AXXZXZ 000000018002df10 f i libucrtd:onexit.obj
 0001:0002cf30       ??$?BP6AXXZ@__crt_fast_encoded_nullptr_t@@QEBAPEAP6AXXZXZ 000000018002df30 f i libucrtd:onexit.obj
 0001:0002cf50       ??$?RP6AXXZ@__crt_internal_free_policy@@QEBAXQEBQ6AXXZ@Z 000000018002df50 f i libucrtd:onexit.obj
 0001:0002d0e0       ??$__crt_fast_decode_pointer@P6AXXZ@@YAP6AXXZQ6AXXZ@Z 000000018002e0e0 f i libucrtd:onexit.obj
 0001:0002d120       ??$__crt_fast_decode_pointer@PEAP6AXXZ@@YAPEAP6AXXZQEAP6AXXZ@Z 000000018002e120 f i libucrtd:onexit.obj
 0001:0002d160       ??$__crt_fast_encode_pointer@P6AHXZ@@YAP6AHXZQ6AHXZ@Z 000000018002e160 f i libucrtd:onexit.obj
 0001:0002d1a0       ??$__crt_fast_encode_pointer@P6AXXZ@@YAP6AXXZQ6AXXZ@Z 000000018002e1a0 f i libucrtd:onexit.obj
 0001:0002d1e0       ??$__crt_fast_encode_pointer@PEAP6AXXZ@@YAPEAP6AXXZQEAP6AXXZ@Z 000000018002e1e0 f i libucrtd:onexit.obj
 0001:0002d2f0       ??0?$__crt_unique_heap_ptr@P6AXXZU__crt_internal_free_policy@@@@QEAA@QEAP6AXXZ@Z 000000018002e2f0 f i libucrtd:onexit.obj
 0001:0002d310       ??1?$__crt_unique_heap_ptr@P6AXXZU__crt_internal_free_policy@@@@QEAA@XZ 000000018002e310 f i libucrtd:onexit.obj
 0001:0002d330       ??1scoped_global_state_reset@__crt_state_management@@QEAA@XZ 000000018002e330 f i libucrtd:onexit.obj
 0001:0002d930       ?detach@?$__crt_unique_heap_ptr@P6AXXZU__crt_internal_free_policy@@@@QEAAPEAP6AXXZXZ 000000018002e930 f i libucrtd:onexit.obj
 0001:0002d960       ?release@?$__crt_unique_heap_ptr@P6AXXZU__crt_internal_free_policy@@@@QEAAXXZ 000000018002e960 f i libucrtd:onexit.obj
 0001:0002d990       _crt_at_quick_exit         000000018002e990 f   libucrtd:onexit.obj
 0001:0002d9b0       _crt_atexit                000000018002e9b0 f   libucrtd:onexit.obj
 0001:0002d9d0       _execute_onexit_table      000000018002e9d0 f   libucrtd:onexit.obj
 0001:0002da10       _initialize_onexit_table   000000018002ea10 f   libucrtd:onexit.obj
 0001:0002da90       _register_onexit_function  000000018002ea90 f   libucrtd:onexit.obj
 0001:0002dd10       ??$?BX@__crt_fast_encoded_nullptr_t@@QEBAPEAXXZ 000000018002ed10 f i libucrtd:initialization.obj
 0001:0002dd30       ??$__crt_fast_encode_pointer@PEAX@@YAPEAXQEAX@Z 000000018002ed30 f i libucrtd:initialization.obj
 0001:0002de30       ?initialize@?$dual_state_global@PEAU__crt_locale_data@@@__crt_state_management@@QEAAXQEAU__crt_locale_data@@@Z 000000018002ee30 f i libucrtd:initialization.obj
 0001:0002de80       __acrt_initialize          000000018002ee80 f   libucrtd:initialization.obj
 0001:0002deb0       __acrt_thread_attach       000000018002eeb0 f   libucrtd:initialization.obj
 0001:0002ded0       __acrt_thread_detach       000000018002eed0 f   libucrtd:initialization.obj
 0001:0002dee0       __acrt_uninitialize        000000018002eee0 f   libucrtd:initialization.obj
 0001:0002df10       __acrt_uninitialize_critical 000000018002ef10 f   libucrtd:initialization.obj
 0001:0002df70       _get_terminate             000000018002ef70 f   libucrtd:terminate.obj
 0001:0002df90       set_terminate              000000018002ef90 f   libucrtd:terminate.obj
 0001:0002dfd0       terminate                  000000018002efd0 f   libucrtd:terminate.obj
 0001:0002e4f0       strcpy_s                   000000018002f4f0 f   libucrtd:strcpy_s.obj
 0001:0002eb90       strcat_s                   000000018002fb90 f   libucrtd:strcat_s.obj
 0001:0002ebc0       ??$?0AEBV?$stream_output_adapter@D@__crt_stdio_output@@AEB_KAEBQEBDAEAV__crt_cached_ptd_host@@AEBQEAD@?$format_validation_base@DV?$stream_output_adapter@D@__crt_stdio_output@@@__crt_stdio_output@@IEAA@AEBV?$stream_output_adapter@D@1@AEB_KAEBQEBDAEAV__crt_cached_ptd_host@@AEBQEAD@Z 000000018002fbc0 f i libucrtd:output.obj
 0001:0002ec10       ??$?0AEBV?$stream_output_adapter@D@__crt_stdio_output@@AEB_KAEBQEBDAEAV__crt_cached_ptd_host@@AEBQEAD@?$positional_parameter_base@DV?$stream_output_adapter@D@__crt_stdio_output@@@__crt_stdio_output@@IEAA@AEBV?$stream_output_adapter@D@1@AEB_KAEBQEBDAEAV__crt_cached_ptd_host@@AEBQEAD@Z 000000018002fc10 f i libucrtd:output.obj
 0001:0002ecb0       ??$?0AEBV?$stream_output_adapter@D@__crt_stdio_output@@AEB_KAEBQEBDAEAV__crt_cached_ptd_host@@AEBQEAD@?$standard_base@DV?$stream_output_adapter@D@__crt_stdio_output@@@__crt_stdio_output@@IEAA@AEBV?$stream_output_adapter@D@1@AEB_KAEBQEBDAEAV__crt_cached_ptd_host@@AEBQEAD@Z 000000018002fcb0 f i libucrtd:output.obj
 0001:0002ed20       ??$?0AEBV?$stream_output_adapter@_W@__crt_stdio_output@@AEB_KAEBQEB_WAEAV__crt_cached_ptd_host@@AEBQEAD@?$format_validation_base@_WV?$stream_output_adapter@_W@__crt_stdio_output@@@__crt_stdio_output@@IEAA@AEBV?$stream_output_adapter@_W@1@AEB_KAEBQEB_WAEAV__crt_cached_ptd_host@@AEBQEAD@Z 000000018002fd20 f i libucrtd:output.obj
 0001:0002ed70       ??$?0AEBV?$stream_output_adapter@_W@__crt_stdio_output@@AEB_KAEBQEB_WAEAV__crt_cached_ptd_host@@AEBQEAD@?$positional_parameter_base@_WV?$stream_output_adapter@_W@__crt_stdio_output@@@__crt_stdio_output@@IEAA@AEBV?$stream_output_adapter@_W@1@AEB_KAEBQEB_WAEAV__crt_cached_ptd_host@@AEBQEAD@Z 000000018002fd70 f i libucrtd:output.obj
 0001:0002ee10       ??$?0AEBV?$stream_output_adapter@_W@__crt_stdio_output@@AEB_KAEBQEB_WAEAV__crt_cached_ptd_host@@AEBQEAD@?$standard_base@_WV?$stream_output_adapter@_W@__crt_stdio_output@@@__crt_stdio_output@@IEAA@AEBV?$stream_output_adapter@_W@1@AEB_KAEBQEB_WAEAV__crt_cached_ptd_host@@AEBQEAD@Z 000000018002fe10 f i libucrtd:output.obj
 0001:0002ee80       ??$?0AEBV?$string_output_adapter@D@__crt_stdio_output@@AEB_KAEBQEBDAEAV__crt_cached_ptd_host@@AEBQEAD@?$format_validation_base@DV?$string_output_adapter@D@__crt_stdio_output@@@__crt_stdio_output@@IEAA@AEBV?$string_output_adapter@D@1@AEB_KAEBQEBDAEAV__crt_cached_ptd_host@@AEBQEAD@Z 000000018002fe80 f i libucrtd:output.obj
 0001:0002eed0       ??$?0AEBV?$string_output_adapter@D@__crt_stdio_output@@AEB_KAEBQEBDAEAV__crt_cached_ptd_host@@AEBQEAD@?$positional_parameter_base@DV?$string_output_adapter@D@__crt_stdio_output@@@__crt_stdio_output@@IEAA@AEBV?$string_output_adapter@D@1@AEB_KAEBQEBDAEAV__crt_cached_ptd_host@@AEBQEAD@Z 000000018002fed0 f i libucrtd:output.obj
 0001:0002ef70       ??$?0AEBV?$string_output_adapter@D@__crt_stdio_output@@AEB_KAEBQEBDAEAV__crt_cached_ptd_host@@AEBQEAD@?$standard_base@DV?$string_output_adapter@D@__crt_stdio_output@@@__crt_stdio_output@@IEAA@AEBV?$string_output_adapter@D@1@AEB_KAEBQEBDAEAV__crt_cached_ptd_host@@AEBQEAD@Z 000000018002ff70 f i libucrtd:output.obj
 0001:0002efe0       ??$?0AEBV?$string_output_adapter@_W@__crt_stdio_output@@AEB_KAEBQEB_WAEAV__crt_cached_ptd_host@@AEBQEAD@?$format_validation_base@_WV?$string_output_adapter@_W@__crt_stdio_output@@@__crt_stdio_output@@IEAA@AEBV?$string_output_adapter@_W@1@AEB_KAEBQEB_WAEAV__crt_cached_ptd_host@@AEBQEAD@Z 000000018002ffe0 f i libucrtd:output.obj
 0001:0002f030       ??$?0AEBV?$string_output_adapter@_W@__crt_stdio_output@@AEB_KAEBQEB_WAEAV__crt_cached_ptd_host@@AEBQEAD@?$positional_parameter_base@_WV?$string_output_adapter@_W@__crt_stdio_output@@@__crt_stdio_output@@IEAA@AEBV?$string_output_adapter@_W@1@AEB_KAEBQEB_WAEAV__crt_cached_ptd_host@@AEBQEAD@Z 0000000180030030 f i libucrtd:output.obj
 0001:0002f0d0       ??$?0AEBV?$string_output_adapter@_W@__crt_stdio_output@@AEB_KAEBQEB_WAEAV__crt_cached_ptd_host@@AEBQEAD@?$standard_base@_WV?$string_output_adapter@_W@__crt_stdio_output@@@__crt_stdio_output@@IEAA@AEBV?$string_output_adapter@_W@1@AEB_KAEBQEB_WAEAV__crt_cached_ptd_host@@AEBQEAD@Z 00000001800300d0 f i libucrtd:output.obj
 0001:0002f560       ??$_tcstol_internal@DPEAPEAD$0A@@@YAJAEAV__crt_cached_ptd_host@@QEBDQEAPEADH@Z 0000000180030560 f i libucrtd:output.obj
 0001:0002f5b0       ??$_tcstol_internal@_WPEAPEA_W$0A@@@YAJAEAV__crt_cached_ptd_host@@QEB_WQEAPEA_WH@Z 00000001800305b0 f i libucrtd:output.obj
 0001:000335d0       ??$count@D@formatting_buffer@__crt_stdio_output@@QEBA_KXZ 00000001800345d0 f i libucrtd:output.obj
 0001:00033620       ??$count@_W@formatting_buffer@__crt_stdio_output@@QEBA_KXZ 0000000180034620 f i libucrtd:output.obj
 0001:00033670       ??$data@D@formatting_buffer@__crt_stdio_output@@QEAAPEADXZ 0000000180034670 f i libucrtd:output.obj
 0001:000336c0       ??$data@_W@formatting_buffer@__crt_stdio_output@@QEAAPEA_WXZ 00000001800346c0 f i libucrtd:output.obj
 0001:00033710       ??$ensure_buffer_is_big_enough@D@formatting_buffer@__crt_stdio_output@@QEAA_N_KAEAV__crt_cached_ptd_host@@@Z 0000000180034710 f i libucrtd:output.obj
 0001:00033850       ??$ensure_buffer_is_big_enough@_W@formatting_buffer@__crt_stdio_output@@QEAA_N_KAEAV__crt_cached_ptd_host@@@Z 0000000180034850 f i libucrtd:output.obj
 0001:00033990       ??$extract_argument_from_va_list@C_J@?$positional_parameter_base@DV?$stream_output_adapter@D@__crt_stdio_output@@@__crt_stdio_output@@IEAA_NAEA_J@Z 0000000180034990 f i libucrtd:output.obj
 0001:00033b50       ??$extract_argument_from_va_list@C_J@?$positional_parameter_base@DV?$string_output_adapter@D@__crt_stdio_output@@@__crt_stdio_output@@IEAA_NAEA_J@Z 0000000180034b50 f i libucrtd:output.obj
 0001:00033d10       ??$extract_argument_from_va_list@C_J@?$positional_parameter_base@_WV?$stream_output_adapter@_W@__crt_stdio_output@@@__crt_stdio_output@@IEAA_NAEA_J@Z 0000000180034d10 f i libucrtd:output.obj
 0001:00033ed0       ??$extract_argument_from_va_list@C_J@?$positional_parameter_base@_WV?$string_output_adapter@_W@__crt_stdio_output@@@__crt_stdio_output@@IEAA_NAEA_J@Z 0000000180034ed0 f i libucrtd:output.obj
 0001:00034090       ??$extract_argument_from_va_list@C_J@?$standard_base@DV?$stream_output_adapter@D@__crt_stdio_output@@@__crt_stdio_output@@IEAA_NAEA_J@Z 0000000180035090 f i libucrtd:output.obj
 0001:000340d0       ??$extract_argument_from_va_list@C_J@?$standard_base@DV?$string_output_adapter@D@__crt_stdio_output@@@__crt_stdio_output@@IEAA_NAEA_J@Z 00000001800350d0 f i libucrtd:output.obj
 0001:00034110       ??$extract_argument_from_va_list@C_J@?$standard_base@_WV?$stream_output_adapter@_W@__crt_stdio_output@@@__crt_stdio_output@@IEAA_NAEA_J@Z 0000000180035110 f i libucrtd:output.obj
 0001:00034150       ??$extract_argument_from_va_list@C_J@?$standard_base@_WV?$string_output_adapter@_W@__crt_stdio_output@@@__crt_stdio_output@@IEAA_NAEA_J@Z 0000000180035150 f i libucrtd:output.obj
 0001:00034190       ??$extract_argument_from_va_list@E_J@?$positional_parameter_base@DV?$stream_output_adapter@D@__crt_stdio_output@@@__crt_stdio_output@@IEAA_NAEA_J@Z 0000000180035190 f i libucrtd:output.obj
 0001:00034350       ??$extract_argument_from_va_list@E_J@?$positional_parameter_base@DV?$string_output_adapter@D@__crt_stdio_output@@@__crt_stdio_output@@IEAA_NAEA_J@Z 0000000180035350 f i libucrtd:output.obj
 0001:00034510       ??$extract_argument_from_va_list@E_J@?$positional_parameter_base@_WV?$stream_output_adapter@_W@__crt_stdio_output@@@__crt_stdio_output@@IEAA_NAEA_J@Z 0000000180035510 f i libucrtd:output.obj
 0001:000346d0       ??$extract_argument_from_va_list@E_J@?$positional_parameter_base@_WV?$string_output_adapter@_W@__crt_stdio_output@@@__crt_stdio_output@@IEAA_NAEA_J@Z 00000001800356d0 f i libucrtd:output.obj
 0001:00034890       ??$extract_argument_from_va_list@E_J@?$standard_base@DV?$stream_output_adapter@D@__crt_stdio_output@@@__crt_stdio_output@@IEAA_NAEA_J@Z 0000000180035890 f i libucrtd:output.obj
 0001:000348d0       ??$extract_argument_from_va_list@E_J@?$standard_base@DV?$string_output_adapter@D@__crt_stdio_output@@@__crt_stdio_output@@IEAA_NAEA_J@Z 00000001800358d0 f i libucrtd:output.obj
 0001:00034910       ??$extract_argument_from_va_list@E_J@?$standard_base@_WV?$stream_output_adapter@_W@__crt_stdio_output@@@__crt_stdio_output@@IEAA_NAEA_J@Z 0000000180035910 f i libucrtd:output.obj
 0001:00034950       ??$extract_argument_from_va_list@E_J@?$standard_base@_WV?$string_output_adapter@_W@__crt_stdio_output@@@__crt_stdio_output@@IEAA_NAEA_J@Z 0000000180035950 f i libucrtd:output.obj
 0001:00034990       ??$extract_argument_from_va_list@F_J@?$positional_parameter_base@DV?$stream_output_adapter@D@__crt_stdio_output@@@__crt_stdio_output@@IEAA_NAEA_J@Z 0000000180035990 f i libucrtd:output.obj
 0001:00034b50       ??$extract_argument_from_va_list@F_J@?$positional_parameter_base@DV?$string_output_adapter@D@__crt_stdio_output@@@__crt_stdio_output@@IEAA_NAEA_J@Z 0000000180035b50 f i libucrtd:output.obj
 0001:00034d10       ??$extract_argument_from_va_list@F_J@?$positional_parameter_base@_WV?$stream_output_adapter@_W@__crt_stdio_output@@@__crt_stdio_output@@IEAA_NAEA_J@Z 0000000180035d10 f i libucrtd:output.obj
 0001:00034ed0       ??$extract_argument_from_va_list@F_J@?$positional_parameter_base@_WV?$string_output_adapter@_W@__crt_stdio_output@@@__crt_stdio_output@@IEAA_NAEA_J@Z 0000000180035ed0 f i libucrtd:output.obj
 0001:00035090       ??$extract_argument_from_va_list@F_J@?$standard_base@DV?$stream_output_adapter@D@__crt_stdio_output@@@__crt_stdio_output@@IEAA_NAEA_J@Z 0000000180036090 f i libucrtd:output.obj
 0001:000350d0       ??$extract_argument_from_va_list@F_J@?$standard_base@DV?$string_output_adapter@D@__crt_stdio_output@@@__crt_stdio_output@@IEAA_NAEA_J@Z 00000001800360d0 f i libucrtd:output.obj
 0001:00035110       ??$extract_argument_from_va_list@F_J@?$standard_base@_WV?$stream_output_adapter@_W@__crt_stdio_output@@@__crt_stdio_output@@IEAA_NAEA_J@Z 0000000180036110 f i libucrtd:output.obj
 0001:00035150       ??$extract_argument_from_va_list@F_J@?$standard_base@_WV?$string_output_adapter@_W@__crt_stdio_output@@@__crt_stdio_output@@IEAA_NAEA_J@Z 0000000180036150 f i libucrtd:output.obj
 0001:00035190       ??$extract_argument_from_va_list@GD@?$positional_parameter_base@DV?$stream_output_adapter@D@__crt_stdio_output@@@__crt_stdio_output@@IEAA_NAEAD@Z 0000000180036190 f i libucrtd:output.obj
 0001:00035350       ??$extract_argument_from_va_list@GD@?$positional_parameter_base@DV?$string_output_adapter@D@__crt_stdio_output@@@__crt_stdio_output@@IEAA_NAEAD@Z 0000000180036350 f i libucrtd:output.obj
 0001:00035510       ??$extract_argument_from_va_list@GD@?$standard_base@DV?$stream_output_adapter@D@__crt_stdio_output@@@__crt_stdio_output@@IEAA_NAEAD@Z 0000000180036510 f i libucrtd:output.obj
 0001:00035540       ??$extract_argument_from_va_list@GD@?$standard_base@DV?$string_output_adapter@D@__crt_stdio_output@@@__crt_stdio_output@@IEAA_NAEAD@Z 0000000180036540 f i libucrtd:output.obj
 0001:00035570       ??$extract_argument_from_va_list@G_J@?$positional_parameter_base@DV?$stream_output_adapter@D@__crt_stdio_output@@@__crt_stdio_output@@IEAA_NAEA_J@Z 0000000180036570 f i libucrtd:output.obj
 0001:00035730       ??$extract_argument_from_va_list@G_J@?$positional_parameter_base@DV?$string_output_adapter@D@__crt_stdio_output@@@__crt_stdio_output@@IEAA_NAEA_J@Z 0000000180036730 f i libucrtd:output.obj
 0001:000358f0       ??$extract_argument_from_va_list@G_J@?$positional_parameter_base@_WV?$stream_output_adapter@_W@__crt_stdio_output@@@__crt_stdio_output@@IEAA_NAEA_J@Z 00000001800368f0 f i libucrtd:output.obj
 0001:00035ab0       ??$extract_argument_from_va_list@G_J@?$positional_parameter_base@_WV?$string_output_adapter@_W@__crt_stdio_output@@@__crt_stdio_output@@IEAA_NAEA_J@Z 0000000180036ab0 f i libucrtd:output.obj
 0001:00035c70       ??$extract_argument_from_va_list@G_J@?$standard_base@DV?$stream_output_adapter@D@__crt_stdio_output@@@__crt_stdio_output@@IEAA_NAEA_J@Z 0000000180036c70 f i libucrtd:output.obj
 0001:00035cb0       ??$extract_argument_from_va_list@G_J@?$standard_base@DV?$string_output_adapter@D@__crt_stdio_output@@@__crt_stdio_output@@IEAA_NAEA_J@Z 0000000180036cb0 f i libucrtd:output.obj
 0001:00035cf0       ??$extract_argument_from_va_list@G_J@?$standard_base@_WV?$stream_output_adapter@_W@__crt_stdio_output@@@__crt_stdio_output@@IEAA_NAEA_J@Z 0000000180036cf0 f i libucrtd:output.obj
 0001:00035d30       ??$extract_argument_from_va_list@G_J@?$standard_base@_WV?$string_output_adapter@_W@__crt_stdio_output@@@__crt_stdio_output@@IEAA_NAEA_J@Z 0000000180036d30 f i libucrtd:output.obj
 0001:00035d70       ??$extract_argument_from_va_list@H_J@?$positional_parameter_base@DV?$stream_output_adapter@D@__crt_stdio_output@@@__crt_stdio_output@@IEAA_NAEA_J@Z 0000000180036d70 f i libucrtd:output.obj
 0001:00035f30       ??$extract_argument_from_va_list@H_J@?$positional_parameter_base@DV?$string_output_adapter@D@__crt_stdio_output@@@__crt_stdio_output@@IEAA_NAEA_J@Z 0000000180036f30 f i libucrtd:output.obj
 0001:000360f0       ??$extract_argument_from_va_list@H_J@?$positional_parameter_base@_WV?$stream_output_adapter@_W@__crt_stdio_output@@@__crt_stdio_output@@IEAA_NAEA_J@Z 00000001800370f0 f i libucrtd:output.obj
 0001:000362b0       ??$extract_argument_from_va_list@H_J@?$positional_parameter_base@_WV?$string_output_adapter@_W@__crt_stdio_output@@@__crt_stdio_output@@IEAA_NAEA_J@Z 00000001800372b0 f i libucrtd:output.obj
 0001:00036470       ??$extract_argument_from_va_list@H_J@?$standard_base@DV?$stream_output_adapter@D@__crt_stdio_output@@@__crt_stdio_output@@IEAA_NAEA_J@Z 0000000180037470 f i libucrtd:output.obj
 0001:000364a0       ??$extract_argument_from_va_list@H_J@?$standard_base@DV?$string_output_adapter@D@__crt_stdio_output@@@__crt_stdio_output@@IEAA_NAEA_J@Z 00000001800374a0 f i libucrtd:output.obj
 0001:000364d0       ??$extract_argument_from_va_list@H_J@?$standard_base@_WV?$stream_output_adapter@_W@__crt_stdio_output@@@__crt_stdio_output@@IEAA_NAEA_J@Z 00000001800374d0 f i libucrtd:output.obj
 0001:00036500       ??$extract_argument_from_va_list@H_J@?$standard_base@_WV?$string_output_adapter@_W@__crt_stdio_output@@@__crt_stdio_output@@IEAA_NAEA_J@Z 0000000180037500 f i libucrtd:output.obj
 0001:00036530       ??$extract_argument_from_va_list@I_J@?$positional_parameter_base@DV?$stream_output_adapter@D@__crt_stdio_output@@@__crt_stdio_output@@IEAA_NAEA_J@Z 0000000180037530 f i libucrtd:output.obj
 0001:000366f0       ??$extract_argument_from_va_list@I_J@?$positional_parameter_base@DV?$string_output_adapter@D@__crt_stdio_output@@@__crt_stdio_output@@IEAA_NAEA_J@Z 00000001800376f0 f i libucrtd:output.obj
 0001:000368b0       ??$extract_argument_from_va_list@I_J@?$positional_parameter_base@_WV?$stream_output_adapter@_W@__crt_stdio_output@@@__crt_stdio_output@@IEAA_NAEA_J@Z 00000001800378b0 f i libucrtd:output.obj
 0001:00036a70       ??$extract_argument_from_va_list@I_J@?$positional_parameter_base@_WV?$string_output_adapter@_W@__crt_stdio_output@@@__crt_stdio_output@@IEAA_NAEA_J@Z 0000000180037a70 f i libucrtd:output.obj
 0001:00036c30       ??$extract_argument_from_va_list@I_J@?$standard_base@DV?$stream_output_adapter@D@__crt_stdio_output@@@__crt_stdio_output@@IEAA_NAEA_J@Z 0000000180037c30 f i libucrtd:output.obj
 0001:00036c60       ??$extract_argument_from_va_list@I_J@?$standard_base@DV?$string_output_adapter@D@__crt_stdio_output@@@__crt_stdio_output@@IEAA_NAEA_J@Z 0000000180037c60 f i libucrtd:output.obj
 0001:00036c90       ??$extract_argument_from_va_list@I_J@?$standard_base@_WV?$stream_output_adapter@_W@__crt_stdio_output@@@__crt_stdio_output@@IEAA_NAEA_J@Z 0000000180037c90 f i libucrtd:output.obj
 0001:00036cc0       ??$extract_argument_from_va_list@I_J@?$standard_base@_WV?$string_output_adapter@_W@__crt_stdio_output@@@__crt_stdio_output@@IEAA_NAEA_J@Z 0000000180037cc0 f i libucrtd:output.obj
 0001:00036cf0       ??$extract_argument_from_va_list@PEADPEAD@?$positional_parameter_base@DV?$stream_output_adapter@D@__crt_stdio_output@@@__crt_stdio_output@@IEAA_NAEAPEAD@Z 0000000180037cf0 f i libucrtd:output.obj
 0001:00036eb0       ??$extract_argument_from_va_list@PEADPEAD@?$positional_parameter_base@DV?$string_output_adapter@D@__crt_stdio_output@@@__crt_stdio_output@@IEAA_NAEAPEAD@Z 0000000180037eb0 f i libucrtd:output.obj
 0001:00037070       ??$extract_argument_from_va_list@PEADPEAD@?$positional_parameter_base@_WV?$stream_output_adapter@_W@__crt_stdio_output@@@__crt_stdio_output@@IEAA_NAEAPEAD@Z 0000000180038070 f i libucrtd:output.obj
 0001:00037230       ??$extract_argument_from_va_list@PEADPEAD@?$positional_parameter_base@_WV?$string_output_adapter@_W@__crt_stdio_output@@@__crt_stdio_output@@IEAA_NAEAPEAD@Z 0000000180038230 f i libucrtd:output.obj
 0001:000373f0       ??$extract_argument_from_va_list@PEADPEAD@?$standard_base@DV?$stream_output_adapter@D@__crt_stdio_output@@@__crt_stdio_output@@IEAA_NAEAPEAD@Z 00000001800383f0 f i libucrtd:output.obj
 0001:00037420       ??$extract_argument_from_va_list@PEADPEAD@?$standard_base@DV?$string_output_adapter@D@__crt_stdio_output@@@__crt_stdio_output@@IEAA_NAEAPEAD@Z 0000000180038420 f i libucrtd:output.obj
 0001:00037450       ??$extract_argument_from_va_list@PEADPEAD@?$standard_base@_WV?$stream_output_adapter@_W@__crt_stdio_output@@@__crt_stdio_output@@IEAA_NAEAPEAD@Z 0000000180038450 f i libucrtd:output.obj
 0001:00037480       ??$extract_argument_from_va_list@PEADPEAD@?$standard_base@_WV?$string_output_adapter@_W@__crt_stdio_output@@@__crt_stdio_output@@IEAA_NAEAPEAD@Z 0000000180038480 f i libucrtd:output.obj
 0001:000374b0       ??$extract_argument_from_va_list@PEAUansi_string@?1??type_case_Z@?$output_processor@DV?$stream_output_adapter@D@__crt_stdio_output@@V?$format_validation_base@DV?$stream_output_adapter@D@__crt_stdio_output@@@2@@__crt_stdio_output@@AEAA_NXZ@PEAU1?1??234@AEAA_NXZ@@?$standard_base@DV?$stream_output_adapter@D@__crt_stdio_output@@@__crt_stdio_output@@IEAA_NAEAPEAUansi_string@?1??type_case_Z@?$output_processor@DV?$stream_output_adapter@D@__crt_stdio_output@@V?$format_validation_base@DV?$stream_output_adapter@D@__crt_stdio_output@@@2@@1@AEAA_NXZ@@Z 00000001800384b0 f i libucrtd:output.obj
 0001:000374e0       ??$extract_argument_from_va_list@PEAUansi_string@?1??type_case_Z@?$output_processor@DV?$stream_output_adapter@D@__crt_stdio_output@@V?$positional_parameter_base@DV?$stream_output_adapter@D@__crt_stdio_output@@@2@@__crt_stdio_output@@AEAA_NXZ@PEAU1?1??234@AEAA_NXZ@@?$positional_parameter_base@DV?$stream_output_adapter@D@__crt_stdio_output@@@__crt_stdio_output@@IEAA_NAEAPEAUansi_string@?1??type_case_Z@?$output_processor@DV?$stream_output_adapter@D@__crt_stdio_output@@V?$positional_parameter_base@DV?$stream_output_adapter@D@__crt_stdio_output@@@2@@1@AEAA_NXZ@@Z 00000001800384e0 f i libucrtd:output.obj
 0001:000376a0       ??$extract_argument_from_va_list@PEAUansi_string@?1??type_case_Z@?$output_processor@DV?$stream_output_adapter@D@__crt_stdio_output@@V?$positional_parameter_base@DV?$stream_output_adapter@D@__crt_stdio_output@@@2@@__crt_stdio_output@@AEAA_NXZ@PEAU1?1??234@AEAA_NXZ@@?$standard_base@DV?$stream_output_adapter@D@__crt_stdio_output@@@__crt_stdio_output@@IEAA_NAEAPEAUansi_string@?1??type_case_Z@?$output_processor@DV?$stream_output_adapter@D@__crt_stdio_output@@V?$positional_parameter_base@DV?$stream_output_adapter@D@__crt_stdio_output@@@2@@1@AEAA_NXZ@@Z 00000001800386a0 f i libucrtd:output.obj
 0001:000376d0       ??$extract_argument_from_va_list@PEAUansi_string@?1??type_case_Z@?$output_processor@DV?$stream_output_adapter@D@__crt_stdio_output@@V?$standard_base@DV?$stream_output_adapter@D@__crt_stdio_output@@@2@@__crt_stdio_output@@AEAA_NXZ@PEAU1?1??234@AEAA_NXZ@@?$standard_base@DV?$stream_output_adapter@D@__crt_stdio_output@@@__crt_stdio_output@@IEAA_NAEAPEAUansi_string@?1??type_case_Z@?$output_processor@DV?$stream_output_adapter@D@__crt_stdio_output@@V?$standard_base@DV?$stream_output_adapter@D@__crt_stdio_output@@@2@@1@AEAA_NXZ@@Z 00000001800386d0 f i libucrtd:output.obj
 0001:00037700       ??$extract_argument_from_va_list@PEAUansi_string@?1??type_case_Z@?$output_processor@DV?$string_output_adapter@D@__crt_stdio_output@@V?$format_validation_base@DV?$string_output_adapter@D@__crt_stdio_output@@@2@@__crt_stdio_output@@AEAA_NXZ@PEAU1?1??234@AEAA_NXZ@@?$standard_base@DV?$string_output_adapter@D@__crt_stdio_output@@@__crt_stdio_output@@IEAA_NAEAPEAUansi_string@?1??type_case_Z@?$output_processor@DV?$string_output_adapter@D@__crt_stdio_output@@V?$format_validation_base@DV?$string_output_adapter@D@__crt_stdio_output@@@2@@1@AEAA_NXZ@@Z 0000000180038700 f i libucrtd:output.obj
 0001:00037730       ??$extract_argument_from_va_list@PEAUansi_string@?1??type_case_Z@?$output_processor@DV?$string_output_adapter@D@__crt_stdio_output@@V?$positional_parameter_base@DV?$string_output_adapter@D@__crt_stdio_output@@@2@@__crt_stdio_output@@AEAA_NXZ@PEAU1?1??234@AEAA_NXZ@@?$positional_parameter_base@DV?$string_output_adapter@D@__crt_stdio_output@@@__crt_stdio_output@@IEAA_NAEAPEAUansi_string@?1??type_case_Z@?$output_processor@DV?$string_output_adapter@D@__crt_stdio_output@@V?$positional_parameter_base@DV?$string_output_adapter@D@__crt_stdio_output@@@2@@1@AEAA_NXZ@@Z 0000000180038730 f i libucrtd:output.obj
 0001:000378f0       ??$extract_argument_from_va_list@PEAUansi_string@?1??type_case_Z@?$output_processor@DV?$string_output_adapter@D@__crt_stdio_output@@V?$positional_parameter_base@DV?$string_output_adapter@D@__crt_stdio_output@@@2@@__crt_stdio_output@@AEAA_NXZ@PEAU1?1??234@AEAA_NXZ@@?$standard_base@DV?$string_output_adapter@D@__crt_stdio_output@@@__crt_stdio_output@@IEAA_NAEAPEAUansi_string@?1??type_case_Z@?$output_processor@DV?$string_output_adapter@D@__crt_stdio_output@@V?$positional_parameter_base@DV?$string_output_adapter@D@__crt_stdio_output@@@2@@1@AEAA_NXZ@@Z 00000001800388f0 f i libucrtd:output.obj
 0001:00037920       ??$extract_argument_from_va_list@PEAUansi_string@?1??type_case_Z@?$output_processor@DV?$string_output_adapter@D@__crt_stdio_output@@V?$standard_base@DV?$string_output_adapter@D@__crt_stdio_output@@@2@@__crt_stdio_output@@AEAA_NXZ@PEAU1?1??234@AEAA_NXZ@@?$standard_base@DV?$string_output_adapter@D@__crt_stdio_output@@@__crt_stdio_output@@IEAA_NAEAPEAUansi_string@?1??type_case_Z@?$output_processor@DV?$string_output_adapter@D@__crt_stdio_output@@V?$standard_base@DV?$string_output_adapter@D@__crt_stdio_output@@@2@@1@AEAA_NXZ@@Z 0000000180038920 f i libucrtd:output.obj
 0001:00037950       ??$extract_argument_from_va_list@PEAUansi_string@?1??type_case_Z@?$output_processor@_WV?$stream_output_adapter@_W@__crt_stdio_output@@V?$format_validation_base@_WV?$stream_output_adapter@_W@__crt_stdio_output@@@2@@__crt_stdio_output@@AEAA_NXZ@PEAU1?1??234@AEAA_NXZ@@?$standard_base@_WV?$stream_output_adapter@_W@__crt_stdio_output@@@__crt_stdio_output@@IEAA_NAEAPEAUansi_string@?1??type_case_Z@?$output_processor@_WV?$stream_output_adapter@_W@__crt_stdio_output@@V?$format_validation_base@_WV?$stream_output_adapter@_W@__crt_stdio_output@@@2@@1@AEAA_NXZ@@Z 0000000180038950 f i libucrtd:output.obj
 0001:00037980       ??$extract_argument_from_va_list@PEAUansi_string@?1??type_case_Z@?$output_processor@_WV?$stream_output_adapter@_W@__crt_stdio_output@@V?$positional_parameter_base@_WV?$stream_output_adapter@_W@__crt_stdio_output@@@2@@__crt_stdio_output@@AEAA_NXZ@PEAU1?1??234@AEAA_NXZ@@?$positional_parameter_base@_WV?$stream_output_adapter@_W@__crt_stdio_output@@@__crt_stdio_output@@IEAA_NAEAPEAUansi_string@?1??type_case_Z@?$output_processor@_WV?$stream_output_adapter@_W@__crt_stdio_output@@V?$positional_parameter_base@_WV?$stream_output_adapter@_W@__crt_stdio_output@@@2@@1@AEAA_NXZ@@Z 0000000180038980 f i libucrtd:output.obj
 0001:00037b40       ??$extract_argument_from_va_list@PEAUansi_string@?1??type_case_Z@?$output_processor@_WV?$stream_output_adapter@_W@__crt_stdio_output@@V?$positional_parameter_base@_WV?$stream_output_adapter@_W@__crt_stdio_output@@@2@@__crt_stdio_output@@AEAA_NXZ@PEAU1?1??234@AEAA_NXZ@@?$standard_base@_WV?$stream_output_adapter@_W@__crt_stdio_output@@@__crt_stdio_output@@IEAA_NAEAPEAUansi_string@?1??type_case_Z@?$output_processor@_WV?$stream_output_adapter@_W@__crt_stdio_output@@V?$positional_parameter_base@_WV?$stream_output_adapter@_W@__crt_stdio_output@@@2@@1@AEAA_NXZ@@Z 0000000180038b40 f i libucrtd:output.obj
 0001:00037b70       ??$extract_argument_from_va_list@PEAUansi_string@?1??type_case_Z@?$output_processor@_WV?$stream_output_adapter@_W@__crt_stdio_output@@V?$standard_base@_WV?$stream_output_adapter@_W@__crt_stdio_output@@@2@@__crt_stdio_output@@AEAA_NXZ@PEAU1?1??234@AEAA_NXZ@@?$standard_base@_WV?$stream_output_adapter@_W@__crt_stdio_output@@@__crt_stdio_output@@IEAA_NAEAPEAUansi_string@?1??type_case_Z@?$output_processor@_WV?$stream_output_adapter@_W@__crt_stdio_output@@V?$standard_base@_WV?$stream_output_adapter@_W@__crt_stdio_output@@@2@@1@AEAA_NXZ@@Z 0000000180038b70 f i libucrtd:output.obj
 0001:00037ba0       ??$extract_argument_from_va_list@PEAUansi_string@?1??type_case_Z@?$output_processor@_WV?$string_output_adapter@_W@__crt_stdio_output@@V?$format_validation_base@_WV?$string_output_adapter@_W@__crt_stdio_output@@@2@@__crt_stdio_output@@AEAA_NXZ@PEAU1?1??234@AEAA_NXZ@@?$standard_base@_WV?$string_output_adapter@_W@__crt_stdio_output@@@__crt_stdio_output@@IEAA_NAEAPEAUansi_string@?1??type_case_Z@?$output_processor@_WV?$string_output_adapter@_W@__crt_stdio_output@@V?$format_validation_base@_WV?$string_output_adapter@_W@__crt_stdio_output@@@2@@1@AEAA_NXZ@@Z 0000000180038ba0 f i libucrtd:output.obj
 0001:00037bd0       ??$extract_argument_from_va_list@PEAUansi_string@?1??type_case_Z@?$output_processor@_WV?$string_output_adapter@_W@__crt_stdio_output@@V?$positional_parameter_base@_WV?$string_output_adapter@_W@__crt_stdio_output@@@2@@__crt_stdio_output@@AEAA_NXZ@PEAU1?1??234@AEAA_NXZ@@?$positional_parameter_base@_WV?$string_output_adapter@_W@__crt_stdio_output@@@__crt_stdio_output@@IEAA_NAEAPEAUansi_string@?1??type_case_Z@?$output_processor@_WV?$string_output_adapter@_W@__crt_stdio_output@@V?$positional_parameter_base@_WV?$string_output_adapter@_W@__crt_stdio_output@@@2@@1@AEAA_NXZ@@Z 0000000180038bd0 f i libucrtd:output.obj
 0001:00037d90       ??$extract_argument_from_va_list@PEAUansi_string@?1??type_case_Z@?$output_processor@_WV?$string_output_adapter@_W@__crt_stdio_output@@V?$positional_parameter_base@_WV?$string_output_adapter@_W@__crt_stdio_output@@@2@@__crt_stdio_output@@AEAA_NXZ@PEAU1?1??234@AEAA_NXZ@@?$standard_base@_WV?$string_output_adapter@_W@__crt_stdio_output@@@__crt_stdio_output@@IEAA_NAEAPEAUansi_string@?1??type_case_Z@?$output_processor@_WV?$string_output_adapter@_W@__crt_stdio_output@@V?$positional_parameter_base@_WV?$string_output_adapter@_W@__crt_stdio_output@@@2@@1@AEAA_NXZ@@Z 0000000180038d90 f i libucrtd:output.obj
 0001:00037dc0       ??$extract_argument_from_va_list@PEAUansi_string@?1??type_case_Z@?$output_processor@_WV?$string_output_adapter@_W@__crt_stdio_output@@V?$standard_base@_WV?$string_output_adapter@_W@__crt_stdio_output@@@2@@__crt_stdio_output@@AEAA_NXZ@PEAU1?1??234@AEAA_NXZ@@?$standard_base@_WV?$string_output_adapter@_W@__crt_stdio_output@@@__crt_stdio_output@@IEAA_NAEAPEAUansi_string@?1??type_case_Z@?$output_processor@_WV?$string_output_adapter@_W@__crt_stdio_output@@V?$standard_base@_WV?$string_output_adapter@_W@__crt_stdio_output@@@2@@1@AEAA_NXZ@@Z 0000000180038dc0 f i libucrtd:output.obj
 0001:00037df0       ??$extract_argument_from_va_list@PEAXPEAX@?$positional_parameter_base@DV?$stream_output_adapter@D@__crt_stdio_output@@@__crt_stdio_output@@IEAA_NAEAPEAX@Z 0000000180038df0 f i libucrtd:output.obj
 0001:00037fb0       ??$extract_argument_from_va_list@PEAXPEAX@?$positional_parameter_base@DV?$string_output_adapter@D@__crt_stdio_output@@@__crt_stdio_output@@IEAA_NAEAPEAX@Z 0000000180038fb0 f i libucrtd:output.obj
 0001:00038170       ??$extract_argument_from_va_list@PEAXPEAX@?$positional_parameter_base@_WV?$stream_output_adapter@_W@__crt_stdio_output@@@__crt_stdio_output@@IEAA_NAEAPEAX@Z 0000000180039170 f i libucrtd:output.obj
 0001:00038330       ??$extract_argument_from_va_list@PEAXPEAX@?$positional_parameter_base@_WV?$string_output_adapter@_W@__crt_stdio_output@@@__crt_stdio_output@@IEAA_NAEAPEAX@Z 0000000180039330 f i libucrtd:output.obj
 0001:000384f0       ??$extract_argument_from_va_list@PEAXPEAX@?$standard_base@DV?$stream_output_adapter@D@__crt_stdio_output@@@__crt_stdio_output@@IEAA_NAEAPEAX@Z 00000001800394f0 f i libucrtd:output.obj
 0001:00038520       ??$extract_argument_from_va_list@PEAXPEAX@?$standard_base@DV?$string_output_adapter@D@__crt_stdio_output@@@__crt_stdio_output@@IEAA_NAEAPEAX@Z 0000000180039520 f i libucrtd:output.obj
 0001:00038550       ??$extract_argument_from_va_list@PEAXPEAX@?$standard_base@_WV?$stream_output_adapter@_W@__crt_stdio_output@@@__crt_stdio_output@@IEAA_NAEAPEAX@Z 0000000180039550 f i libucrtd:output.obj
 0001:00038580       ??$extract_argument_from_va_list@PEAXPEAX@?$standard_base@_WV?$string_output_adapter@_W@__crt_stdio_output@@@__crt_stdio_output@@IEAA_NAEAPEAX@Z 0000000180039580 f i libucrtd:output.obj
 0001:000385b0       ??$extract_argument_from_va_list@U_CRT_DOUBLE@@U1@@?$positional_parameter_base@DV?$stream_output_adapter@D@__crt_stdio_output@@@__crt_stdio_output@@IEAA_NAEAU_CRT_DOUBLE@@@Z 00000001800395b0 f i libucrtd:output.obj
 0001:000387c0       ??$extract_argument_from_va_list@U_CRT_DOUBLE@@U1@@?$positional_parameter_base@DV?$string_output_adapter@D@__crt_stdio_output@@@__crt_stdio_output@@IEAA_NAEAU_CRT_DOUBLE@@@Z 00000001800397c0 f i libucrtd:output.obj
 0001:000389d0       ??$extract_argument_from_va_list@U_CRT_DOUBLE@@U1@@?$positional_parameter_base@_WV?$stream_output_adapter@_W@__crt_stdio_output@@@__crt_stdio_output@@IEAA_NAEAU_CRT_DOUBLE@@@Z 00000001800399d0 f i libucrtd:output.obj
 0001:00038be0       ??$extract_argument_from_va_list@U_CRT_DOUBLE@@U1@@?$positional_parameter_base@_WV?$string_output_adapter@_W@__crt_stdio_output@@@__crt_stdio_output@@IEAA_NAEAU_CRT_DOUBLE@@@Z 0000000180039be0 f i libucrtd:output.obj
 0001:00038df0       ??$extract_argument_from_va_list@U_CRT_DOUBLE@@U1@@?$standard_base@DV?$stream_output_adapter@D@__crt_stdio_output@@@__crt_stdio_output@@IEAA_NAEAU_CRT_DOUBLE@@@Z 0000000180039df0 f i libucrtd:output.obj
 0001:00038e30       ??$extract_argument_from_va_list@U_CRT_DOUBLE@@U1@@?$standard_base@DV?$string_output_adapter@D@__crt_stdio_output@@@__crt_stdio_output@@IEAA_NAEAU_CRT_DOUBLE@@@Z 0000000180039e30 f i libucrtd:output.obj
 0001:00038e70       ??$extract_argument_from_va_list@U_CRT_DOUBLE@@U1@@?$standard_base@_WV?$stream_output_adapter@_W@__crt_stdio_output@@@__crt_stdio_output@@IEAA_NAEAU_CRT_DOUBLE@@@Z 0000000180039e70 f i libucrtd:output.obj
 0001:00038eb0       ??$extract_argument_from_va_list@U_CRT_DOUBLE@@U1@@?$standard_base@_WV?$string_output_adapter@_W@__crt_stdio_output@@@__crt_stdio_output@@IEAA_NAEAU_CRT_DOUBLE@@@Z 0000000180039eb0 f i libucrtd:output.obj
 0001:00038ef0       ??$extract_argument_from_va_list@_J_J@?$positional_parameter_base@DV?$stream_output_adapter@D@__crt_stdio_output@@@__crt_stdio_output@@IEAA_NAEA_J@Z 0000000180039ef0 f i libucrtd:output.obj
 0001:000390b0       ??$extract_argument_from_va_list@_J_J@?$positional_parameter_base@DV?$string_output_adapter@D@__crt_stdio_output@@@__crt_stdio_output@@IEAA_NAEA_J@Z 000000018003a0b0 f i libucrtd:output.obj
 0001:00039270       ??$extract_argument_from_va_list@_J_J@?$positional_parameter_base@_WV?$stream_output_adapter@_W@__crt_stdio_output@@@__crt_stdio_output@@IEAA_NAEA_J@Z 000000018003a270 f i libucrtd:output.obj
 0001:00039430       ??$extract_argument_from_va_list@_J_J@?$positional_parameter_base@_WV?$string_output_adapter@_W@__crt_stdio_output@@@__crt_stdio_output@@IEAA_NAEA_J@Z 000000018003a430 f i libucrtd:output.obj
 0001:000395f0       ??$extract_argument_from_va_list@_J_J@?$standard_base@DV?$stream_output_adapter@D@__crt_stdio_output@@@__crt_stdio_output@@IEAA_NAEA_J@Z 000000018003a5f0 f i libucrtd:output.obj
 0001:00039620       ??$extract_argument_from_va_list@_J_J@?$standard_base@DV?$string_output_adapter@D@__crt_stdio_output@@@__crt_stdio_output@@IEAA_NAEA_J@Z 000000018003a620 f i libucrtd:output.obj
 0001:00039650       ??$extract_argument_from_va_list@_J_J@?$standard_base@_WV?$stream_output_adapter@_W@__crt_stdio_output@@@__crt_stdio_output@@IEAA_NAEA_J@Z 000000018003a650 f i libucrtd:output.obj
 0001:00039680       ??$extract_argument_from_va_list@_J_J@?$standard_base@_WV?$string_output_adapter@_W@__crt_stdio_output@@@__crt_stdio_output@@IEAA_NAEA_J@Z 000000018003a680 f i libucrtd:output.obj
 0001:000396b0       ??$extract_argument_from_va_list@_K_J@?$positional_parameter_base@DV?$stream_output_adapter@D@__crt_stdio_output@@@__crt_stdio_output@@IEAA_NAEA_J@Z 000000018003a6b0 f i libucrtd:output.obj
 0001:00039870       ??$extract_argument_from_va_list@_K_J@?$positional_parameter_base@DV?$string_output_adapter@D@__crt_stdio_output@@@__crt_stdio_output@@IEAA_NAEA_J@Z 000000018003a870 f i libucrtd:output.obj
 0001:00039a30       ??$extract_argument_from_va_list@_K_J@?$positional_parameter_base@_WV?$stream_output_adapter@_W@__crt_stdio_output@@@__crt_stdio_output@@IEAA_NAEA_J@Z 000000018003aa30 f i libucrtd:output.obj
 0001:00039bf0       ??$extract_argument_from_va_list@_K_J@?$positional_parameter_base@_WV?$string_output_adapter@_W@__crt_stdio_output@@@__crt_stdio_output@@IEAA_NAEA_J@Z 000000018003abf0 f i libucrtd:output.obj
 0001:00039db0       ??$extract_argument_from_va_list@_K_J@?$standard_base@DV?$stream_output_adapter@D@__crt_stdio_output@@@__crt_stdio_output@@IEAA_NAEA_J@Z 000000018003adb0 f i libucrtd:output.obj
 0001:00039de0       ??$extract_argument_from_va_list@_K_J@?$standard_base@DV?$string_output_adapter@D@__crt_stdio_output@@@__crt_stdio_output@@IEAA_NAEA_J@Z 000000018003ade0 f i libucrtd:output.obj
 0001:00039e10       ??$extract_argument_from_va_list@_K_J@?$standard_base@_WV?$stream_output_adapter@_W@__crt_stdio_output@@@__crt_stdio_output@@IEAA_NAEA_J@Z 000000018003ae10 f i libucrtd:output.obj
 0001:00039e40       ??$extract_argument_from_va_list@_K_J@?$standard_base@_WV?$string_output_adapter@_W@__crt_stdio_output@@@__crt_stdio_output@@IEAA_NAEA_J@Z 000000018003ae40 f i libucrtd:output.obj
 0001:00039e70       ??$extract_argument_from_va_list@_W_W@?$positional_parameter_base@DV?$stream_output_adapter@D@__crt_stdio_output@@@__crt_stdio_output@@IEAA_NAEA_W@Z 000000018003ae70 f i libucrtd:output.obj
 0001:0003a030       ??$extract_argument_from_va_list@_W_W@?$positional_parameter_base@DV?$string_output_adapter@D@__crt_stdio_output@@@__crt_stdio_output@@IEAA_NAEA_W@Z 000000018003b030 f i libucrtd:output.obj
 0001:0003a1f0       ??$extract_argument_from_va_list@_W_W@?$positional_parameter_base@_WV?$stream_output_adapter@_W@__crt_stdio_output@@@__crt_stdio_output@@IEAA_NAEA_W@Z 000000018003b1f0 f i libucrtd:output.obj
 0001:0003a3b0       ??$extract_argument_from_va_list@_W_W@?$positional_parameter_base@_WV?$string_output_adapter@_W@__crt_stdio_output@@@__crt_stdio_output@@IEAA_NAEA_W@Z 000000018003b3b0 f i libucrtd:output.obj
 0001:0003a570       ??$extract_argument_from_va_list@_W_W@?$standard_base@DV?$stream_output_adapter@D@__crt_stdio_output@@@__crt_stdio_output@@IEAA_NAEA_W@Z 000000018003b570 f i libucrtd:output.obj
 0001:0003a5a0       ??$extract_argument_from_va_list@_W_W@?$standard_base@DV?$string_output_adapter@D@__crt_stdio_output@@@__crt_stdio_output@@IEAA_NAEA_W@Z 000000018003b5a0 f i libucrtd:output.obj
 0001:0003a5d0       ??$extract_argument_from_va_list@_W_W@?$standard_base@_WV?$stream_output_adapter@_W@__crt_stdio_output@@@__crt_stdio_output@@IEAA_NAEA_W@Z 000000018003b5d0 f i libucrtd:output.obj
 0001:0003a600       ??$extract_argument_from_va_list@_W_W@?$standard_base@_WV?$string_output_adapter@_W@__crt_stdio_output@@@__crt_stdio_output@@IEAA_NAEA_W@Z 000000018003b600 f i libucrtd:output.obj
 0001:0003a630       ??$get_parameter_type@D@?$positional_parameter_base@DV?$stream_output_adapter@D@__crt_stdio_output@@@__crt_stdio_output@@CA?AW4parameter_type@01@PEAD@Z 000000018003b630 f i libucrtd:output.obj
 0001:0003a640       ??$get_parameter_type@D@?$positional_parameter_base@DV?$string_output_adapter@D@__crt_stdio_output@@@__crt_stdio_output@@CA?AW4parameter_type@01@PEAD@Z 000000018003b640 f i libucrtd:output.obj
 0001:0003a650       ??$get_parameter_type@D@?$positional_parameter_base@_WV?$stream_output_adapter@_W@__crt_stdio_output@@@__crt_stdio_output@@CA?AW4parameter_type@01@PEAD@Z 000000018003b650 f i libucrtd:output.obj
 0001:0003a660       ??$get_parameter_type@D@?$positional_parameter_base@_WV?$string_output_adapter@_W@__crt_stdio_output@@@__crt_stdio_output@@CA?AW4parameter_type@01@PEAD@Z 000000018003b660 f i libucrtd:output.obj
 0001:0003a670       ??$get_parameter_type@Uansi_string@?1??type_case_Z@?$output_processor@DV?$stream_output_adapter@D@__crt_stdio_output@@V?$positional_parameter_base@DV?$stream_output_adapter@D@__crt_stdio_output@@@2@@__crt_stdio_output@@AEAA_NXZ@@?$positional_parameter_base@DV?$stream_output_adapter@D@__crt_stdio_output@@@__crt_stdio_output@@CA?AW4parameter_type@01@PEAUansi_string@?1??type_case_Z@?$output_processor@DV?$stream_output_adapter@D@__crt_stdio_output@@V?$positional_parameter_base@DV?$stream_output_adapter@D@__crt_stdio_output@@@2@@1@AEAA_NXZ@@Z 000000018003b670 f i libucrtd:output.obj
 0001:0003a680       ??$get_parameter_type@Uansi_string@?1??type_case_Z@?$output_processor@DV?$string_output_adapter@D@__crt_stdio_output@@V?$positional_parameter_base@DV?$string_output_adapter@D@__crt_stdio_output@@@2@@__crt_stdio_output@@AEAA_NXZ@@?$positional_parameter_base@DV?$string_output_adapter@D@__crt_stdio_output@@@__crt_stdio_output@@CA?AW4parameter_type@01@PEAUansi_string@?1??type_case_Z@?$output_processor@DV?$string_output_adapter@D@__crt_stdio_output@@V?$positional_parameter_base@DV?$string_output_adapter@D@__crt_stdio_output@@@2@@1@AEAA_NXZ@@Z 000000018003b680 f i libucrtd:output.obj
 0001:0003a690       ??$get_parameter_type@Uansi_string@?1??type_case_Z@?$output_processor@_WV?$stream_output_adapter@_W@__crt_stdio_output@@V?$positional_parameter_base@_WV?$stream_output_adapter@_W@__crt_stdio_output@@@2@@__crt_stdio_output@@AEAA_NXZ@@?$positional_parameter_base@_WV?$stream_output_adapter@_W@__crt_stdio_output@@@__crt_stdio_output@@CA?AW4parameter_type@01@PEAUansi_string@?1??type_case_Z@?$output_processor@_WV?$stream_output_adapter@_W@__crt_stdio_output@@V?$positional_parameter_base@_WV?$stream_output_adapter@_W@__crt_stdio_output@@@2@@1@AEAA_NXZ@@Z 000000018003b690 f i libucrtd:output.obj
 0001:0003a6a0       ??$get_parameter_type@Uansi_string@?1??type_case_Z@?$output_processor@_WV?$string_output_adapter@_W@__crt_stdio_output@@V?$positional_parameter_base@_WV?$string_output_adapter@_W@__crt_stdio_output@@@2@@__crt_stdio_output@@AEAA_NXZ@@?$positional_parameter_base@_WV?$string_output_adapter@_W@__crt_stdio_output@@@__crt_stdio_output@@CA?AW4parameter_type@01@PEAUansi_string@?1??type_case_Z@?$output_processor@_WV?$string_output_adapter@_W@__crt_stdio_output@@V?$positional_parameter_base@_WV?$string_output_adapter@_W@__crt_stdio_output@@@2@@1@AEAA_NXZ@@Z 000000018003b6a0 f i libucrtd:output.obj
 0001:0003a6b0       ??$get_parameter_type@X@?$positional_parameter_base@DV?$stream_output_adapter@D@__crt_stdio_output@@@__crt_stdio_output@@CA?AW4parameter_type@01@PEAX@Z 000000018003b6b0 f i libucrtd:output.obj
 0001:0003a6c0       ??$get_parameter_type@X@?$positional_parameter_base@DV?$string_output_adapter@D@__crt_stdio_output@@@__crt_stdio_output@@CA?AW4parameter_type@01@PEAX@Z 000000018003b6c0 f i libucrtd:output.obj
 0001:0003a6d0       ??$get_parameter_type@X@?$positional_parameter_base@_WV?$stream_output_adapter@_W@__crt_stdio_output@@@__crt_stdio_output@@CA?AW4parameter_type@01@PEAX@Z 000000018003b6d0 f i libucrtd:output.obj
 0001:0003a6e0       ??$get_parameter_type@X@?$positional_parameter_base@_WV?$string_output_adapter@_W@__crt_stdio_output@@@__crt_stdio_output@@CA?AW4parameter_type@01@PEAX@Z 000000018003b6e0 f i libucrtd:output.obj
 0001:0003a6f0       ??$is_character_specifier@D@?$positional_parameter_base@DV?$stream_output_adapter@D@__crt_stdio_output@@@__crt_stdio_output@@CA_ND@Z 000000018003b6f0 f i libucrtd:output.obj
 0001:0003a730       ??$is_character_specifier@D@?$positional_parameter_base@DV?$string_output_adapter@D@__crt_stdio_output@@@__crt_stdio_output@@CA_ND@Z 000000018003b730 f i libucrtd:output.obj
 0001:0003a770       ??$is_character_specifier@_W@?$positional_parameter_base@_WV?$stream_output_adapter@_W@__crt_stdio_output@@@__crt_stdio_output@@CA_N_W@Z 000000018003b770 f i libucrtd:output.obj
 0001:0003a7b0       ??$is_character_specifier@_W@?$positional_parameter_base@_WV?$string_output_adapter@_W@__crt_stdio_output@@@__crt_stdio_output@@CA_N_W@Z 000000018003b7b0 f i libucrtd:output.obj
 0001:0003a7f0       ??$is_integral_specifier@D@?$positional_parameter_base@DV?$stream_output_adapter@D@__crt_stdio_output@@@__crt_stdio_output@@CA_ND@Z 000000018003b7f0 f i libucrtd:output.obj
 0001:0003a860       ??$is_integral_specifier@D@?$positional_parameter_base@DV?$string_output_adapter@D@__crt_stdio_output@@@__crt_stdio_output@@CA_ND@Z 000000018003b860 f i libucrtd:output.obj
 0001:0003a8d0       ??$is_integral_specifier@_W@?$positional_parameter_base@_WV?$stream_output_adapter@_W@__crt_stdio_output@@@__crt_stdio_output@@CA_N_W@Z 000000018003b8d0 f i libucrtd:output.obj
 0001:0003a940       ??$is_integral_specifier@_W@?$positional_parameter_base@_WV?$string_output_adapter@_W@__crt_stdio_output@@@__crt_stdio_output@@CA_N_W@Z 000000018003b940 f i libucrtd:output.obj
 0001:0003a9b0       ??$is_overflow_condition@K@__crt_strtox@@YA_NIK@Z 000000018003b9b0 f i libucrtd:output.obj
 0001:0003aa20       ??$is_pointer_specifier@D@?$positional_parameter_base@DV?$stream_output_adapter@D@__crt_stdio_output@@@__crt_stdio_output@@CA_ND@Z 000000018003ba20 f i libucrtd:output.obj
 0001:0003aa50       ??$is_pointer_specifier@D@?$positional_parameter_base@DV?$string_output_adapter@D@__crt_stdio_output@@@__crt_stdio_output@@CA_ND@Z 000000018003ba50 f i libucrtd:output.obj
 0001:0003aa80       ??$is_pointer_specifier@_W@?$positional_parameter_base@_WV?$stream_output_adapter@_W@__crt_stdio_output@@@__crt_stdio_output@@CA_N_W@Z 000000018003ba80 f i libucrtd:output.obj
 0001:0003aab0       ??$is_pointer_specifier@_W@?$positional_parameter_base@_WV?$string_output_adapter@_W@__crt_stdio_output@@@__crt_stdio_output@@CA_N_W@Z 000000018003bab0 f i libucrtd:output.obj
 0001:0003aae0       ??$is_string_specifier@D@?$positional_parameter_base@DV?$stream_output_adapter@D@__crt_stdio_output@@@__crt_stdio_output@@CA_ND@Z 000000018003bae0 f i libucrtd:output.obj
 0001:0003ab20       ??$is_string_specifier@D@?$positional_parameter_base@DV?$string_output_adapter@D@__crt_stdio_output@@@__crt_stdio_output@@CA_ND@Z 000000018003bb20 f i libucrtd:output.obj
 0001:0003ab60       ??$is_string_specifier@_W@?$positional_parameter_base@_WV?$stream_output_adapter@_W@__crt_stdio_output@@@__crt_stdio_output@@CA_N_W@Z 000000018003bb60 f i libucrtd:output.obj
 0001:0003aba0       ??$is_string_specifier@_W@?$positional_parameter_base@_WV?$string_output_adapter@_W@__crt_stdio_output@@@__crt_stdio_output@@CA_N_W@Z 000000018003bba0 f i libucrtd:output.obj
 0001:0003abe0       ??$is_wide_character_specifier@D@__crt_stdio_output@@YA_N_KDW4length_modifier@0@@Z 000000018003bbe0 f i libucrtd:output.obj
 0001:0003ac80       ??$is_wide_character_specifier@_W@__crt_stdio_output@@YA_N_K_WW4length_modifier@0@@Z 000000018003bc80 f i libucrtd:output.obj
 0001:0003ad50       ??$make_c_string_character_source@DPEAPEAD@__crt_strtox@@YA?AV?$c_string_character_source@D@0@QEBDQEAPEAD@Z 000000018003bd50 f i libucrtd:output.obj
 0001:0003ad90       ??$make_c_string_character_source@_WPEAPEA_W@__crt_strtox@@YA?AV?$c_string_character_source@_W@0@QEB_WQEAPEA_W@Z 000000018003bd90 f i libucrtd:output.obj
 0001:0003add0       ??$parse_integer@KV?$c_string_character_source@D@__crt_strtox@@$0A@@__crt_strtox@@YAKAEAV__crt_cached_ptd_host@@V?$c_string_character_source@D@0@H_N@Z 000000018003bdd0 f i libucrtd:output.obj
 0001:0003b250       ??$parse_integer@KV?$c_string_character_source@_W@__crt_strtox@@$0A@@__crt_strtox@@YAKAEAV__crt_cached_ptd_host@@V?$c_string_character_source@_W@0@H_N@Z 000000018003c250 f i libucrtd:output.obj
 0001:0003b6d0       ??$peek_va_arg@C@__crt_stdio_output@@YACPEAD@Z 000000018003c6d0 f i libucrtd:output.obj
 0001:0003b730       ??$peek_va_arg@E@__crt_stdio_output@@YAEPEAD@Z 000000018003c730 f i libucrtd:output.obj
 0001:0003b790       ??$peek_va_arg@F@__crt_stdio_output@@YAFPEAD@Z 000000018003c790 f i libucrtd:output.obj
 0001:0003b7f0       ??$peek_va_arg@G@__crt_stdio_output@@YAGPEAD@Z 000000018003c7f0 f i libucrtd:output.obj
 0001:0003b850       ??$peek_va_arg@H@__crt_stdio_output@@YAHPEAD@Z 000000018003c850 f i libucrtd:output.obj
 0001:0003b8a0       ??$peek_va_arg@I@__crt_stdio_output@@YAIPEAD@Z 000000018003c8a0 f i libucrtd:output.obj
 0001:0003b8f0       ??$peek_va_arg@PEAD@__crt_stdio_output@@YAPEADPEAD@Z 000000018003c8f0 f i libucrtd:output.obj
 0001:0003b950       ??$peek_va_arg@PEAUansi_string@?1??type_case_Z@?$output_processor@DV?$stream_output_adapter@D@__crt_stdio_output@@V?$positional_parameter_base@DV?$stream_output_adapter@D@__crt_stdio_output@@@2@@__crt_stdio_output@@AEAA_NXZ@@__crt_stdio_output@@YAPEAUansi_string@?1??type_case_Z@?$output_processor@DV?$stream_output_adapter@D@__crt_stdio_output@@V?$positional_parameter_base@DV?$stream_output_adapter@D@__crt_stdio_output@@@2@@0@AEAA_NXZ@PEAD@Z 000000018003c950 f i libucrtd:output.obj
 0001:0003b9b0       ??$peek_va_arg@PEAUansi_string@?1??type_case_Z@?$output_processor@DV?$string_output_adapter@D@__crt_stdio_output@@V?$positional_parameter_base@DV?$string_output_adapter@D@__crt_stdio_output@@@2@@__crt_stdio_output@@AEAA_NXZ@@__crt_stdio_output@@YAPEAUansi_string@?1??type_case_Z@?$output_processor@DV?$string_output_adapter@D@__crt_stdio_output@@V?$positional_parameter_base@DV?$string_output_adapter@D@__crt_stdio_output@@@2@@0@AEAA_NXZ@PEAD@Z 000000018003c9b0 f i libucrtd:output.obj
 0001:0003ba10       ??$peek_va_arg@PEAUansi_string@?1??type_case_Z@?$output_processor@_WV?$stream_output_adapter@_W@__crt_stdio_output@@V?$positional_parameter_base@_WV?$stream_output_adapter@_W@__crt_stdio_output@@@2@@__crt_stdio_output@@AEAA_NXZ@@__crt_stdio_output@@YAPEAUansi_string@?1??type_case_Z@?$output_processor@_WV?$stream_output_adapter@_W@__crt_stdio_output@@V?$positional_parameter_base@_WV?$stream_output_adapter@_W@__crt_stdio_output@@@2@@0@AEAA_NXZ@PEAD@Z 000000018003ca10 f i libucrtd:output.obj
 0001:0003ba70       ??$peek_va_arg@PEAUansi_string@?1??type_case_Z@?$output_processor@_WV?$string_output_adapter@_W@__crt_stdio_output@@V?$positional_parameter_base@_WV?$string_output_adapter@_W@__crt_stdio_output@@@2@@__crt_stdio_output@@AEAA_NXZ@@__crt_stdio_output@@YAPEAUansi_string@?1??type_case_Z@?$output_processor@_WV?$string_output_adapter@_W@__crt_stdio_output@@V?$positional_parameter_base@_WV?$string_output_adapter@_W@__crt_stdio_output@@@2@@0@AEAA_NXZ@PEAD@Z 000000018003ca70 f i libucrtd:output.obj
 0001:0003bad0       ??$peek_va_arg@PEAX@__crt_stdio_output@@YAPEAXPEAD@Z 000000018003cad0 f i libucrtd:output.obj
 0001:0003bb30       ??$peek_va_arg@U_CRT_DOUBLE@@@__crt_stdio_output@@YA?AU_CRT_DOUBLE@@PEAD@Z 000000018003cb30 f i libucrtd:output.obj
 0001:0003bb90       ??$peek_va_arg@_J@__crt_stdio_output@@YA_JPEAD@Z 000000018003cb90 f i libucrtd:output.obj
 0001:0003bbf0       ??$peek_va_arg@_K@__crt_stdio_output@@YA_KPEAD@Z 000000018003cbf0 f i libucrtd:output.obj
 0001:0003bc50       ??$peek_va_arg@_W@__crt_stdio_output@@YA_WPEAD@Z 000000018003cc50 f i libucrtd:output.obj
 0001:0003bcb0       ??$puttc_nolock_internal@AEBDPEAU_iobuf@@AEAV__crt_cached_ptd_host@@@?$__crt_char_traits@D@@SAHAEBD$$QEAPEAU_iobuf@@AEAV__crt_cached_ptd_host@@@Z 000000018003ccb0 f i libucrtd:output.obj
 0001:0003bcf0       ??$puttc_nolock_internal@AEB_WPEAU_iobuf@@AEAV__crt_cached_ptd_host@@@?$__crt_char_traits@_W@@SAGAEB_W$$QEAPEAU_iobuf@@AEAV__crt_cached_ptd_host@@@Z 000000018003ccf0 f i libucrtd:output.obj
 0001:0003bd30       ??$read_va_arg@C@__crt_stdio_output@@YACAEAPEAD@Z 000000018003cd30 f i libucrtd:output.obj
 0001:0003bda0       ??$read_va_arg@E@__crt_stdio_output@@YAEAEAPEAD@Z 000000018003cda0 f i libucrtd:output.obj
 0001:0003be10       ??$read_va_arg@F@__crt_stdio_output@@YAFAEAPEAD@Z 000000018003ce10 f i libucrtd:output.obj
 0001:0003be80       ??$read_va_arg@G@__crt_stdio_output@@YAGAEAPEAD@Z 000000018003ce80 f i libucrtd:output.obj
 0001:0003bef0       ??$read_va_arg@H@__crt_stdio_output@@YAHAEAPEAD@Z 000000018003cef0 f i libucrtd:output.obj
 0001:0003bf50       ??$read_va_arg@I@__crt_stdio_output@@YAIAEAPEAD@Z 000000018003cf50 f i libucrtd:output.obj
 0001:0003bfb0       ??$read_va_arg@PEAD@__crt_stdio_output@@YAPEADAEAPEAD@Z 000000018003cfb0 f i libucrtd:output.obj
 0001:0003c020       ??$read_va_arg@PEAUansi_string@?1??type_case_Z@?$output_processor@DV?$stream_output_adapter@D@__crt_stdio_output@@V?$format_validation_base@DV?$stream_output_adapter@D@__crt_stdio_output@@@2@@__crt_stdio_output@@AEAA_NXZ@@__crt_stdio_output@@YAPEAUansi_string@?1??type_case_Z@?$output_processor@DV?$stream_output_adapter@D@__crt_stdio_output@@V?$format_validation_base@DV?$stream_output_adapter@D@__crt_stdio_output@@@2@@0@AEAA_NXZ@AEAPEAD@Z 000000018003d020 f i libucrtd:output.obj
 0001:0003c090       ??$read_va_arg@PEAUansi_string@?1??type_case_Z@?$output_processor@DV?$stream_output_adapter@D@__crt_stdio_output@@V?$positional_parameter_base@DV?$stream_output_adapter@D@__crt_stdio_output@@@2@@__crt_stdio_output@@AEAA_NXZ@@__crt_stdio_output@@YAPEAUansi_string@?1??type_case_Z@?$output_processor@DV?$stream_output_adapter@D@__crt_stdio_output@@V?$positional_parameter_base@DV?$stream_output_adapter@D@__crt_stdio_output@@@2@@0@AEAA_NXZ@AEAPEAD@Z 000000018003d090 f i libucrtd:output.obj
 0001:0003c100       ??$read_va_arg@PEAUansi_string@?1??type_case_Z@?$output_processor@DV?$stream_output_adapter@D@__crt_stdio_output@@V?$standard_base@DV?$stream_output_adapter@D@__crt_stdio_output@@@2@@__crt_stdio_output@@AEAA_NXZ@@__crt_stdio_output@@YAPEAUansi_string@?1??type_case_Z@?$output_processor@DV?$stream_output_adapter@D@__crt_stdio_output@@V?$standard_base@DV?$stream_output_adapter@D@__crt_stdio_output@@@2@@0@AEAA_NXZ@AEAPEAD@Z 000000018003d100 f i libucrtd:output.obj
 0001:0003c170       ??$read_va_arg@PEAUansi_string@?1??type_case_Z@?$output_processor@DV?$string_output_adapter@D@__crt_stdio_output@@V?$format_validation_base@DV?$string_output_adapter@D@__crt_stdio_output@@@2@@__crt_stdio_output@@AEAA_NXZ@@__crt_stdio_output@@YAPEAUansi_string@?1??type_case_Z@?$output_processor@DV?$string_output_adapter@D@__crt_stdio_output@@V?$format_validation_base@DV?$string_output_adapter@D@__crt_stdio_output@@@2@@0@AEAA_NXZ@AEAPEAD@Z 000000018003d170 f i libucrtd:output.obj
 0001:0003c1e0       ??$read_va_arg@PEAUansi_string@?1??type_case_Z@?$output_processor@DV?$string_output_adapter@D@__crt_stdio_output@@V?$positional_parameter_base@DV?$string_output_adapter@D@__crt_stdio_output@@@2@@__crt_stdio_output@@AEAA_NXZ@@__crt_stdio_output@@YAPEAUansi_string@?1??type_case_Z@?$output_processor@DV?$string_output_adapter@D@__crt_stdio_output@@V?$positional_parameter_base@DV?$string_output_adapter@D@__crt_stdio_output@@@2@@0@AEAA_NXZ@AEAPEAD@Z 000000018003d1e0 f i libucrtd:output.obj
 0001:0003c250       ??$read_va_arg@PEAUansi_string@?1??type_case_Z@?$output_processor@DV?$string_output_adapter@D@__crt_stdio_output@@V?$standard_base@DV?$string_output_adapter@D@__crt_stdio_output@@@2@@__crt_stdio_output@@AEAA_NXZ@@__crt_stdio_output@@YAPEAUansi_string@?1??type_case_Z@?$output_processor@DV?$string_output_adapter@D@__crt_stdio_output@@V?$standard_base@DV?$string_output_adapter@D@__crt_stdio_output@@@2@@0@AEAA_NXZ@AEAPEAD@Z 000000018003d250 f i libucrtd:output.obj
 0001:0003c2c0       ??$read_va_arg@PEAUansi_string@?1??type_case_Z@?$output_processor@_WV?$stream_output_adapter@_W@__crt_stdio_output@@V?$format_validation_base@_WV?$stream_output_adapter@_W@__crt_stdio_output@@@2@@__crt_stdio_output@@AEAA_NXZ@@__crt_stdio_output@@YAPEAUansi_string@?1??type_case_Z@?$output_processor@_WV?$stream_output_adapter@_W@__crt_stdio_output@@V?$format_validation_base@_WV?$stream_output_adapter@_W@__crt_stdio_output@@@2@@0@AEAA_NXZ@AEAPEAD@Z 000000018003d2c0 f i libucrtd:output.obj
 0001:0003c330       ??$read_va_arg@PEAUansi_string@?1??type_case_Z@?$output_processor@_WV?$stream_output_adapter@_W@__crt_stdio_output@@V?$positional_parameter_base@_WV?$stream_output_adapter@_W@__crt_stdio_output@@@2@@__crt_stdio_output@@AEAA_NXZ@@__crt_stdio_output@@YAPEAUansi_string@?1??type_case_Z@?$output_processor@_WV?$stream_output_adapter@_W@__crt_stdio_output@@V?$positional_parameter_base@_WV?$stream_output_adapter@_W@__crt_stdio_output@@@2@@0@AEAA_NXZ@AEAPEAD@Z 000000018003d330 f i libucrtd:output.obj
 0001:0003c3a0       ??$read_va_arg@PEAUansi_string@?1??type_case_Z@?$output_processor@_WV?$stream_output_adapter@_W@__crt_stdio_output@@V?$standard_base@_WV?$stream_output_adapter@_W@__crt_stdio_output@@@2@@__crt_stdio_output@@AEAA_NXZ@@__crt_stdio_output@@YAPEAUansi_string@?1??type_case_Z@?$output_processor@_WV?$stream_output_adapter@_W@__crt_stdio_output@@V?$standard_base@_WV?$stream_output_adapter@_W@__crt_stdio_output@@@2@@0@AEAA_NXZ@AEAPEAD@Z 000000018003d3a0 f i libucrtd:output.obj
 0001:0003c410       ??$read_va_arg@PEAUansi_string@?1??type_case_Z@?$output_processor@_WV?$string_output_adapter@_W@__crt_stdio_output@@V?$format_validation_base@_WV?$string_output_adapter@_W@__crt_stdio_output@@@2@@__crt_stdio_output@@AEAA_NXZ@@__crt_stdio_output@@YAPEAUansi_string@?1??type_case_Z@?$output_processor@_WV?$string_output_adapter@_W@__crt_stdio_output@@V?$format_validation_base@_WV?$string_output_adapter@_W@__crt_stdio_output@@@2@@0@AEAA_NXZ@AEAPEAD@Z 000000018003d410 f i libucrtd:output.obj
 0001:0003c480       ??$read_va_arg@PEAUansi_string@?1??type_case_Z@?$output_processor@_WV?$string_output_adapter@_W@__crt_stdio_output@@V?$positional_parameter_base@_WV?$string_output_adapter@_W@__crt_stdio_output@@@2@@__crt_stdio_output@@AEAA_NXZ@@__crt_stdio_output@@YAPEAUansi_string@?1??type_case_Z@?$output_processor@_WV?$string_output_adapter@_W@__crt_stdio_output@@V?$positional_parameter_base@_WV?$string_output_adapter@_W@__crt_stdio_output@@@2@@0@AEAA_NXZ@AEAPEAD@Z 000000018003d480 f i libucrtd:output.obj
 0001:0003c4f0       ??$read_va_arg@PEAUansi_string@?1??type_case_Z@?$output_processor@_WV?$string_output_adapter@_W@__crt_stdio_output@@V?$standard_base@_WV?$string_output_adapter@_W@__crt_stdio_output@@@2@@__crt_stdio_output@@AEAA_NXZ@@__crt_stdio_output@@YAPEAUansi_string@?1??type_case_Z@?$output_processor@_WV?$string_output_adapter@_W@__crt_stdio_output@@V?$standard_base@_WV?$string_output_adapter@_W@__crt_stdio_output@@@2@@0@AEAA_NXZ@AEAPEAD@Z 000000018003d4f0 f i libucrtd:output.obj
 0001:0003c560       ??$read_va_arg@PEAX@__crt_stdio_output@@YAPEAXAEAPEAD@Z 000000018003d560 f i libucrtd:output.obj
 0001:0003c5d0       ??$read_va_arg@U_CRT_DOUBLE@@@__crt_stdio_output@@YA?AU_CRT_DOUBLE@@AEAPEAD@Z 000000018003d5d0 f i libucrtd:output.obj
 0001:0003c640       ??$read_va_arg@_J@__crt_stdio_output@@YA_JAEAPEAD@Z 000000018003d640 f i libucrtd:output.obj
 0001:0003c6b0       ??$read_va_arg@_K@__crt_stdio_output@@YA_KAEAPEAD@Z 000000018003d6b0 f i libucrtd:output.obj
 0001:0003c720       ??$read_va_arg@_W@__crt_stdio_output@@YA_WAEAPEAD@Z 000000018003d720 f i libucrtd:output.obj
 0001:0003c790       ??$scratch_count@D@formatting_buffer@__crt_stdio_output@@QEBA_KXZ 000000018003d790 f i libucrtd:output.obj
 0001:0003c7b0       ??$scratch_data@D@formatting_buffer@__crt_stdio_output@@QEAAPEADXZ 000000018003d7b0 f i libucrtd:output.obj
 0001:0003c820       ??$type_case_integer@$07@?$output_processor@DV?$stream_output_adapter@D@__crt_stdio_output@@V?$format_validation_base@DV?$stream_output_adapter@D@__crt_stdio_output@@@2@@__crt_stdio_output@@AEAA_N_N@Z 000000018003d820 f i libucrtd:output.obj
 0001:0003cca0       ??$type_case_integer@$07@?$output_processor@DV?$stream_output_adapter@D@__crt_stdio_output@@V?$positional_parameter_base@DV?$stream_output_adapter@D@__crt_stdio_output@@@2@@__crt_stdio_output@@AEAA_N_N@Z 000000018003dca0 f i libucrtd:output.obj
 0001:0003d120       ??$type_case_integer@$07@?$output_processor@DV?$stream_output_adapter@D@__crt_stdio_output@@V?$standard_base@DV?$stream_output_adapter@D@__crt_stdio_output@@@2@@__crt_stdio_output@@AEAA_N_N@Z 000000018003e120 f i libucrtd:output.obj
 0001:0003d5a0       ??$type_case_integer@$07@?$output_processor@DV?$string_output_adapter@D@__crt_stdio_output@@V?$format_validation_base@DV?$string_output_adapter@D@__crt_stdio_output@@@2@@__crt_stdio_output@@AEAA_N_N@Z 000000018003e5a0 f i libucrtd:output.obj
 0001:0003da20       ??$type_case_integer@$07@?$output_processor@DV?$string_output_adapter@D@__crt_stdio_output@@V?$positional_parameter_base@DV?$string_output_adapter@D@__crt_stdio_output@@@2@@__crt_stdio_output@@AEAA_N_N@Z 000000018003ea20 f i libucrtd:output.obj
 0001:0003dea0       ??$type_case_integer@$07@?$output_processor@DV?$string_output_adapter@D@__crt_stdio_output@@V?$standard_base@DV?$string_output_adapter@D@__crt_stdio_output@@@2@@__crt_stdio_output@@AEAA_N_N@Z 000000018003eea0 f i libucrtd:output.obj
 0001:0003e320       ??$type_case_integer@$07@?$output_processor@_WV?$stream_output_adapter@_W@__crt_stdio_output@@V?$format_validation_base@_WV?$stream_output_adapter@_W@__crt_stdio_output@@@2@@__crt_stdio_output@@AEAA_N_N@Z 000000018003f320 f i libucrtd:output.obj
 0001:0003e7a0       ??$type_case_integer@$07@?$output_processor@_WV?$stream_output_adapter@_W@__crt_stdio_output@@V?$positional_parameter_base@_WV?$stream_output_adapter@_W@__crt_stdio_output@@@2@@__crt_stdio_output@@AEAA_N_N@Z 000000018003f7a0 f i libucrtd:output.obj
 0001:0003ec20       ??$type_case_integer@$07@?$output_processor@_WV?$stream_output_adapter@_W@__crt_stdio_output@@V?$standard_base@_WV?$stream_output_adapter@_W@__crt_stdio_output@@@2@@__crt_stdio_output@@AEAA_N_N@Z 000000018003fc20 f i libucrtd:output.obj
 0001:0003f0a0       ??$type_case_integer@$07@?$output_processor@_WV?$string_output_adapter@_W@__crt_stdio_output@@V?$format_validation_base@_WV?$string_output_adapter@_W@__crt_stdio_output@@@2@@__crt_stdio_output@@AEAA_N_N@Z 00000001800400a0 f i libucrtd:output.obj
 0001:0003f520       ??$type_case_integer@$07@?$output_processor@_WV?$string_output_adapter@_W@__crt_stdio_output@@V?$positional_parameter_base@_WV?$string_output_adapter@_W@__crt_stdio_output@@@2@@__crt_stdio_output@@AEAA_N_N@Z 0000000180040520 f i libucrtd:output.obj
 0001:0003f9a0       ??$type_case_integer@$07@?$output_processor@_WV?$string_output_adapter@_W@__crt_stdio_output@@V?$standard_base@_WV?$string_output_adapter@_W@__crt_stdio_output@@@2@@__crt_stdio_output@@AEAA_N_N@Z 00000001800409a0 f i libucrtd:output.obj
 0001:0003fe20       ??$type_case_integer@$09@?$output_processor@DV?$stream_output_adapter@D@__crt_stdio_output@@V?$format_validation_base@DV?$stream_output_adapter@D@__crt_stdio_output@@@2@@__crt_stdio_output@@AEAA_N_N@Z 0000000180040e20 f i libucrtd:output.obj
 0001:000402a0       ??$type_case_integer@$09@?$output_processor@DV?$stream_output_adapter@D@__crt_stdio_output@@V?$positional_parameter_base@DV?$stream_output_adapter@D@__crt_stdio_output@@@2@@__crt_stdio_output@@AEAA_N_N@Z 00000001800412a0 f i libucrtd:output.obj
 0001:00040720       ??$type_case_integer@$09@?$output_processor@DV?$stream_output_adapter@D@__crt_stdio_output@@V?$standard_base@DV?$stream_output_adapter@D@__crt_stdio_output@@@2@@__crt_stdio_output@@AEAA_N_N@Z 0000000180041720 f i libucrtd:output.obj
 0001:00040ba0       ??$type_case_integer@$09@?$output_processor@DV?$string_output_adapter@D@__crt_stdio_output@@V?$format_validation_base@DV?$string_output_adapter@D@__crt_stdio_output@@@2@@__crt_stdio_output@@AEAA_N_N@Z 0000000180041ba0 f i libucrtd:output.obj
 0001:00041020       ??$type_case_integer@$09@?$output_processor@DV?$string_output_adapter@D@__crt_stdio_output@@V?$positional_parameter_base@DV?$string_output_adapter@D@__crt_stdio_output@@@2@@__crt_stdio_output@@AEAA_N_N@Z 0000000180042020 f i libucrtd:output.obj
 0001:000414a0       ??$type_case_integer@$09@?$output_processor@DV?$string_output_adapter@D@__crt_stdio_output@@V?$standard_base@DV?$string_output_adapter@D@__crt_stdio_output@@@2@@__crt_stdio_output@@AEAA_N_N@Z 00000001800424a0 f i libucrtd:output.obj
 0001:00041920       ??$type_case_integer@$09@?$output_processor@_WV?$stream_output_adapter@_W@__crt_stdio_output@@V?$format_validation_base@_WV?$stream_output_adapter@_W@__crt_stdio_output@@@2@@__crt_stdio_output@@AEAA_N_N@Z 0000000180042920 f i libucrtd:output.obj
 0001:00041da0       ??$type_case_integer@$09@?$output_processor@_WV?$stream_output_adapter@_W@__crt_stdio_output@@V?$positional_parameter_base@_WV?$stream_output_adapter@_W@__crt_stdio_output@@@2@@__crt_stdio_output@@AEAA_N_N@Z 0000000180042da0 f i libucrtd:output.obj
 0001:00042220       ??$type_case_integer@$09@?$output_processor@_WV?$stream_output_adapter@_W@__crt_stdio_output@@V?$standard_base@_WV?$stream_output_adapter@_W@__crt_stdio_output@@@2@@__crt_stdio_output@@AEAA_N_N@Z 0000000180043220 f i libucrtd:output.obj
 0001:000426a0       ??$type_case_integer@$09@?$output_processor@_WV?$string_output_adapter@_W@__crt_stdio_output@@V?$format_validation_base@_WV?$string_output_adapter@_W@__crt_stdio_output@@@2@@__crt_stdio_output@@AEAA_N_N@Z 00000001800436a0 f i libucrtd:output.obj
 0001:00042b20       ??$type_case_integer@$09@?$output_processor@_WV?$string_output_adapter@_W@__crt_stdio_output@@V?$positional_parameter_base@_WV?$string_output_adapter@_W@__crt_stdio_output@@@2@@__crt_stdio_output@@AEAA_N_N@Z 0000000180043b20 f i libucrtd:output.obj
 0001:00042fa0       ??$type_case_integer@$09@?$output_processor@_WV?$string_output_adapter@_W@__crt_stdio_output@@V?$standard_base@_WV?$string_output_adapter@_W@__crt_stdio_output@@@2@@__crt_stdio_output@@AEAA_N_N@Z 0000000180043fa0 f i libucrtd:output.obj
 0001:00043420       ??$type_case_integer@$0BA@@?$output_processor@DV?$stream_output_adapter@D@__crt_stdio_output@@V?$format_validation_base@DV?$stream_output_adapter@D@__crt_stdio_output@@@2@@__crt_stdio_output@@AEAA_N_N@Z 0000000180044420 f i libucrtd:output.obj
 0001:000438a0       ??$type_case_integer@$0BA@@?$output_processor@DV?$stream_output_adapter@D@__crt_stdio_output@@V?$positional_parameter_base@DV?$stream_output_adapter@D@__crt_stdio_output@@@2@@__crt_stdio_output@@AEAA_N_N@Z 00000001800448a0 f i libucrtd:output.obj
 0001:00043d20       ??$type_case_integer@$0BA@@?$output_processor@DV?$stream_output_adapter@D@__crt_stdio_output@@V?$standard_base@DV?$stream_output_adapter@D@__crt_stdio_output@@@2@@__crt_stdio_output@@AEAA_N_N@Z 0000000180044d20 f i libucrtd:output.obj
 0001:000441a0       ??$type_case_integer@$0BA@@?$output_processor@DV?$string_output_adapter@D@__crt_stdio_output@@V?$format_validation_base@DV?$string_output_adapter@D@__crt_stdio_output@@@2@@__crt_stdio_output@@AEAA_N_N@Z 00000001800451a0 f i libucrtd:output.obj
 0001:00044620       ??$type_case_integer@$0BA@@?$output_processor@DV?$string_output_adapter@D@__crt_stdio_output@@V?$positional_parameter_base@DV?$string_output_adapter@D@__crt_stdio_output@@@2@@__crt_stdio_output@@AEAA_N_N@Z 0000000180045620 f i libucrtd:output.obj
 0001:00044aa0       ??$type_case_integer@$0BA@@?$output_processor@DV?$string_output_adapter@D@__crt_stdio_output@@V?$standard_base@DV?$string_output_adapter@D@__crt_stdio_output@@@2@@__crt_stdio_output@@AEAA_N_N@Z 0000000180045aa0 f i libucrtd:output.obj
 0001:00044f20       ??$type_case_integer@$0BA@@?$output_processor@_WV?$stream_output_adapter@_W@__crt_stdio_output@@V?$format_validation_base@_WV?$stream_output_adapter@_W@__crt_stdio_output@@@2@@__crt_stdio_output@@AEAA_N_N@Z 0000000180045f20 f i libucrtd:output.obj
 0001:000453a0       ??$type_case_integer@$0BA@@?$output_processor@_WV?$stream_output_adapter@_W@__crt_stdio_output@@V?$positional_parameter_base@_WV?$stream_output_adapter@_W@__crt_stdio_output@@@2@@__crt_stdio_output@@AEAA_N_N@Z 00000001800463a0 f i libucrtd:output.obj
 0001:00045820       ??$type_case_integer@$0BA@@?$output_processor@_WV?$stream_output_adapter@_W@__crt_stdio_output@@V?$standard_base@_WV?$stream_output_adapter@_W@__crt_stdio_output@@@2@@__crt_stdio_output@@AEAA_N_N@Z 0000000180046820 f i libucrtd:output.obj
 0001:00045ca0       ??$type_case_integer@$0BA@@?$output_processor@_WV?$string_output_adapter@_W@__crt_stdio_output@@V?$format_validation_base@_WV?$string_output_adapter@_W@__crt_stdio_output@@@2@@__crt_stdio_output@@AEAA_N_N@Z 0000000180046ca0 f i libucrtd:output.obj
 0001:00046120       ??$type_case_integer@$0BA@@?$output_processor@_WV?$string_output_adapter@_W@__crt_stdio_output@@V?$positional_parameter_base@_WV?$string_output_adapter@_W@__crt_stdio_output@@@2@@__crt_stdio_output@@AEAA_N_N@Z 0000000180047120 f i libucrtd:output.obj
 0001:000465a0       ??$type_case_integer@$0BA@@?$output_processor@_WV?$string_output_adapter@_W@__crt_stdio_output@@V?$standard_base@_WV?$string_output_adapter@_W@__crt_stdio_output@@@2@@__crt_stdio_output@@AEAA_N_N@Z 00000001800475a0 f i libucrtd:output.obj
 0001:00046a20       ??$type_case_integer_parse_into_buffer@I$07@?$output_processor@DV?$stream_output_adapter@D@__crt_stdio_output@@V?$format_validation_base@DV?$stream_output_adapter@D@__crt_stdio_output@@@2@@__crt_stdio_output@@AEAAXI_N@Z 0000000180047a20 f i libucrtd:output.obj
 0001:00046b50       ??$type_case_integer_parse_into_buffer@I$07@?$output_processor@DV?$stream_output_adapter@D@__crt_stdio_output@@V?$positional_parameter_base@DV?$stream_output_adapter@D@__crt_stdio_output@@@2@@__crt_stdio_output@@AEAAXI_N@Z 0000000180047b50 f i libucrtd:output.obj
 0001:00046c80       ??$type_case_integer_parse_into_buffer@I$07@?$output_processor@DV?$stream_output_adapter@D@__crt_stdio_output@@V?$standard_base@DV?$stream_output_adapter@D@__crt_stdio_output@@@2@@__crt_stdio_output@@AEAAXI_N@Z 0000000180047c80 f i libucrtd:output.obj
 0001:00046db0       ??$type_case_integer_parse_into_buffer@I$07@?$output_processor@DV?$string_output_adapter@D@__crt_stdio_output@@V?$format_validation_base@DV?$string_output_adapter@D@__crt_stdio_output@@@2@@__crt_stdio_output@@AEAAXI_N@Z 0000000180047db0 f i libucrtd:output.obj
 0001:00046ee0       ??$type_case_integer_parse_into_buffer@I$07@?$output_processor@DV?$string_output_adapter@D@__crt_stdio_output@@V?$positional_parameter_base@DV?$string_output_adapter@D@__crt_stdio_output@@@2@@__crt_stdio_output@@AEAAXI_N@Z 0000000180047ee0 f i libucrtd:output.obj
 0001:00047010       ??$type_case_integer_parse_into_buffer@I$07@?$output_processor@DV?$string_output_adapter@D@__crt_stdio_output@@V?$standard_base@DV?$string_output_adapter@D@__crt_stdio_output@@@2@@__crt_stdio_output@@AEAAXI_N@Z 0000000180048010 f i libucrtd:output.obj
 0001:00047140       ??$type_case_integer_parse_into_buffer@I$07@?$output_processor@_WV?$stream_output_adapter@_W@__crt_stdio_output@@V?$format_validation_base@_WV?$stream_output_adapter@_W@__crt_stdio_output@@@2@@__crt_stdio_output@@AEAAXI_N@Z 0000000180048140 f i libucrtd:output.obj
 0001:00047280       ??$type_case_integer_parse_into_buffer@I$07@?$output_processor@_WV?$stream_output_adapter@_W@__crt_stdio_output@@V?$positional_parameter_base@_WV?$stream_output_adapter@_W@__crt_stdio_output@@@2@@__crt_stdio_output@@AEAAXI_N@Z 0000000180048280 f i libucrtd:output.obj
 0001:000473c0       ??$type_case_integer_parse_into_buffer@I$07@?$output_processor@_WV?$stream_output_adapter@_W@__crt_stdio_output@@V?$standard_base@_WV?$stream_output_adapter@_W@__crt_stdio_output@@@2@@__crt_stdio_output@@AEAAXI_N@Z 00000001800483c0 f i libucrtd:output.obj
 0001:00047500       ??$type_case_integer_parse_into_buffer@I$07@?$output_processor@_WV?$string_output_adapter@_W@__crt_stdio_output@@V?$format_validation_base@_WV?$string_output_adapter@_W@__crt_stdio_output@@@2@@__crt_stdio_output@@AEAAXI_N@Z 0000000180048500 f i libucrtd:output.obj
 0001:00047640       ??$type_case_integer_parse_into_buffer@I$07@?$output_processor@_WV?$string_output_adapter@_W@__crt_stdio_output@@V?$positional_parameter_base@_WV?$string_output_adapter@_W@__crt_stdio_output@@@2@@__crt_stdio_output@@AEAAXI_N@Z 0000000180048640 f i libucrtd:output.obj
 0001:00047780       ??$type_case_integer_parse_into_buffer@I$07@?$output_processor@_WV?$string_output_adapter@_W@__crt_stdio_output@@V?$standard_base@_WV?$string_output_adapter@_W@__crt_stdio_output@@@2@@__crt_stdio_output@@AEAAXI_N@Z 0000000180048780 f i libucrtd:output.obj
 0001:000478c0       ??$type_case_integer_parse_into_buffer@I$09@?$output_processor@DV?$stream_output_adapter@D@__crt_stdio_output@@V?$format_validation_base@DV?$stream_output_adapter@D@__crt_stdio_output@@@2@@__crt_stdio_output@@AEAAXI_N@Z 00000001800488c0 f i libucrtd:output.obj
 0001:000479f0       ??$type_case_integer_parse_into_buffer@I$09@?$output_processor@DV?$stream_output_adapter@D@__crt_stdio_output@@V?$positional_parameter_base@DV?$stream_output_adapter@D@__crt_stdio_output@@@2@@__crt_stdio_output@@AEAAXI_N@Z 00000001800489f0 f i libucrtd:output.obj
 0001:00047b20       ??$type_case_integer_parse_into_buffer@I$09@?$output_processor@DV?$stream_output_adapter@D@__crt_stdio_output@@V?$standard_base@DV?$stream_output_adapter@D@__crt_stdio_output@@@2@@__crt_stdio_output@@AEAAXI_N@Z 0000000180048b20 f i libucrtd:output.obj
 0001:00047c50       ??$type_case_integer_parse_into_buffer@I$09@?$output_processor@DV?$string_output_adapter@D@__crt_stdio_output@@V?$format_validation_base@DV?$string_output_adapter@D@__crt_stdio_output@@@2@@__crt_stdio_output@@AEAAXI_N@Z 0000000180048c50 f i libucrtd:output.obj
 0001:00047d80       ??$type_case_integer_parse_into_buffer@I$09@?$output_processor@DV?$string_output_adapter@D@__crt_stdio_output@@V?$positional_parameter_base@DV?$string_output_adapter@D@__crt_stdio_output@@@2@@__crt_stdio_output@@AEAAXI_N@Z 0000000180048d80 f i libucrtd:output.obj
 0001:00047eb0       ??$type_case_integer_parse_into_buffer@I$09@?$output_processor@DV?$string_output_adapter@D@__crt_stdio_output@@V?$standard_base@DV?$string_output_adapter@D@__crt_stdio_output@@@2@@__crt_stdio_output@@AEAAXI_N@Z 0000000180048eb0 f i libucrtd:output.obj
 0001:00047fe0       ??$type_case_integer_parse_into_buffer@I$09@?$output_processor@_WV?$stream_output_adapter@_W@__crt_stdio_output@@V?$format_validation_base@_WV?$stream_output_adapter@_W@__crt_stdio_output@@@2@@__crt_stdio_output@@AEAAXI_N@Z 0000000180048fe0 f i libucrtd:output.obj
 0001:00048120       ??$type_case_integer_parse_into_buffer@I$09@?$output_processor@_WV?$stream_output_adapter@_W@__crt_stdio_output@@V?$positional_parameter_base@_WV?$stream_output_adapter@_W@__crt_stdio_output@@@2@@__crt_stdio_output@@AEAAXI_N@Z 0000000180049120 f i libucrtd:output.obj
 0001:00048260       ??$type_case_integer_parse_into_buffer@I$09@?$output_processor@_WV?$stream_output_adapter@_W@__crt_stdio_output@@V?$standard_base@_WV?$stream_output_adapter@_W@__crt_stdio_output@@@2@@__crt_stdio_output@@AEAAXI_N@Z 0000000180049260 f i libucrtd:output.obj
 0001:000483a0       ??$type_case_integer_parse_into_buffer@I$09@?$output_processor@_WV?$string_output_adapter@_W@__crt_stdio_output@@V?$format_validation_base@_WV?$string_output_adapter@_W@__crt_stdio_output@@@2@@__crt_stdio_output@@AEAAXI_N@Z 00000001800493a0 f i libucrtd:output.obj
 0001:000484e0       ??$type_case_integer_parse_into_buffer@I$09@?$output_processor@_WV?$string_output_adapter@_W@__crt_stdio_output@@V?$positional_parameter_base@_WV?$string_output_adapter@_W@__crt_stdio_output@@@2@@__crt_stdio_output@@AEAAXI_N@Z 00000001800494e0 f i libucrtd:output.obj
 0001:00048620       ??$type_case_integer_parse_into_buffer@I$09@?$output_processor@_WV?$string_output_adapter@_W@__crt_stdio_output@@V?$standard_base@_WV?$string_output_adapter@_W@__crt_stdio_output@@@2@@__crt_stdio_output@@AEAAXI_N@Z 0000000180049620 f i libucrtd:output.obj
 0001:00048760       ??$type_case_integer_parse_into_buffer@I$0BA@@?$output_processor@DV?$stream_output_adapter@D@__crt_stdio_output@@V?$format_validation_base@DV?$stream_output_adapter@D@__crt_stdio_output@@@2@@__crt_stdio_output@@AEAAXI_N@Z 0000000180049760 f i libucrtd:output.obj
 0001:00048890       ??$type_case_integer_parse_into_buffer@I$0BA@@?$output_processor@DV?$stream_output_adapter@D@__crt_stdio_output@@V?$positional_parameter_base@DV?$stream_output_adapter@D@__crt_stdio_output@@@2@@__crt_stdio_output@@AEAAXI_N@Z 0000000180049890 f i libucrtd:output.obj
 0001:000489c0       ??$type_case_integer_parse_into_buffer@I$0BA@@?$output_processor@DV?$stream_output_adapter@D@__crt_stdio_output@@V?$standard_base@DV?$stream_output_adapter@D@__crt_stdio_output@@@2@@__crt_stdio_output@@AEAAXI_N@Z 00000001800499c0 f i libucrtd:output.obj
 0001:00048af0       ??$type_case_integer_parse_into_buffer@I$0BA@@?$output_processor@DV?$string_output_adapter@D@__crt_stdio_output@@V?$format_validation_base@DV?$string_output_adapter@D@__crt_stdio_output@@@2@@__crt_stdio_output@@AEAAXI_N@Z 0000000180049af0 f i libucrtd:output.obj
 0001:00048c20       ??$type_case_integer_parse_into_buffer@I$0BA@@?$output_processor@DV?$string_output_adapter@D@__crt_stdio_output@@V?$positional_parameter_base@DV?$string_output_adapter@D@__crt_stdio_output@@@2@@__crt_stdio_output@@AEAAXI_N@Z 0000000180049c20 f i libucrtd:output.obj
 0001:00048d50       ??$type_case_integer_parse_into_buffer@I$0BA@@?$output_processor@DV?$string_output_adapter@D@__crt_stdio_output@@V?$standard_base@DV?$string_output_adapter@D@__crt_stdio_output@@@2@@__crt_stdio_output@@AEAAXI_N@Z 0000000180049d50 f i libucrtd:output.obj
 0001:00048e80       ??$type_case_integer_parse_into_buffer@I$0BA@@?$output_processor@_WV?$stream_output_adapter@_W@__crt_stdio_output@@V?$format_validation_base@_WV?$stream_output_adapter@_W@__crt_stdio_output@@@2@@__crt_stdio_output@@AEAAXI_N@Z 0000000180049e80 f i libucrtd:output.obj
 0001:00048fc0       ??$type_case_integer_parse_into_buffer@I$0BA@@?$output_processor@_WV?$stream_output_adapter@_W@__crt_stdio_output@@V?$positional_parameter_base@_WV?$stream_output_adapter@_W@__crt_stdio_output@@@2@@__crt_stdio_output@@AEAAXI_N@Z 0000000180049fc0 f i libucrtd:output.obj
 0001:00049100       ??$type_case_integer_parse_into_buffer@I$0BA@@?$output_processor@_WV?$stream_output_adapter@_W@__crt_stdio_output@@V?$standard_base@_WV?$stream_output_adapter@_W@__crt_stdio_output@@@2@@__crt_stdio_output@@AEAAXI_N@Z 000000018004a100 f i libucrtd:output.obj
 0001:00049240       ??$type_case_integer_parse_into_buffer@I$0BA@@?$output_processor@_WV?$string_output_adapter@_W@__crt_stdio_output@@V?$format_validation_base@_WV?$string_output_adapter@_W@__crt_stdio_output@@@2@@__crt_stdio_output@@AEAAXI_N@Z 000000018004a240 f i libucrtd:output.obj
 0001:00049380       ??$type_case_integer_parse_into_buffer@I$0BA@@?$output_processor@_WV?$string_output_adapter@_W@__crt_stdio_output@@V?$positional_parameter_base@_WV?$string_output_adapter@_W@__crt_stdio_output@@@2@@__crt_stdio_output@@AEAAXI_N@Z 000000018004a380 f i libucrtd:output.obj
 0001:000494c0       ??$type_case_integer_parse_into_buffer@I$0BA@@?$output_processor@_WV?$string_output_adapter@_W@__crt_stdio_output@@V?$standard_base@_WV?$string_output_adapter@_W@__crt_stdio_output@@@2@@__crt_stdio_output@@AEAAXI_N@Z 000000018004a4c0 f i libucrtd:output.obj
 0001:00049600       ??$type_case_integer_parse_into_buffer@_K$07@?$output_processor@DV?$stream_output_adapter@D@__crt_stdio_output@@V?$format_validation_base@DV?$stream_output_adapter@D@__crt_stdio_output@@@2@@__crt_stdio_output@@AEAAX_K_N@Z 000000018004a600 f i libucrtd:output.obj
 0001:00049740       ??$type_case_integer_parse_into_buffer@_K$07@?$output_processor@DV?$stream_output_adapter@D@__crt_stdio_output@@V?$positional_parameter_base@DV?$stream_output_adapter@D@__crt_stdio_output@@@2@@__crt_stdio_output@@AEAAX_K_N@Z 000000018004a740 f i libucrtd:output.obj
 0001:00049880       ??$type_case_integer_parse_into_buffer@_K$07@?$output_processor@DV?$stream_output_adapter@D@__crt_stdio_output@@V?$standard_base@DV?$stream_output_adapter@D@__crt_stdio_output@@@2@@__crt_stdio_output@@AEAAX_K_N@Z 000000018004a880 f i libucrtd:output.obj
 0001:000499c0       ??$type_case_integer_parse_into_buffer@_K$07@?$output_processor@DV?$string_output_adapter@D@__crt_stdio_output@@V?$format_validation_base@DV?$string_output_adapter@D@__crt_stdio_output@@@2@@__crt_stdio_output@@AEAAX_K_N@Z 000000018004a9c0 f i libucrtd:output.obj
 0001:00049b00       ??$type_case_integer_parse_into_buffer@_K$07@?$output_processor@DV?$string_output_adapter@D@__crt_stdio_output@@V?$positional_parameter_base@DV?$string_output_adapter@D@__crt_stdio_output@@@2@@__crt_stdio_output@@AEAAX_K_N@Z 000000018004ab00 f i libucrtd:output.obj
 0001:00049c40       ??$type_case_integer_parse_into_buffer@_K$07@?$output_processor@DV?$string_output_adapter@D@__crt_stdio_output@@V?$standard_base@DV?$string_output_adapter@D@__crt_stdio_output@@@2@@__crt_stdio_output@@AEAAX_K_N@Z 000000018004ac40 f i libucrtd:output.obj
 0001:00049d80       ??$type_case_integer_parse_into_buffer@_K$07@?$output_processor@_WV?$stream_output_adapter@_W@__crt_stdio_output@@V?$format_validation_base@_WV?$stream_output_adapter@_W@__crt_stdio_output@@@2@@__crt_stdio_output@@AEAAX_K_N@Z 000000018004ad80 f i libucrtd:output.obj
 0001:00049ec0       ??$type_case_integer_parse_into_buffer@_K$07@?$output_processor@_WV?$stream_output_adapter@_W@__crt_stdio_output@@V?$positional_parameter_base@_WV?$stream_output_adapter@_W@__crt_stdio_output@@@2@@__crt_stdio_output@@AEAAX_K_N@Z 000000018004aec0 f i libucrtd:output.obj
 0001:0004a000       ??$type_case_integer_parse_into_buffer@_K$07@?$output_processor@_WV?$stream_output_adapter@_W@__crt_stdio_output@@V?$standard_base@_WV?$stream_output_adapter@_W@__crt_stdio_output@@@2@@__crt_stdio_output@@AEAAX_K_N@Z 000000018004b000 f i libucrtd:output.obj
 0001:0004a140       ??$type_case_integer_parse_into_buffer@_K$07@?$output_processor@_WV?$string_output_adapter@_W@__crt_stdio_output@@V?$format_validation_base@_WV?$string_output_adapter@_W@__crt_stdio_output@@@2@@__crt_stdio_output@@AEAAX_K_N@Z 000000018004b140 f i libucrtd:output.obj
 0001:0004a280       ??$type_case_integer_parse_into_buffer@_K$07@?$output_processor@_WV?$string_output_adapter@_W@__crt_stdio_output@@V?$positional_parameter_base@_WV?$string_output_adapter@_W@__crt_stdio_output@@@2@@__crt_stdio_output@@AEAAX_K_N@Z 000000018004b280 f i libucrtd:output.obj
 0001:0004a3c0       ??$type_case_integer_parse_into_buffer@_K$07@?$output_processor@_WV?$string_output_adapter@_W@__crt_stdio_output@@V?$standard_base@_WV?$string_output_adapter@_W@__crt_stdio_output@@@2@@__crt_stdio_output@@AEAAX_K_N@Z 000000018004b3c0 f i libucrtd:output.obj
 0001:0004a500       ??$type_case_integer_parse_into_buffer@_K$09@?$output_processor@DV?$stream_output_adapter@D@__crt_stdio_output@@V?$format_validation_base@DV?$stream_output_adapter@D@__crt_stdio_output@@@2@@__crt_stdio_output@@AEAAX_K_N@Z 000000018004b500 f i libucrtd:output.obj
 0001:0004a640       ??$type_case_integer_parse_into_buffer@_K$09@?$output_processor@DV?$stream_output_adapter@D@__crt_stdio_output@@V?$positional_parameter_base@DV?$stream_output_adapter@D@__crt_stdio_output@@@2@@__crt_stdio_output@@AEAAX_K_N@Z 000000018004b640 f i libucrtd:output.obj
 0001:0004a780       ??$type_case_integer_parse_into_buffer@_K$09@?$output_processor@DV?$stream_output_adapter@D@__crt_stdio_output@@V?$standard_base@DV?$stream_output_adapter@D@__crt_stdio_output@@@2@@__crt_stdio_output@@AEAAX_K_N@Z 000000018004b780 f i libucrtd:output.obj
 0001:0004a8c0       ??$type_case_integer_parse_into_buffer@_K$09@?$output_processor@DV?$string_output_adapter@D@__crt_stdio_output@@V?$format_validation_base@DV?$string_output_adapter@D@__crt_stdio_output@@@2@@__crt_stdio_output@@AEAAX_K_N@Z 000000018004b8c0 f i libucrtd:output.obj
 0001:0004aa00       ??$type_case_integer_parse_into_buffer@_K$09@?$output_processor@DV?$string_output_adapter@D@__crt_stdio_output@@V?$positional_parameter_base@DV?$string_output_adapter@D@__crt_stdio_output@@@2@@__crt_stdio_output@@AEAAX_K_N@Z 000000018004ba00 f i libucrtd:output.obj
 0001:0004ab40       ??$type_case_integer_parse_into_buffer@_K$09@?$output_processor@DV?$string_output_adapter@D@__crt_stdio_output@@V?$standard_base@DV?$string_output_adapter@D@__crt_stdio_output@@@2@@__crt_stdio_output@@AEAAX_K_N@Z 000000018004bb40 f i libucrtd:output.obj
 0001:0004ac80       ??$type_case_integer_parse_into_buffer@_K$09@?$output_processor@_WV?$stream_output_adapter@_W@__crt_stdio_output@@V?$format_validation_base@_WV?$stream_output_adapter@_W@__crt_stdio_output@@@2@@__crt_stdio_output@@AEAAX_K_N@Z 000000018004bc80 f i libucrtd:output.obj
 0001:0004adc0       ??$type_case_integer_parse_into_buffer@_K$09@?$output_processor@_WV?$stream_output_adapter@_W@__crt_stdio_output@@V?$positional_parameter_base@_WV?$stream_output_adapter@_W@__crt_stdio_output@@@2@@__crt_stdio_output@@AEAAX_K_N@Z 000000018004bdc0 f i libucrtd:output.obj
 0001:0004af00       ??$type_case_integer_parse_into_buffer@_K$09@?$output_processor@_WV?$stream_output_adapter@_W@__crt_stdio_output@@V?$standard_base@_WV?$stream_output_adapter@_W@__crt_stdio_output@@@2@@__crt_stdio_output@@AEAAX_K_N@Z 000000018004bf00 f i libucrtd:output.obj
 0001:0004b040       ??$type_case_integer_parse_into_buffer@_K$09@?$output_processor@_WV?$string_output_adapter@_W@__crt_stdio_output@@V?$format_validation_base@_WV?$string_output_adapter@_W@__crt_stdio_output@@@2@@__crt_stdio_output@@AEAAX_K_N@Z 000000018004c040 f i libucrtd:output.obj
 0001:0004b180       ??$type_case_integer_parse_into_buffer@_K$09@?$output_processor@_WV?$string_output_adapter@_W@__crt_stdio_output@@V?$positional_parameter_base@_WV?$string_output_adapter@_W@__crt_stdio_output@@@2@@__crt_stdio_output@@AEAAX_K_N@Z 000000018004c180 f i libucrtd:output.obj
 0001:0004b2c0       ??$type_case_integer_parse_into_buffer@_K$09@?$output_processor@_WV?$string_output_adapter@_W@__crt_stdio_output@@V?$standard_base@_WV?$string_output_adapter@_W@__crt_stdio_output@@@2@@__crt_stdio_output@@AEAAX_K_N@Z 000000018004c2c0 f i libucrtd:output.obj
 0001:0004b400       ??$type_case_integer_parse_into_buffer@_K$0BA@@?$output_processor@DV?$stream_output_adapter@D@__crt_stdio_output@@V?$format_validation_base@DV?$stream_output_adapter@D@__crt_stdio_output@@@2@@__crt_stdio_output@@AEAAX_K_N@Z 000000018004c400 f i libucrtd:output.obj
 0001:0004b540       ??$type_case_integer_parse_into_buffer@_K$0BA@@?$output_processor@DV?$stream_output_adapter@D@__crt_stdio_output@@V?$positional_parameter_base@DV?$stream_output_adapter@D@__crt_stdio_output@@@2@@__crt_stdio_output@@AEAAX_K_N@Z 000000018004c540 f i libucrtd:output.obj
 0001:0004b680       ??$type_case_integer_parse_into_buffer@_K$0BA@@?$output_processor@DV?$stream_output_adapter@D@__crt_stdio_output@@V?$standard_base@DV?$stream_output_adapter@D@__crt_stdio_output@@@2@@__crt_stdio_output@@AEAAX_K_N@Z 000000018004c680 f i libucrtd:output.obj
 0001:0004b7c0       ??$type_case_integer_parse_into_buffer@_K$0BA@@?$output_processor@DV?$string_output_adapter@D@__crt_stdio_output@@V?$format_validation_base@DV?$string_output_adapter@D@__crt_stdio_output@@@2@@__crt_stdio_output@@AEAAX_K_N@Z 000000018004c7c0 f i libucrtd:output.obj
 0001:0004b900       ??$type_case_integer_parse_into_buffer@_K$0BA@@?$output_processor@DV?$string_output_adapter@D@__crt_stdio_output@@V?$positional_parameter_base@DV?$string_output_adapter@D@__crt_stdio_output@@@2@@__crt_stdio_output@@AEAAX_K_N@Z 000000018004c900 f i libucrtd:output.obj
 0001:0004ba40       ??$type_case_integer_parse_into_buffer@_K$0BA@@?$output_processor@DV?$string_output_adapter@D@__crt_stdio_output@@V?$standard_base@DV?$string_output_adapter@D@__crt_stdio_output@@@2@@__crt_stdio_output@@AEAAX_K_N@Z 000000018004ca40 f i libucrtd:output.obj
 0001:0004bb80       ??$type_case_integer_parse_into_buffer@_K$0BA@@?$output_processor@_WV?$stream_output_adapter@_W@__crt_stdio_output@@V?$format_validation_base@_WV?$stream_output_adapter@_W@__crt_stdio_output@@@2@@__crt_stdio_output@@AEAAX_K_N@Z 000000018004cb80 f i libucrtd:output.obj
 0001:0004bcc0       ??$type_case_integer_parse_into_buffer@_K$0BA@@?$output_processor@_WV?$stream_output_adapter@_W@__crt_stdio_output@@V?$positional_parameter_base@_WV?$stream_output_adapter@_W@__crt_stdio_output@@@2@@__crt_stdio_output@@AEAAX_K_N@Z 000000018004ccc0 f i libucrtd:output.obj
 0001:0004be00       ??$type_case_integer_parse_into_buffer@_K$0BA@@?$output_processor@_WV?$stream_output_adapter@_W@__crt_stdio_output@@V?$standard_base@_WV?$stream_output_adapter@_W@__crt_stdio_output@@@2@@__crt_stdio_output@@AEAAX_K_N@Z 000000018004ce00 f i libucrtd:output.obj
 0001:0004bf40       ??$type_case_integer_parse_into_buffer@_K$0BA@@?$output_processor@_WV?$string_output_adapter@_W@__crt_stdio_output@@V?$format_validation_base@_WV?$string_output_adapter@_W@__crt_stdio_output@@@2@@__crt_stdio_output@@AEAAX_K_N@Z 000000018004cf40 f i libucrtd:output.obj
 0001:0004c080       ??$type_case_integer_parse_into_buffer@_K$0BA@@?$output_processor@_WV?$string_output_adapter@_W@__crt_stdio_output@@V?$positional_parameter_base@_WV?$string_output_adapter@_W@__crt_stdio_output@@@2@@__crt_stdio_output@@AEAAX_K_N@Z 000000018004d080 f i libucrtd:output.obj
 0001:0004c1c0       ??$type_case_integer_parse_into_buffer@_K$0BA@@?$output_processor@_WV?$string_output_adapter@_W@__crt_stdio_output@@V?$standard_base@_WV?$string_output_adapter@_W@__crt_stdio_output@@@2@@__crt_stdio_output@@AEAAX_K_N@Z 000000018004d1c0 f i libucrtd:output.obj
 0001:0004c300       ??$write_multiple_characters@V?$stream_output_adapter@D@__crt_stdio_output@@D@__crt_stdio_output@@YAXAEBV?$stream_output_adapter@D@0@DHQEAHAEAV__crt_cached_ptd_host@@@Z 000000018004d300 f i libucrtd:output.obj
 0001:0004c370       ??$write_multiple_characters@V?$stream_output_adapter@_W@__crt_stdio_output@@D@__crt_stdio_output@@YAXAEBV?$stream_output_adapter@_W@0@DHQEAHAEAV__crt_cached_ptd_host@@@Z 000000018004d370 f i libucrtd:output.obj
 0001:0004c3e0       ??$write_multiple_characters@V?$string_output_adapter@D@__crt_stdio_output@@D@__crt_stdio_output@@YAXAEBV?$string_output_adapter@D@0@DHQEAHAEAV__crt_cached_ptd_host@@@Z 000000018004d3e0 f i libucrtd:output.obj
 0001:0004c450       ??$write_multiple_characters@V?$string_output_adapter@_W@__crt_stdio_output@@D@__crt_stdio_output@@YAXAEBV?$string_output_adapter@_W@0@DHQEAHAEAV__crt_cached_ptd_host@@@Z 000000018004d450 f i libucrtd:output.obj
 0001:0004c880       ??0?$c_string_character_source@D@__crt_strtox@@QEAA@QEBDQEAPEBD@Z 000000018004d880 f i libucrtd:output.obj
 0001:0004c8d0       ??0?$c_string_character_source@_W@__crt_strtox@@QEAA@QEB_WQEAPEB_W@Z 000000018004d8d0 f i libucrtd:output.obj
 0001:0004c920       ??0?$cached@H@__crt_cached_ptd_host@@QEAA@XZ 000000018004d920 f i libucrtd:output.obj
 0001:0004c940       ??0?$cached@K@__crt_cached_ptd_host@@QEAA@XZ 000000018004d940 f i libucrtd:output.obj
 0001:0004c960       ??0?$common_data@D@__crt_stdio_output@@IEAA@AEAV__crt_cached_ptd_host@@@Z 000000018004d960 f i libucrtd:output.obj
 0001:0004ca20       ??0?$common_data@_W@__crt_stdio_output@@IEAA@AEAV__crt_cached_ptd_host@@@Z 000000018004da20 f i libucrtd:output.obj
 0001:0004cae0       ??0?$output_adapter_data@DV?$stream_output_adapter@D@__crt_stdio_output@@@__crt_stdio_output@@IEAA@AEBV?$stream_output_adapter@D@1@_KQEBDAEAV__crt_cached_ptd_host@@QEAD@Z 000000018004dae0 f i libucrtd:output.obj
 0001:0004cb60       ??0?$output_adapter_data@DV?$string_output_adapter@D@__crt_stdio_output@@@__crt_stdio_output@@IEAA@AEBV?$string_output_adapter@D@1@_KQEBDAEAV__crt_cached_ptd_host@@QEAD@Z 000000018004db60 f i libucrtd:output.obj
 0001:0004cbe0       ??0?$output_adapter_data@_WV?$stream_output_adapter@_W@__crt_stdio_output@@@__crt_stdio_output@@IEAA@AEBV?$stream_output_adapter@_W@1@_KQEB_WAEAV__crt_cached_ptd_host@@QEAD@Z 000000018004dbe0 f i libucrtd:output.obj
 0001:0004cc60       ??0?$output_adapter_data@_WV?$string_output_adapter@_W@__crt_stdio_output@@@__crt_stdio_output@@IEAA@AEBV?$string_output_adapter@_W@1@_KQEB_WAEAV__crt_cached_ptd_host@@QEAD@Z 000000018004dc60 f i libucrtd:output.obj
 0001:0004cce0       ??0?$output_processor@DV?$stream_output_adapter@D@__crt_stdio_output@@V?$format_validation_base@DV?$stream_output_adapter@D@__crt_stdio_output@@@2@@__crt_stdio_output@@QEAA@AEBV?$stream_output_adapter@D@1@_KQEBDAEAV__crt_cached_ptd_host@@QEAD@Z 000000018004dce0 f i libucrtd:output.obj
 0001:0004cd30       ??0?$output_processor@DV?$stream_output_adapter@D@__crt_stdio_output@@V?$positional_parameter_base@DV?$stream_output_adapter@D@__crt_stdio_output@@@2@@__crt_stdio_output@@QEAA@AEBV?$stream_output_adapter@D@1@_KQEBDAEAV__crt_cached_ptd_host@@QEAD@Z 000000018004dd30 f i libucrtd:output.obj
 0001:0004cd80       ??0?$output_processor@DV?$stream_output_adapter@D@__crt_stdio_output@@V?$standard_base@DV?$stream_output_adapter@D@__crt_stdio_output@@@2@@__crt_stdio_output@@QEAA@AEBV?$stream_output_adapter@D@1@_KQEBDAEAV__crt_cached_ptd_host@@QEAD@Z 000000018004dd80 f i libucrtd:output.obj
 0001:0004cdd0       ??0?$output_processor@DV?$string_output_adapter@D@__crt_stdio_output@@V?$format_validation_base@DV?$string_output_adapter@D@__crt_stdio_output@@@2@@__crt_stdio_output@@QEAA@AEBV?$string_output_adapter@D@1@_KQEBDAEAV__crt_cached_ptd_host@@QEAD@Z 000000018004ddd0 f i libucrtd:output.obj
 0001:0004ce20       ??0?$output_processor@DV?$string_output_adapter@D@__crt_stdio_output@@V?$positional_parameter_base@DV?$string_output_adapter@D@__crt_stdio_output@@@2@@__crt_stdio_output@@QEAA@AEBV?$string_output_adapter@D@1@_KQEBDAEAV__crt_cached_ptd_host@@QEAD@Z 000000018004de20 f i libucrtd:output.obj
 0001:0004ce70       ??0?$output_processor@DV?$string_output_adapter@D@__crt_stdio_output@@V?$standard_base@DV?$string_output_adapter@D@__crt_stdio_output@@@2@@__crt_stdio_output@@QEAA@AEBV?$string_output_adapter@D@1@_KQEBDAEAV__crt_cached_ptd_host@@QEAD@Z 000000018004de70 f i libucrtd:output.obj
 0001:0004cec0       ??0?$output_processor@_WV?$stream_output_adapter@_W@__crt_stdio_output@@V?$format_validation_base@_WV?$stream_output_adapter@_W@__crt_stdio_output@@@2@@__crt_stdio_output@@QEAA@AEBV?$stream_output_adapter@_W@1@_KQEB_WAEAV__crt_cached_ptd_host@@QEAD@Z 000000018004dec0 f i libucrtd:output.obj
 0001:0004cf10       ??0?$output_processor@_WV?$stream_output_adapter@_W@__crt_stdio_output@@V?$positional_parameter_base@_WV?$stream_output_adapter@_W@__crt_stdio_output@@@2@@__crt_stdio_output@@QEAA@AEBV?$stream_output_adapter@_W@1@_KQEB_WAEAV__crt_cached_ptd_host@@QEAD@Z 000000018004df10 f i libucrtd:output.obj
 0001:0004cf60       ??0?$output_processor@_WV?$stream_output_adapter@_W@__crt_stdio_output@@V?$standard_base@_WV?$stream_output_adapter@_W@__crt_stdio_output@@@2@@__crt_stdio_output@@QEAA@AEBV?$stream_output_adapter@_W@1@_KQEB_WAEAV__crt_cached_ptd_host@@QEAD@Z 000000018004df60 f i libucrtd:output.obj
 0001:0004cfb0       ??0?$output_processor@_WV?$string_output_adapter@_W@__crt_stdio_output@@V?$format_validation_base@_WV?$string_output_adapter@_W@__crt_stdio_output@@@2@@__crt_stdio_output@@QEAA@AEBV?$string_output_adapter@_W@1@_KQEB_WAEAV__crt_cached_ptd_host@@QEAD@Z 000000018004dfb0 f i libucrtd:output.obj
 0001:0004d000       ??0?$output_processor@_WV?$string_output_adapter@_W@__crt_stdio_output@@V?$positional_parameter_base@_WV?$string_output_adapter@_W@__crt_stdio_output@@@2@@__crt_stdio_output@@QEAA@AEBV?$string_output_adapter@_W@1@_KQEB_WAEAV__crt_cached_ptd_host@@QEAD@Z 000000018004e000 f i libucrtd:output.obj
 0001:0004d050       ??0?$output_processor@_WV?$string_output_adapter@_W@__crt_stdio_output@@V?$standard_base@_WV?$string_output_adapter@_W@__crt_stdio_output@@@2@@__crt_stdio_output@@QEAA@AEBV?$string_output_adapter@_W@1@_KQEB_WAEAV__crt_cached_ptd_host@@QEAD@Z 000000018004e050 f i libucrtd:output.obj
 0001:0004d0a0       ??0?$stream_output_adapter@D@__crt_stdio_output@@QEAA@QEAU_iobuf@@@Z 000000018004e0a0 f i libucrtd:output.obj
 0001:0004d0e0       ??0?$stream_output_adapter@_W@__crt_stdio_output@@QEAA@QEAU_iobuf@@@Z 000000018004e0e0 f i libucrtd:output.obj
 0001:0004d120       ??0?$string_output_adapter@D@__crt_stdio_output@@QEAA@QEAU?$string_output_adapter_context@D@1@@Z 000000018004e120 f i libucrtd:output.obj
 0001:0004d140       ??0?$string_output_adapter@_W@__crt_stdio_output@@QEAA@QEAU?$string_output_adapter_context@_W@1@@Z 000000018004e140 f i libucrtd:output.obj
 0001:0004d160       ??0__acrt_stdio_temporary_buffering_guard@@QEAA@QEAU_iobuf@@AEAV__crt_cached_ptd_host@@@Z 000000018004e160 f i libucrtd:output.obj
 0001:0004d1b0       ??0__crt_cached_ptd_host@@QEAA@QEAU__crt_locale_pointers@@@Z 000000018004e1b0 f i libucrtd:output.obj
 0001:0004d270       ??0__crt_scoped_get_last_error_reset@@QEAA@XZ 000000018004e270 f i libucrtd:output.obj
 0001:0004d290       ??0__crt_stdio_stream@@QEAA@QEAU_iobuf@@@Z 000000018004e290 f i libucrtd:output.obj
 0001:0004d2b0       ??0formatting_buffer@__crt_stdio_output@@QEAA@XZ 000000018004e2b0 f i libucrtd:output.obj
 0001:0004d2f0       ??0guard@?$cached@H@__crt_cached_ptd_host@@QEAA@AEAU12@@Z 000000018004e2f0 f i libucrtd:output.obj
 0001:0004d330       ??1?$c_string_character_source@D@__crt_strtox@@QEAA@XZ 000000018004e330 f i libucrtd:output.obj
 0001:0004d360       ??1?$c_string_character_source@_W@__crt_strtox@@QEAA@XZ 000000018004e360 f i libucrtd:output.obj
 0001:0004d390       ??1?$common_data@D@__crt_stdio_output@@QEAA@XZ 000000018004e390 f i libucrtd:output.obj
 0001:0004d3b0       ??1?$common_data@_W@__crt_stdio_output@@QEAA@XZ 000000018004e3b0 f i libucrtd:output.obj
 0001:0004d3d0       ??1?$format_validation_base@DV?$stream_output_adapter@D@__crt_stdio_output@@@__crt_stdio_output@@QEAA@XZ 000000018004e3d0 f i libucrtd:output.obj
 0001:0004d3f0       ??1?$format_validation_base@DV?$string_output_adapter@D@__crt_stdio_output@@@__crt_stdio_output@@QEAA@XZ 000000018004e3f0 f i libucrtd:output.obj
 0001:0004d410       ??1?$format_validation_base@_WV?$stream_output_adapter@_W@__crt_stdio_output@@@__crt_stdio_output@@QEAA@XZ 000000018004e410 f i libucrtd:output.obj
 0001:0004d430       ??1?$format_validation_base@_WV?$string_output_adapter@_W@__crt_stdio_output@@@__crt_stdio_output@@QEAA@XZ 000000018004e430 f i libucrtd:output.obj
 0001:0004d450       ??1?$output_adapter_data@DV?$stream_output_adapter@D@__crt_stdio_output@@@__crt_stdio_output@@QEAA@XZ 000000018004e450 f i libucrtd:output.obj
 0001:0004d470       ??1?$output_adapter_data@DV?$string_output_adapter@D@__crt_stdio_output@@@__crt_stdio_output@@QEAA@XZ 000000018004e470 f i libucrtd:output.obj
 0001:0004d490       ??1?$output_adapter_data@_WV?$stream_output_adapter@_W@__crt_stdio_output@@@__crt_stdio_output@@QEAA@XZ 000000018004e490 f i libucrtd:output.obj
 0001:0004d4b0       ??1?$output_adapter_data@_WV?$string_output_adapter@_W@__crt_stdio_output@@@__crt_stdio_output@@QEAA@XZ 000000018004e4b0 f i libucrtd:output.obj
 0001:0004d4d0       ??1?$output_processor@DV?$stream_output_adapter@D@__crt_stdio_output@@V?$format_validation_base@DV?$stream_output_adapter@D@__crt_stdio_output@@@2@@__crt_stdio_output@@QEAA@XZ 000000018004e4d0 f i libucrtd:output.obj
 0001:0004d4f0       ??1?$output_processor@DV?$stream_output_adapter@D@__crt_stdio_output@@V?$positional_parameter_base@DV?$stream_output_adapter@D@__crt_stdio_output@@@2@@__crt_stdio_output@@QEAA@XZ 000000018004e4f0 f i libucrtd:output.obj
 0001:0004d510       ??1?$output_processor@DV?$stream_output_adapter@D@__crt_stdio_output@@V?$standard_base@DV?$stream_output_adapter@D@__crt_stdio_output@@@2@@__crt_stdio_output@@QEAA@XZ 000000018004e510 f i libucrtd:output.obj
 0001:0004d530       ??1?$output_processor@DV?$string_output_adapter@D@__crt_stdio_output@@V?$format_validation_base@DV?$string_output_adapter@D@__crt_stdio_output@@@2@@__crt_stdio_output@@QEAA@XZ 000000018004e530 f i libucrtd:output.obj
 0001:0004d550       ??1?$output_processor@DV?$string_output_adapter@D@__crt_stdio_output@@V?$positional_parameter_base@DV?$string_output_adapter@D@__crt_stdio_output@@@2@@__crt_stdio_output@@QEAA@XZ 000000018004e550 f i libucrtd:output.obj
 0001:0004d570       ??1?$output_processor@DV?$string_output_adapter@D@__crt_stdio_output@@V?$standard_base@DV?$string_output_adapter@D@__crt_stdio_output@@@2@@__crt_stdio_output@@QEAA@XZ 000000018004e570 f i libucrtd:output.obj
 0001:0004d590       ??1?$output_processor@_WV?$stream_output_adapter@_W@__crt_stdio_output@@V?$format_validation_base@_WV?$stream_output_adapter@_W@__crt_stdio_output@@@2@@__crt_stdio_output@@QEAA@XZ 000000018004e590 f i libucrtd:output.obj
 0001:0004d5b0       ??1?$output_processor@_WV?$stream_output_adapter@_W@__crt_stdio_output@@V?$positional_parameter_base@_WV?$stream_output_adapter@_W@__crt_stdio_output@@@2@@__crt_stdio_output@@QEAA@XZ 000000018004e5b0 f i libucrtd:output.obj
 0001:0004d5d0       ??1?$output_processor@_WV?$stream_output_adapter@_W@__crt_stdio_output@@V?$standard_base@_WV?$stream_output_adapter@_W@__crt_stdio_output@@@2@@__crt_stdio_output@@QEAA@XZ 000000018004e5d0 f i libucrtd:output.obj
 0001:0004d5f0       ??1?$output_processor@_WV?$string_output_adapter@_W@__crt_stdio_output@@V?$format_validation_base@_WV?$string_output_adapter@_W@__crt_stdio_output@@@2@@__crt_stdio_output@@QEAA@XZ 000000018004e5f0 f i libucrtd:output.obj
 0001:0004d610       ??1?$output_processor@_WV?$string_output_adapter@_W@__crt_stdio_output@@V?$positional_parameter_base@_WV?$string_output_adapter@_W@__crt_stdio_output@@@2@@__crt_stdio_output@@QEAA@XZ 000000018004e610 f i libucrtd:output.obj
 0001:0004d630       ??1?$output_processor@_WV?$string_output_adapter@_W@__crt_stdio_output@@V?$standard_base@_WV?$string_output_adapter@_W@__crt_stdio_output@@@2@@__crt_stdio_output@@QEAA@XZ 000000018004e630 f i libucrtd:output.obj
 0001:0004d650       ??1?$positional_parameter_base@DV?$stream_output_adapter@D@__crt_stdio_output@@@__crt_stdio_output@@QEAA@XZ 000000018004e650 f i libucrtd:output.obj
 0001:0004d670       ??1?$positional_parameter_base@DV?$string_output_adapter@D@__crt_stdio_output@@@__crt_stdio_output@@QEAA@XZ 000000018004e670 f i libucrtd:output.obj
 0001:0004d690       ??1?$positional_parameter_base@_WV?$stream_output_adapter@_W@__crt_stdio_output@@@__crt_stdio_output@@QEAA@XZ 000000018004e690 f i libucrtd:output.obj
 0001:0004d6b0       ??1?$positional_parameter_base@_WV?$string_output_adapter@_W@__crt_stdio_output@@@__crt_stdio_output@@QEAA@XZ 000000018004e6b0 f i libucrtd:output.obj
 0001:0004d6d0       ??1?$standard_base@DV?$stream_output_adapter@D@__crt_stdio_output@@@__crt_stdio_output@@QEAA@XZ 000000018004e6d0 f i libucrtd:output.obj
 0001:0004d6f0       ??1?$standard_base@DV?$string_output_adapter@D@__crt_stdio_output@@@__crt_stdio_output@@QEAA@XZ 000000018004e6f0 f i libucrtd:output.obj
 0001:0004d710       ??1?$standard_base@_WV?$stream_output_adapter@_W@__crt_stdio_output@@@__crt_stdio_output@@QEAA@XZ 000000018004e710 f i libucrtd:output.obj
 0001:0004d730       ??1?$standard_base@_WV?$string_output_adapter@_W@__crt_stdio_output@@@__crt_stdio_output@@QEAA@XZ 000000018004e730 f i libucrtd:output.obj
 0001:0004d750       ??1__acrt_stdio_temporary_buffering_guard@@QEAA@XZ 000000018004e750 f i libucrtd:output.obj
 0001:0004d780       ??1__crt_cached_ptd_host@@QEAA@XZ 000000018004e780 f i libucrtd:output.obj
 0001:0004d830       ??1__crt_scoped_get_last_error_reset@@QEAA@XZ 000000018004e830 f i libucrtd:output.obj
 0001:0004d850       ??1formatting_buffer@__crt_stdio_output@@QEAA@XZ 000000018004e850 f i libucrtd:output.obj
 0001:0004d880       ??1guard@?$cached@H@__crt_cached_ptd_host@@QEAA@XZ 000000018004e880 f i libucrtd:output.obj
 0001:0004d8b0       ??4?$__crt_unique_heap_ptr@DU__crt_internal_free_policy@@@@QEAAAEAV0@$$QEAV0@@Z 000000018004e8b0 f i libucrtd:output.obj
 0001:0004d8f0       ??A?$spectre_mitigated_lookup_table@Ustate_transition_pair@__crt_stdio_output@@$0IA@@__crt_stdio_output@@QEBAAEBUstate_transition_pair@1@_K@Z 000000018004e8f0 f i libucrtd:output.obj
 0001:0004d910       ??C__crt_stdio_stream@@QEBAPEAU__crt_stdio_stream_data@@XZ 000000018004e910 f i libucrtd:output.obj
 0001:0004e160       ?adjust_hexit@?$output_processor@DV?$stream_output_adapter@D@__crt_stdio_output@@V?$format_validation_base@DV?$stream_output_adapter@D@__crt_stdio_output@@@2@@__crt_stdio_output@@CADH_N@Z 000000018004f160 f i libucrtd:output.obj
 0001:0004e1b0       ?adjust_hexit@?$output_processor@DV?$stream_output_adapter@D@__crt_stdio_output@@V?$positional_parameter_base@DV?$stream_output_adapter@D@__crt_stdio_output@@@2@@__crt_stdio_output@@CADH_N@Z 000000018004f1b0 f i libucrtd:output.obj
 0001:0004e200       ?adjust_hexit@?$output_processor@DV?$stream_output_adapter@D@__crt_stdio_output@@V?$standard_base@DV?$stream_output_adapter@D@__crt_stdio_output@@@2@@__crt_stdio_output@@CADH_N@Z 000000018004f200 f i libucrtd:output.obj
 0001:0004e250       ?adjust_hexit@?$output_processor@DV?$string_output_adapter@D@__crt_stdio_output@@V?$format_validation_base@DV?$string_output_adapter@D@__crt_stdio_output@@@2@@__crt_stdio_output@@CADH_N@Z 000000018004f250 f i libucrtd:output.obj
 0001:0004e2a0       ?adjust_hexit@?$output_processor@DV?$string_output_adapter@D@__crt_stdio_output@@V?$positional_parameter_base@DV?$string_output_adapter@D@__crt_stdio_output@@@2@@__crt_stdio_output@@CADH_N@Z 000000018004f2a0 f i libucrtd:output.obj
 0001:0004e2f0       ?adjust_hexit@?$output_processor@DV?$string_output_adapter@D@__crt_stdio_output@@V?$standard_base@DV?$string_output_adapter@D@__crt_stdio_output@@@2@@__crt_stdio_output@@CADH_N@Z 000000018004f2f0 f i libucrtd:output.obj
 0001:0004e340       ?adjust_hexit@?$output_processor@_WV?$stream_output_adapter@_W@__crt_stdio_output@@V?$format_validation_base@_WV?$stream_output_adapter@_W@__crt_stdio_output@@@2@@__crt_stdio_output@@CADH_N@Z 000000018004f340 f i libucrtd:output.obj
 0001:0004e390       ?adjust_hexit@?$output_processor@_WV?$stream_output_adapter@_W@__crt_stdio_output@@V?$positional_parameter_base@_WV?$stream_output_adapter@_W@__crt_stdio_output@@@2@@__crt_stdio_output@@CADH_N@Z 000000018004f390 f i libucrtd:output.obj
 0001:0004e3e0       ?adjust_hexit@?$output_processor@_WV?$stream_output_adapter@_W@__crt_stdio_output@@V?$standard_base@_WV?$stream_output_adapter@_W@__crt_stdio_output@@@2@@__crt_stdio_output@@CADH_N@Z 000000018004f3e0 f i libucrtd:output.obj
 0001:0004e430       ?adjust_hexit@?$output_processor@_WV?$string_output_adapter@_W@__crt_stdio_output@@V?$format_validation_base@_WV?$string_output_adapter@_W@__crt_stdio_output@@@2@@__crt_stdio_output@@CADH_N@Z 000000018004f430 f i libucrtd:output.obj
 0001:0004e480       ?adjust_hexit@?$output_processor@_WV?$string_output_adapter@_W@__crt_stdio_output@@V?$positional_parameter_base@_WV?$string_output_adapter@_W@__crt_stdio_output@@@2@@__crt_stdio_output@@CADH_N@Z 000000018004f480 f i libucrtd:output.obj
 0001:0004e4d0       ?adjust_hexit@?$output_processor@_WV?$string_output_adapter@_W@__crt_stdio_output@@V?$standard_base@_WV?$string_output_adapter@_W@__crt_stdio_output@@@2@@__crt_stdio_output@@CADH_N@Z 000000018004f4d0 f i libucrtd:output.obj
 0001:0004e520       ?advance_to_next_pass@?$positional_parameter_base@DV?$stream_output_adapter@D@__crt_stdio_output@@@__crt_stdio_output@@IEAA_NXZ 000000018004f520 f i libucrtd:output.obj
 0001:0004e5d0       ?advance_to_next_pass@?$positional_parameter_base@DV?$string_output_adapter@D@__crt_stdio_output@@@__crt_stdio_output@@IEAA_NXZ 000000018004f5d0 f i libucrtd:output.obj
 0001:0004e680       ?advance_to_next_pass@?$positional_parameter_base@_WV?$stream_output_adapter@_W@__crt_stdio_output@@@__crt_stdio_output@@IEAA_NXZ 000000018004f680 f i libucrtd:output.obj
 0001:0004e730       ?advance_to_next_pass@?$positional_parameter_base@_WV?$string_output_adapter@_W@__crt_stdio_output@@@__crt_stdio_output@@IEAA_NXZ 000000018004f730 f i libucrtd:output.obj
 0001:0004e7e0       ?advance_to_next_pass@?$standard_base@DV?$stream_output_adapter@D@__crt_stdio_output@@@__crt_stdio_output@@IEAA_NXZ 000000018004f7e0 f i libucrtd:output.obj
 0001:0004e830       ?advance_to_next_pass@?$standard_base@DV?$string_output_adapter@D@__crt_stdio_output@@@__crt_stdio_output@@IEAA_NXZ 000000018004f830 f i libucrtd:output.obj
 0001:0004e880       ?advance_to_next_pass@?$standard_base@_WV?$stream_output_adapter@_W@__crt_stdio_output@@@__crt_stdio_output@@IEAA_NXZ 000000018004f880 f i libucrtd:output.obj
 0001:0004e8d0       ?advance_to_next_pass@?$standard_base@_WV?$string_output_adapter@_W@__crt_stdio_output@@@__crt_stdio_output@@IEAA_NXZ 000000018004f8d0 f i libucrtd:output.obj
 0001:0004e920       ?check@?$cached@H@__crt_cached_ptd_host@@QEBA_NH@Z 000000018004f920 f i libucrtd:output.obj
 0001:0004e960       ?check_synchronize_global_state_index@__crt_cached_ptd_host@@AEAA_KAEBV__crt_scoped_get_last_error_reset@@@Z 000000018004f960 f i libucrtd:output.obj
 0001:0004e9a0       ?check_synchronize_per_thread_data@__crt_cached_ptd_host@@AEAAPEAU__acrt_ptd@@XZ 000000018004f9a0 f i libucrtd:output.obj
 0001:0004e9e0       ?create_guard@?$cached@H@__crt_cached_ptd_host@@QEAA?AVguard@12@XZ 000000018004f9e0 f i libucrtd:output.obj
 0001:0004ea10       ?crop_zeroes@__crt_stdio_output@@YAXPEADQEAU__crt_locale_pointers@@@Z 000000018004fa10 f i libucrtd:output.obj
 0001:0004eb60       ?disable@guard@?$cached@H@__crt_cached_ptd_host@@QEAAXXZ 000000018004fb60 f i libucrtd:output.obj
 0001:0004eb70       ?enable@guard@?$cached@H@__crt_cached_ptd_host@@QEAAXXZ 000000018004fb70 f i libucrtd:output.obj
 0001:0004eb80       ?find_next_state@?$output_processor@DV?$stream_output_adapter@D@__crt_stdio_output@@V?$format_validation_base@DV?$stream_output_adapter@D@__crt_stdio_output@@@2@@__crt_stdio_output@@AEBA?AW4state@2@DW432@@Z 000000018004fb80 f i libucrtd:output.obj
 0001:0004ec20       ?find_next_state@?$output_processor@DV?$stream_output_adapter@D@__crt_stdio_output@@V?$positional_parameter_base@DV?$stream_output_adapter@D@__crt_stdio_output@@@2@@__crt_stdio_output@@AEBA?AW4state@2@DW432@@Z 000000018004fc20 f i libucrtd:output.obj
 0001:0004ecc0       ?find_next_state@?$output_processor@DV?$stream_output_adapter@D@__crt_stdio_output@@V?$standard_base@DV?$stream_output_adapter@D@__crt_stdio_output@@@2@@__crt_stdio_output@@AEBA?AW4state@2@DW432@@Z 000000018004fcc0 f i libucrtd:output.obj
 0001:0004ed60       ?find_next_state@?$output_processor@DV?$string_output_adapter@D@__crt_stdio_output@@V?$format_validation_base@DV?$string_output_adapter@D@__crt_stdio_output@@@2@@__crt_stdio_output@@AEBA?AW4state@2@DW432@@Z 000000018004fd60 f i libucrtd:output.obj
 0001:0004ee00       ?find_next_state@?$output_processor@DV?$string_output_adapter@D@__crt_stdio_output@@V?$positional_parameter_base@DV?$string_output_adapter@D@__crt_stdio_output@@@2@@__crt_stdio_output@@AEBA?AW4state@2@DW432@@Z 000000018004fe00 f i libucrtd:output.obj
 0001:0004eea0       ?find_next_state@?$output_processor@DV?$string_output_adapter@D@__crt_stdio_output@@V?$standard_base@DV?$string_output_adapter@D@__crt_stdio_output@@@2@@__crt_stdio_output@@AEBA?AW4state@2@DW432@@Z 000000018004fea0 f i libucrtd:output.obj
 0001:0004ef40       ?find_next_state@?$output_processor@_WV?$stream_output_adapter@_W@__crt_stdio_output@@V?$format_validation_base@_WV?$stream_output_adapter@_W@__crt_stdio_output@@@2@@__crt_stdio_output@@AEBA?AW4state@2@_WW432@@Z 000000018004ff40 f i libucrtd:output.obj
 0001:0004efe0       ?find_next_state@?$output_processor@_WV?$stream_output_adapter@_W@__crt_stdio_output@@V?$positional_parameter_base@_WV?$stream_output_adapter@_W@__crt_stdio_output@@@2@@__crt_stdio_output@@AEBA?AW4state@2@_WW432@@Z 000000018004ffe0 f i libucrtd:output.obj
 0001:0004f080       ?find_next_state@?$output_processor@_WV?$stream_output_adapter@_W@__crt_stdio_output@@V?$standard_base@_WV?$stream_output_adapter@_W@__crt_stdio_output@@@2@@__crt_stdio_output@@AEBA?AW4state@2@_WW432@@Z 0000000180050080 f i libucrtd:output.obj
 0001:0004f120       ?find_next_state@?$output_processor@_WV?$string_output_adapter@_W@__crt_stdio_output@@V?$format_validation_base@_WV?$string_output_adapter@_W@__crt_stdio_output@@@2@@__crt_stdio_output@@AEBA?AW4state@2@_WW432@@Z 0000000180050120 f i libucrtd:output.obj
 0001:0004f1c0       ?find_next_state@?$output_processor@_WV?$string_output_adapter@_W@__crt_stdio_output@@V?$positional_parameter_base@_WV?$string_output_adapter@_W@__crt_stdio_output@@@2@@__crt_stdio_output@@AEBA?AW4state@2@_WW432@@Z 00000001800501c0 f i libucrtd:output.obj
 0001:0004f260       ?find_next_state@?$output_processor@_WV?$string_output_adapter@_W@__crt_stdio_output@@V?$standard_base@_WV?$string_output_adapter@_W@__crt_stdio_output@@@2@@__crt_stdio_output@@AEBA?AW4state@2@_WW432@@Z 0000000180050260 f i libucrtd:output.obj
 0001:0004f300       ?force_decimal_point@__crt_stdio_output@@YAXPEADQEAU__crt_locale_pointers@@@Z 0000000180050300 f i libucrtd:output.obj
 0001:0004f400       ?force_synchronize_global_state_index@__crt_cached_ptd_host@@AEAA_KAEBV__crt_scoped_get_last_error_reset@@@Z 0000000180050400 f i libucrtd:output.obj
 0001:0004f440       ?force_synchronize_per_thread_data@__crt_cached_ptd_host@@AEAAPEAU__acrt_ptd@@XZ 0000000180050440 f i libucrtd:output.obj
 0001:0004f4a0       ?get@?$c_string_character_source@D@__crt_strtox@@QEAADXZ 00000001800504a0 f i libucrtd:output.obj
 0001:0004f4e0       ?get@?$c_string_character_source@_W@__crt_strtox@@QEAA_WXZ 00000001800504e0 f i libucrtd:output.obj
 0001:0004f520       ?get_current_state_index@__crt_state_management@@YA_KAEBV__crt_scoped_get_last_error_reset@@@Z 0000000180050520 f i libucrtd:output.obj
 0001:0004f530       ?get_errno@__crt_cached_ptd_host@@QEAA@XZ 0000000180050530 f i libucrtd:output.obj
 0001:0004f540       ?get_flags@__crt_stdio_stream@@QEBAJXZ 0000000180050540 f i libucrtd:output.obj
 0001:0004f570       ?get_locale@__crt_cached_ptd_host@@QEAAPEAU__crt_locale_pointers@@XZ 0000000180050570 f i libucrtd:output.obj
 0001:0004f5a0       ?get_parameter_type@?$positional_parameter_base@DV?$stream_output_adapter@D@__crt_stdio_output@@@__crt_stdio_output@@CA?AW4parameter_type@12@F@Z 00000001800505a0 f i libucrtd:output.obj
 0001:0004f5b0       ?get_parameter_type@?$positional_parameter_base@DV?$stream_output_adapter@D@__crt_stdio_output@@@__crt_stdio_output@@CA?AW4parameter_type@12@G@Z 00000001800505b0 f i libucrtd:output.obj
 0001:0004f5c0       ?get_parameter_type@?$positional_parameter_base@DV?$stream_output_adapter@D@__crt_stdio_output@@@__crt_stdio_output@@CA?AW4parameter_type@12@H@Z 00000001800505c0 f i libucrtd:output.obj
 0001:0004f5d0       ?get_parameter_type@?$positional_parameter_base@DV?$stream_output_adapter@D@__crt_stdio_output@@@__crt_stdio_output@@CA?AW4parameter_type@12@I@Z 00000001800505d0 f i libucrtd:output.obj
 0001:0004f5e0       ?get_parameter_type@?$positional_parameter_base@DV?$stream_output_adapter@D@__crt_stdio_output@@@__crt_stdio_output@@CA?AW4parameter_type@12@U_CRT_DOUBLE@@@Z 00000001800505e0 f i libucrtd:output.obj
 0001:0004f5f0       ?get_parameter_type@?$positional_parameter_base@DV?$stream_output_adapter@D@__crt_stdio_output@@@__crt_stdio_output@@CA?AW4parameter_type@12@_J@Z 00000001800505f0 f i libucrtd:output.obj
 0001:0004f600       ?get_parameter_type@?$positional_parameter_base@DV?$stream_output_adapter@D@__crt_stdio_output@@@__crt_stdio_output@@CA?AW4parameter_type@12@_K@Z 0000000180050600 f i libucrtd:output.obj
 0001:0004f610       ?get_parameter_type@?$positional_parameter_base@DV?$stream_output_adapter@D@__crt_stdio_output@@@__crt_stdio_output@@CA?AW4parameter_type@12@_W@Z 0000000180050610 f i libucrtd:output.obj
 0001:0004f620       ?get_parameter_type@?$positional_parameter_base@DV?$string_output_adapter@D@__crt_stdio_output@@@__crt_stdio_output@@CA?AW4parameter_type@12@F@Z 0000000180050620 f i libucrtd:output.obj
 0001:0004f630       ?get_parameter_type@?$positional_parameter_base@DV?$string_output_adapter@D@__crt_stdio_output@@@__crt_stdio_output@@CA?AW4parameter_type@12@G@Z 0000000180050630 f i libucrtd:output.obj
 0001:0004f640       ?get_parameter_type@?$positional_parameter_base@DV?$string_output_adapter@D@__crt_stdio_output@@@__crt_stdio_output@@CA?AW4parameter_type@12@H@Z 0000000180050640 f i libucrtd:output.obj
 0001:0004f650       ?get_parameter_type@?$positional_parameter_base@DV?$string_output_adapter@D@__crt_stdio_output@@@__crt_stdio_output@@CA?AW4parameter_type@12@I@Z 0000000180050650 f i libucrtd:output.obj
 0001:0004f660       ?get_parameter_type@?$positional_parameter_base@DV?$string_output_adapter@D@__crt_stdio_output@@@__crt_stdio_output@@CA?AW4parameter_type@12@U_CRT_DOUBLE@@@Z 0000000180050660 f i libucrtd:output.obj
 0001:0004f670       ?get_parameter_type@?$positional_parameter_base@DV?$string_output_adapter@D@__crt_stdio_output@@@__crt_stdio_output@@CA?AW4parameter_type@12@_J@Z 0000000180050670 f i libucrtd:output.obj
 0001:0004f680       ?get_parameter_type@?$positional_parameter_base@DV?$string_output_adapter@D@__crt_stdio_output@@@__crt_stdio_output@@CA?AW4parameter_type@12@_K@Z 0000000180050680 f i libucrtd:output.obj
 0001:0004f690       ?get_parameter_type@?$positional_parameter_base@DV?$string_output_adapter@D@__crt_stdio_output@@@__crt_stdio_output@@CA?AW4parameter_type@12@_W@Z 0000000180050690 f i libucrtd:output.obj
 0001:0004f6a0       ?get_parameter_type@?$positional_parameter_base@_WV?$stream_output_adapter@_W@__crt_stdio_output@@@__crt_stdio_output@@CA?AW4parameter_type@12@F@Z 00000001800506a0 f i libucrtd:output.obj
 0001:0004f6b0       ?get_parameter_type@?$positional_parameter_base@_WV?$stream_output_adapter@_W@__crt_stdio_output@@@__crt_stdio_output@@CA?AW4parameter_type@12@G@Z 00000001800506b0 f i libucrtd:output.obj
 0001:0004f6c0       ?get_parameter_type@?$positional_parameter_base@_WV?$stream_output_adapter@_W@__crt_stdio_output@@@__crt_stdio_output@@CA?AW4parameter_type@12@H@Z 00000001800506c0 f i libucrtd:output.obj
 0001:0004f6d0       ?get_parameter_type@?$positional_parameter_base@_WV?$stream_output_adapter@_W@__crt_stdio_output@@@__crt_stdio_output@@CA?AW4parameter_type@12@I@Z 00000001800506d0 f i libucrtd:output.obj
 0001:0004f6e0       ?get_parameter_type@?$positional_parameter_base@_WV?$stream_output_adapter@_W@__crt_stdio_output@@@__crt_stdio_output@@CA?AW4parameter_type@12@U_CRT_DOUBLE@@@Z 00000001800506e0 f i libucrtd:output.obj
 0001:0004f6f0       ?get_parameter_type@?$positional_parameter_base@_WV?$stream_output_adapter@_W@__crt_stdio_output@@@__crt_stdio_output@@CA?AW4parameter_type@12@_J@Z 00000001800506f0 f i libucrtd:output.obj
 0001:0004f700       ?get_parameter_type@?$positional_parameter_base@_WV?$stream_output_adapter@_W@__crt_stdio_output@@@__crt_stdio_output@@CA?AW4parameter_type@12@_K@Z 0000000180050700 f i libucrtd:output.obj
 0001:0004f710       ?get_parameter_type@?$positional_parameter_base@_WV?$stream_output_adapter@_W@__crt_stdio_output@@@__crt_stdio_output@@CA?AW4parameter_type@12@_W@Z 0000000180050710 f i libucrtd:output.obj
 0001:0004f720       ?get_parameter_type@?$positional_parameter_base@_WV?$string_output_adapter@_W@__crt_stdio_output@@@__crt_stdio_output@@CA?AW4parameter_type@12@F@Z 0000000180050720 f i libucrtd:output.obj
 0001:0004f730       ?get_parameter_type@?$positional_parameter_base@_WV?$string_output_adapter@_W@__crt_stdio_output@@@__crt_stdio_output@@CA?AW4parameter_type@12@G@Z 0000000180050730 f i libucrtd:output.obj
 0001:0004f740       ?get_parameter_type@?$positional_parameter_base@_WV?$string_output_adapter@_W@__crt_stdio_output@@@__crt_stdio_output@@CA?AW4parameter_type@12@H@Z 0000000180050740 f i libucrtd:output.obj
 0001:0004f750       ?get_parameter_type@?$positional_parameter_base@_WV?$string_output_adapter@_W@__crt_stdio_output@@@__crt_stdio_output@@CA?AW4parameter_type@12@I@Z 0000000180050750 f i libucrtd:output.obj
 0001:0004f760       ?get_parameter_type@?$positional_parameter_base@_WV?$string_output_adapter@_W@__crt_stdio_output@@@__crt_stdio_output@@CA?AW4parameter_type@12@U_CRT_DOUBLE@@@Z 0000000180050760 f i libucrtd:output.obj
 0001:0004f770       ?get_parameter_type@?$positional_parameter_base@_WV?$string_output_adapter@_W@__crt_stdio_output@@@__crt_stdio_output@@CA?AW4parameter_type@12@_J@Z 0000000180050770 f i libucrtd:output.obj
 0001:0004f780       ?get_parameter_type@?$positional_parameter_base@_WV?$string_output_adapter@_W@__crt_stdio_output@@@__crt_stdio_output@@CA?AW4parameter_type@12@_K@Z 0000000180050780 f i libucrtd:output.obj
 0001:0004f790       ?get_parameter_type@?$positional_parameter_base@_WV?$string_output_adapter@_W@__crt_stdio_output@@@__crt_stdio_output@@CA?AW4parameter_type@12@_W@Z 0000000180050790 f i libucrtd:output.obj
 0001:0004f7a0       ?get_raw_ptd@__crt_cached_ptd_host@@QEAAPEAU__acrt_ptd@@XZ 00000001800507a0 f i libucrtd:output.obj
 0001:0004f7c0       ?has_flag@?$output_processor@DV?$stream_output_adapter@D@__crt_stdio_output@@V?$format_validation_base@DV?$stream_output_adapter@D@__crt_stdio_output@@@2@@__crt_stdio_output@@AEBA_NI@Z 00000001800507c0 f i libucrtd:output.obj
 0001:0004f800       ?has_flag@?$output_processor@DV?$stream_output_adapter@D@__crt_stdio_output@@V?$positional_parameter_base@DV?$stream_output_adapter@D@__crt_stdio_output@@@2@@__crt_stdio_output@@AEBA_NI@Z 0000000180050800 f i libucrtd:output.obj
 0001:0004f840       ?has_flag@?$output_processor@DV?$stream_output_adapter@D@__crt_stdio_output@@V?$standard_base@DV?$stream_output_adapter@D@__crt_stdio_output@@@2@@__crt_stdio_output@@AEBA_NI@Z 0000000180050840 f i libucrtd:output.obj
 0001:0004f880       ?has_flag@?$output_processor@DV?$string_output_adapter@D@__crt_stdio_output@@V?$format_validation_base@DV?$string_output_adapter@D@__crt_stdio_output@@@2@@__crt_stdio_output@@AEBA_NI@Z 0000000180050880 f i libucrtd:output.obj
 0001:0004f8c0       ?has_flag@?$output_processor@DV?$string_output_adapter@D@__crt_stdio_output@@V?$positional_parameter_base@DV?$string_output_adapter@D@__crt_stdio_output@@@2@@__crt_stdio_output@@AEBA_NI@Z 00000001800508c0 f i libucrtd:output.obj
 0001:0004f900       ?has_flag@?$output_processor@DV?$string_output_adapter@D@__crt_stdio_output@@V?$standard_base@DV?$string_output_adapter@D@__crt_stdio_output@@@2@@__crt_stdio_output@@AEBA_NI@Z 0000000180050900 f i libucrtd:output.obj
 0001:0004f940       ?has_flag@?$output_processor@_WV?$stream_output_adapter@_W@__crt_stdio_output@@V?$format_validation_base@_WV?$stream_output_adapter@_W@__crt_stdio_output@@@2@@__crt_stdio_output@@AEBA_NI@Z 0000000180050940 f i libucrtd:output.obj
 0001:0004f980       ?has_flag@?$output_processor@_WV?$stream_output_adapter@_W@__crt_stdio_output@@V?$positional_parameter_base@_WV?$stream_output_adapter@_W@__crt_stdio_output@@@2@@__crt_stdio_output@@AEBA_NI@Z 0000000180050980 f i libucrtd:output.obj
 0001:0004f9c0       ?has_flag@?$output_processor@_WV?$stream_output_adapter@_W@__crt_stdio_output@@V?$standard_base@_WV?$stream_output_adapter@_W@__crt_stdio_output@@@2@@__crt_stdio_output@@AEBA_NI@Z 00000001800509c0 f i libucrtd:output.obj
 0001:0004fa00       ?has_flag@?$output_processor@_WV?$string_output_adapter@_W@__crt_stdio_output@@V?$format_validation_base@_WV?$string_output_adapter@_W@__crt_stdio_output@@@2@@__crt_stdio_output@@AEBA_NI@Z 0000000180050a00 f i libucrtd:output.obj
 0001:0004fa40       ?has_flag@?$output_processor@_WV?$string_output_adapter@_W@__crt_stdio_output@@V?$positional_parameter_base@_WV?$string_output_adapter@_W@__crt_stdio_output@@@2@@__crt_stdio_output@@AEBA_NI@Z 0000000180050a40 f i libucrtd:output.obj
 0001:0004fa80       ?has_flag@?$output_processor@_WV?$string_output_adapter@_W@__crt_stdio_output@@V?$standard_base@_WV?$string_output_adapter@_W@__crt_stdio_output@@@2@@__crt_stdio_output@@AEBA_NI@Z 0000000180050a80 f i libucrtd:output.obj
 0001:0004fac0       ?is_positional_parameter_reappearance_consistent@?$positional_parameter_base@DV?$stream_output_adapter@D@__crt_stdio_output@@@__crt_stdio_output@@AEAA_NAEBUparameter_data@12@W4parameter_type@12@DW4length_modifier@2@@Z 0000000180050ac0 f i libucrtd:output.obj
 0001:0004fd20       ?is_positional_parameter_reappearance_consistent@?$positional_parameter_base@DV?$string_output_adapter@D@__crt_stdio_output@@@__crt_stdio_output@@AEAA_NAEBUparameter_data@12@W4parameter_type@12@DW4length_modifier@2@@Z 0000000180050d20 f i libucrtd:output.obj
 0001:0004ff80       ?is_positional_parameter_reappearance_consistent@?$positional_parameter_base@_WV?$stream_output_adapter@_W@__crt_stdio_output@@@__crt_stdio_output@@AEAA_NAEBUparameter_data@12@W4parameter_type@12@_WW4length_modifier@2@@Z 0000000180050f80 f i libucrtd:output.obj
 0001:000501e0       ?is_positional_parameter_reappearance_consistent@?$positional_parameter_base@_WV?$string_output_adapter@_W@__crt_stdio_output@@@__crt_stdio_output@@AEAA_NAEBUparameter_data@12@W4parameter_type@12@_WW4length_modifier@2@@Z 00000001800511e0 f i libucrtd:output.obj
 0001:00050440       ?is_string_backed@__crt_stdio_stream@@QEBA_NXZ 0000000180051440 f i libucrtd:output.obj
 0001:00050480       ?maximum_signed_value@__crt_strtox@@YAJK@Z 0000000180051480 f i libucrtd:output.obj
 0001:00050490       ?minimum_signed_value@__crt_strtox@@YAJK@Z 0000000180051490 f i libucrtd:output.obj
 0001:000504a0       ?narrow_null_string@?$output_processor@DV?$stream_output_adapter@D@__crt_stdio_output@@V?$format_validation_base@DV?$stream_output_adapter@D@__crt_stdio_output@@@2@@__crt_stdio_output@@CAPEADXZ 00000001800514a0 f i libucrtd:output.obj
 0001:000504b0       ?narrow_null_string@?$output_processor@DV?$stream_output_adapter@D@__crt_stdio_output@@V?$positional_parameter_base@DV?$stream_output_adapter@D@__crt_stdio_output@@@2@@__crt_stdio_output@@CAPEADXZ 00000001800514b0 f i libucrtd:output.obj
 0001:000504c0       ?narrow_null_string@?$output_processor@DV?$stream_output_adapter@D@__crt_stdio_output@@V?$standard_base@DV?$stream_output_adapter@D@__crt_stdio_output@@@2@@__crt_stdio_output@@CAPEADXZ 00000001800514c0 f i libucrtd:output.obj
 0001:000504d0       ?narrow_null_string@?$output_processor@DV?$string_output_adapter@D@__crt_stdio_output@@V?$format_validation_base@DV?$string_output_adapter@D@__crt_stdio_output@@@2@@__crt_stdio_output@@CAPEADXZ 00000001800514d0 f i libucrtd:output.obj
 0001:000504e0       ?narrow_null_string@?$output_processor@DV?$string_output_adapter@D@__crt_stdio_output@@V?$positional_parameter_base@DV?$string_output_adapter@D@__crt_stdio_output@@@2@@__crt_stdio_output@@CAPEADXZ 00000001800514e0 f i libucrtd:output.obj
 0001:000504f0       ?narrow_null_string@?$output_processor@DV?$string_output_adapter@D@__crt_stdio_output@@V?$standard_base@DV?$string_output_adapter@D@__crt_stdio_output@@@2@@__crt_stdio_output@@CAPEADXZ 00000001800514f0 f i libucrtd:output.obj
 0001:00050500       ?narrow_null_string@?$output_processor@_WV?$stream_output_adapter@_W@__crt_stdio_output@@V?$format_validation_base@_WV?$stream_output_adapter@_W@__crt_stdio_output@@@2@@__crt_stdio_output@@CAPEADXZ 0000000180051500 f i libucrtd:output.obj
 0001:00050510       ?narrow_null_string@?$output_processor@_WV?$stream_output_adapter@_W@__crt_stdio_output@@V?$positional_parameter_base@_WV?$stream_output_adapter@_W@__crt_stdio_output@@@2@@__crt_stdio_output@@CAPEADXZ 0000000180051510 f i libucrtd:output.obj
 0001:00050520       ?narrow_null_string@?$output_processor@_WV?$stream_output_adapter@_W@__crt_stdio_output@@V?$standard_base@_WV?$stream_output_adapter@_W@__crt_stdio_output@@@2@@__crt_stdio_output@@CAPEADXZ 0000000180051520 f i libucrtd:output.obj
 0001:00050530       ?narrow_null_string@?$output_processor@_WV?$string_output_adapter@_W@__crt_stdio_output@@V?$format_validation_base@_WV?$string_output_adapter@_W@__crt_stdio_output@@@2@@__crt_stdio_output@@CAPEADXZ 0000000180051530 f i libucrtd:output.obj
 0001:00050540       ?narrow_null_string@?$output_processor@_WV?$string_output_adapter@_W@__crt_stdio_output@@V?$positional_parameter_base@_WV?$string_output_adapter@_W@__crt_stdio_output@@@2@@__crt_stdio_output@@CAPEADXZ 0000000180051540 f i libucrtd:output.obj
 0001:00050550       ?narrow_null_string@?$output_processor@_WV?$string_output_adapter@_W@__crt_stdio_output@@V?$standard_base@_WV?$string_output_adapter@_W@__crt_stdio_output@@@2@@__crt_stdio_output@@CAPEADXZ 0000000180051550 f i libucrtd:output.obj
 0001:00050560       ?parse_digit@__crt_strtox@@YAID@Z 0000000180051560 f i libucrtd:output.obj
 0001:000505d0       ?parse_digit@__crt_strtox@@YAI_W@Z 00000001800515d0 f i libucrtd:output.obj
 0001:00050620       ?parse_int_from_format_string@?$output_processor@DV?$stream_output_adapter@D@__crt_stdio_output@@V?$format_validation_base@DV?$stream_output_adapter@D@__crt_stdio_output@@@2@@__crt_stdio_output@@AEAA_NQEAH@Z 0000000180051620 f i libucrtd:output.obj
 0001:00050720       ?parse_int_from_format_string@?$output_processor@DV?$stream_output_adapter@D@__crt_stdio_output@@V?$positional_parameter_base@DV?$stream_output_adapter@D@__crt_stdio_output@@@2@@__crt_stdio_output@@AEAA_NQEAH@Z 0000000180051720 f i libucrtd:output.obj
 0001:00050820       ?parse_int_from_format_string@?$output_processor@DV?$stream_output_adapter@D@__crt_stdio_output@@V?$standard_base@DV?$stream_output_adapter@D@__crt_stdio_output@@@2@@__crt_stdio_output@@AEAA_NQEAH@Z 0000000180051820 f i libucrtd:output.obj
 0001:00050920       ?parse_int_from_format_string@?$output_processor@DV?$string_output_adapter@D@__crt_stdio_output@@V?$format_validation_base@DV?$string_output_adapter@D@__crt_stdio_output@@@2@@__crt_stdio_output@@AEAA_NQEAH@Z 0000000180051920 f i libucrtd:output.obj
 0001:00050a20       ?parse_int_from_format_string@?$output_processor@DV?$string_output_adapter@D@__crt_stdio_output@@V?$positional_parameter_base@DV?$string_output_adapter@D@__crt_stdio_output@@@2@@__crt_stdio_output@@AEAA_NQEAH@Z 0000000180051a20 f i libucrtd:output.obj
 0001:00050b20       ?parse_int_from_format_string@?$output_processor@DV?$string_output_adapter@D@__crt_stdio_output@@V?$standard_base@DV?$string_output_adapter@D@__crt_stdio_output@@@2@@__crt_stdio_output@@AEAA_NQEAH@Z 0000000180051b20 f i libucrtd:output.obj
 0001:00050c20       ?parse_int_from_format_string@?$output_processor@_WV?$stream_output_adapter@_W@__crt_stdio_output@@V?$format_validation_base@_WV?$stream_output_adapter@_W@__crt_stdio_output@@@2@@__crt_stdio_output@@AEAA_NQEAH@Z 0000000180051c20 f i libucrtd:output.obj
 0001:00050d20       ?parse_int_from_format_string@?$output_processor@_WV?$stream_output_adapter@_W@__crt_stdio_output@@V?$positional_parameter_base@_WV?$stream_output_adapter@_W@__crt_stdio_output@@@2@@__crt_stdio_output@@AEAA_NQEAH@Z 0000000180051d20 f i libucrtd:output.obj
 0001:00050e20       ?parse_int_from_format_string@?$output_processor@_WV?$stream_output_adapter@_W@__crt_stdio_output@@V?$standard_base@_WV?$stream_output_adapter@_W@__crt_stdio_output@@@2@@__crt_stdio_output@@AEAA_NQEAH@Z 0000000180051e20 f i libucrtd:output.obj
 0001:00050f20       ?parse_int_from_format_string@?$output_processor@_WV?$string_output_adapter@_W@__crt_stdio_output@@V?$format_validation_base@_WV?$string_output_adapter@_W@__crt_stdio_output@@@2@@__crt_stdio_output@@AEAA_NQEAH@Z 0000000180051f20 f i libucrtd:output.obj
 0001:00051020       ?parse_int_from_format_string@?$output_processor@_WV?$string_output_adapter@_W@__crt_stdio_output@@V?$positional_parameter_base@_WV?$string_output_adapter@_W@__crt_stdio_output@@@2@@__crt_stdio_output@@AEAA_NQEAH@Z 0000000180052020 f i libucrtd:output.obj
 0001:00051120       ?parse_int_from_format_string@?$output_processor@_WV?$string_output_adapter@_W@__crt_stdio_output@@V?$standard_base@_WV?$string_output_adapter@_W@__crt_stdio_output@@@2@@__crt_stdio_output@@AEAA_NQEAH@Z 0000000180052120 f i libucrtd:output.obj
 0001:00051220       ?process@?$output_processor@DV?$stream_output_adapter@D@__crt_stdio_output@@V?$format_validation_base@DV?$stream_output_adapter@D@__crt_stdio_output@@@2@@__crt_stdio_output@@QEAAHXZ 0000000180052220 f i libucrtd:output.obj
 0001:000515e0       ?process@?$output_processor@DV?$stream_output_adapter@D@__crt_stdio_output@@V?$positional_parameter_base@DV?$stream_output_adapter@D@__crt_stdio_output@@@2@@__crt_stdio_output@@QEAAHXZ 00000001800525e0 f i libucrtd:output.obj
 0001:000519a0       ?process@?$output_processor@DV?$stream_output_adapter@D@__crt_stdio_output@@V?$standard_base@DV?$stream_output_adapter@D@__crt_stdio_output@@@2@@__crt_stdio_output@@QEAAHXZ 00000001800529a0 f i libucrtd:output.obj
 0001:00051d60       ?process@?$output_processor@DV?$string_output_adapter@D@__crt_stdio_output@@V?$format_validation_base@DV?$string_output_adapter@D@__crt_stdio_output@@@2@@__crt_stdio_output@@QEAAHXZ 0000000180052d60 f i libucrtd:output.obj
 0001:00052120       ?process@?$output_processor@DV?$string_output_adapter@D@__crt_stdio_output@@V?$positional_parameter_base@DV?$string_output_adapter@D@__crt_stdio_output@@@2@@__crt_stdio_output@@QEAAHXZ 0000000180053120 f i libucrtd:output.obj
 0001:000524e0       ?process@?$output_processor@DV?$string_output_adapter@D@__crt_stdio_output@@V?$standard_base@DV?$string_output_adapter@D@__crt_stdio_output@@@2@@__crt_stdio_output@@QEAAHXZ 00000001800534e0 f i libucrtd:output.obj
 0001:000528a0       ?process@?$output_processor@_WV?$stream_output_adapter@_W@__crt_stdio_output@@V?$format_validation_base@_WV?$stream_output_adapter@_W@__crt_stdio_output@@@2@@__crt_stdio_output@@QEAAHXZ 00000001800538a0 f i libucrtd:output.obj
 0001:00052c60       ?process@?$output_processor@_WV?$stream_output_adapter@_W@__crt_stdio_output@@V?$positional_parameter_base@_WV?$stream_output_adapter@_W@__crt_stdio_output@@@2@@__crt_stdio_output@@QEAAHXZ 0000000180053c60 f i libucrtd:output.obj
 0001:00053020       ?process@?$output_processor@_WV?$stream_output_adapter@_W@__crt_stdio_output@@V?$standard_base@_WV?$stream_output_adapter@_W@__crt_stdio_output@@@2@@__crt_stdio_output@@QEAAHXZ 0000000180054020 f i libucrtd:output.obj
 0001:000533e0       ?process@?$output_processor@_WV?$string_output_adapter@_W@__crt_stdio_output@@V?$format_validation_base@_WV?$string_output_adapter@_W@__crt_stdio_output@@@2@@__crt_stdio_output@@QEAAHXZ 00000001800543e0 f i libucrtd:output.obj
 0001:000537a0       ?process@?$output_processor@_WV?$string_output_adapter@_W@__crt_stdio_output@@V?$positional_parameter_base@_WV?$string_output_adapter@_W@__crt_stdio_output@@@2@@__crt_stdio_output@@QEAAHXZ 00000001800547a0 f i libucrtd:output.obj
 0001:00053b60       ?process@?$output_processor@_WV?$string_output_adapter@_W@__crt_stdio_output@@V?$standard_base@_WV?$string_output_adapter@_W@__crt_stdio_output@@@2@@__crt_stdio_output@@QEAAHXZ 0000000180054b60 f i libucrtd:output.obj
 0001:00053f20       ?public_stream@__crt_stdio_stream@@QEBAPEAU_iobuf@@XZ 0000000180054f20 f i libucrtd:output.obj
 0001:00053f30       ?restore_state@?$c_string_character_source@D@__crt_strtox@@QEAA_NQEBD@Z 0000000180054f30 f i libucrtd:output.obj
 0001:00053f50       ?restore_state@?$c_string_character_source@_W@__crt_strtox@@QEAA_NQEB_W@Z 0000000180054f50 f i libucrtd:output.obj
 0001:00053f70       ?save_state@?$c_string_character_source@D@__crt_strtox@@QEBAPEBDXZ 0000000180054f70 f i libucrtd:output.obj
 0001:00053f80       ?save_state@?$c_string_character_source@_W@__crt_strtox@@QEBAPEB_WXZ 0000000180054f80 f i libucrtd:output.obj
 0001:00053f90       ?set@?$cached@H@__crt_cached_ptd_host@@QEAAHH@Z 0000000180054f90 f i libucrtd:output.obj
 0001:00053fc0       ?set_flag@?$output_processor@DV?$stream_output_adapter@D@__crt_stdio_output@@V?$format_validation_base@DV?$stream_output_adapter@D@__crt_stdio_output@@@2@@__crt_stdio_output@@AEAAXI@Z 0000000180054fc0 f i libucrtd:output.obj
 0001:00053fe0       ?set_flag@?$output_processor@DV?$stream_output_adapter@D@__crt_stdio_output@@V?$positional_parameter_base@DV?$stream_output_adapter@D@__crt_stdio_output@@@2@@__crt_stdio_output@@AEAAXI@Z 0000000180054fe0 f i libucrtd:output.obj
 0001:00054000       ?set_flag@?$output_processor@DV?$stream_output_adapter@D@__crt_stdio_output@@V?$standard_base@DV?$stream_output_adapter@D@__crt_stdio_output@@@2@@__crt_stdio_output@@AEAAXI@Z 0000000180055000 f i libucrtd:output.obj
 0001:00054020       ?set_flag@?$output_processor@DV?$string_output_adapter@D@__crt_stdio_output@@V?$format_validation_base@DV?$string_output_adapter@D@__crt_stdio_output@@@2@@__crt_stdio_output@@AEAAXI@Z 0000000180055020 f i libucrtd:output.obj
 0001:00054040       ?set_flag@?$output_processor@DV?$string_output_adapter@D@__crt_stdio_output@@V?$positional_parameter_base@DV?$string_output_adapter@D@__crt_stdio_output@@@2@@__crt_stdio_output@@AEAAXI@Z 0000000180055040 f i libucrtd:output.obj
 0001:00054060       ?set_flag@?$output_processor@DV?$string_output_adapter@D@__crt_stdio_output@@V?$standard_base@DV?$string_output_adapter@D@__crt_stdio_output@@@2@@__crt_stdio_output@@AEAAXI@Z 0000000180055060 f i libucrtd:output.obj
 0001:00054080       ?set_flag@?$output_processor@_WV?$stream_output_adapter@_W@__crt_stdio_output@@V?$format_validation_base@_WV?$stream_output_adapter@_W@__crt_stdio_output@@@2@@__crt_stdio_output@@AEAAXI@Z 0000000180055080 f i libucrtd:output.obj
 0001:000540a0       ?set_flag@?$output_processor@_WV?$stream_output_adapter@_W@__crt_stdio_output@@V?$positional_parameter_base@_WV?$stream_output_adapter@_W@__crt_stdio_output@@@2@@__crt_stdio_output@@AEAAXI@Z 00000001800550a0 f i libucrtd:output.obj
 0001:000540c0       ?set_flag@?$output_processor@_WV?$stream_output_adapter@_W@__crt_stdio_output@@V?$standard_base@_WV?$stream_output_adapter@_W@__crt_stdio_output@@@2@@__crt_stdio_output@@AEAAXI@Z 00000001800550c0 f i libucrtd:output.obj
 0001:000540e0       ?set_flag@?$output_processor@_WV?$string_output_adapter@_W@__crt_stdio_output@@V?$format_validation_base@_WV?$string_output_adapter@_W@__crt_stdio_output@@@2@@__crt_stdio_output@@AEAAXI@Z 00000001800550e0 f i libucrtd:output.obj
 0001:00054100       ?set_flag@?$output_processor@_WV?$string_output_adapter@_W@__crt_stdio_output@@V?$positional_parameter_base@_WV?$string_output_adapter@_W@__crt_stdio_output@@@2@@__crt_stdio_output@@AEAAXI@Z 0000000180055100 f i libucrtd:output.obj
 0001:00054120       ?set_flag@?$output_processor@_WV?$string_output_adapter@_W@__crt_stdio_output@@V?$standard_base@_WV?$string_output_adapter@_W@__crt_stdio_output@@@2@@__crt_stdio_output@@AEAAXI@Z 0000000180055120 f i libucrtd:output.obj
 0001:00054140       ?should_format@?$positional_parameter_base@DV?$stream_output_adapter@D@__crt_stdio_output@@@__crt_stdio_output@@IEAA_NXZ 0000000180055140 f i libucrtd:output.obj
 0001:00054180       ?should_format@?$positional_parameter_base@DV?$string_output_adapter@D@__crt_stdio_output@@@__crt_stdio_output@@IEAA_NXZ 0000000180055180 f i libucrtd:output.obj
 0001:000541c0       ?should_format@?$positional_parameter_base@_WV?$stream_output_adapter@_W@__crt_stdio_output@@@__crt_stdio_output@@IEAA_NXZ 00000001800551c0 f i libucrtd:output.obj
 0001:00054200       ?should_format@?$positional_parameter_base@_WV?$string_output_adapter@_W@__crt_stdio_output@@@__crt_stdio_output@@IEAA_NXZ 0000000180055200 f i libucrtd:output.obj
 0001:00054240       ?should_format@?$standard_base@DV?$stream_output_adapter@D@__crt_stdio_output@@@__crt_stdio_output@@IEAA_NXZ 0000000180055240 f i libucrtd:output.obj
 0001:00054250       ?should_format@?$standard_base@DV?$string_output_adapter@D@__crt_stdio_output@@@__crt_stdio_output@@IEAA_NXZ 0000000180055250 f i libucrtd:output.obj
 0001:00054260       ?should_format@?$standard_base@_WV?$stream_output_adapter@_W@__crt_stdio_output@@@__crt_stdio_output@@IEAA_NXZ 0000000180055260 f i libucrtd:output.obj
 0001:00054270       ?should_format@?$standard_base@_WV?$string_output_adapter@_W@__crt_stdio_output@@@__crt_stdio_output@@IEAA_NXZ 0000000180055270 f i libucrtd:output.obj
 0001:00054280       ?should_skip_normal_state_processing@?$positional_parameter_base@DV?$stream_output_adapter@D@__crt_stdio_output@@@__crt_stdio_output@@IEAA_NXZ 0000000180055280 f i libucrtd:output.obj
 0001:000542d0       ?should_skip_normal_state_processing@?$positional_parameter_base@DV?$string_output_adapter@D@__crt_stdio_output@@@__crt_stdio_output@@IEAA_NXZ 00000001800552d0 f i libucrtd:output.obj
 0001:00054320       ?should_skip_normal_state_processing@?$positional_parameter_base@_WV?$stream_output_adapter@_W@__crt_stdio_output@@@__crt_stdio_output@@IEAA_NXZ 0000000180055320 f i libucrtd:output.obj
 0001:00054370       ?should_skip_normal_state_processing@?$positional_parameter_base@_WV?$string_output_adapter@_W@__crt_stdio_output@@@__crt_stdio_output@@IEAA_NXZ 0000000180055370 f i libucrtd:output.obj
 0001:000543c0       ?should_skip_normal_state_processing@?$standard_base@DV?$stream_output_adapter@D@__crt_stdio_output@@@__crt_stdio_output@@IEAA_NXZ 00000001800553c0 f i libucrtd:output.obj
 0001:000543d0       ?should_skip_normal_state_processing@?$standard_base@DV?$string_output_adapter@D@__crt_stdio_output@@@__crt_stdio_output@@IEAA_NXZ 00000001800553d0 f i libucrtd:output.obj
 0001:000543e0       ?should_skip_normal_state_processing@?$standard_base@_WV?$stream_output_adapter@_W@__crt_stdio_output@@@__crt_stdio_output@@IEAA_NXZ 00000001800553e0 f i libucrtd:output.obj
 0001:000543f0       ?should_skip_normal_state_processing@?$standard_base@_WV?$string_output_adapter@_W@__crt_stdio_output@@@__crt_stdio_output@@IEAA_NXZ 00000001800553f0 f i libucrtd:output.obj
 0001:00054400       ?should_skip_type_state_output@?$positional_parameter_base@DV?$stream_output_adapter@D@__crt_stdio_output@@@__crt_stdio_output@@IEBA_NXZ 0000000180055400 f i libucrtd:output.obj
 0001:00054440       ?should_skip_type_state_output@?$positional_parameter_base@DV?$string_output_adapter@D@__crt_stdio_output@@@__crt_stdio_output@@IEBA_NXZ 0000000180055440 f i libucrtd:output.obj
 0001:00054480       ?should_skip_type_state_output@?$positional_parameter_base@_WV?$stream_output_adapter@_W@__crt_stdio_output@@@__crt_stdio_output@@IEBA_NXZ 0000000180055480 f i libucrtd:output.obj
 0001:000544c0       ?should_skip_type_state_output@?$positional_parameter_base@_WV?$string_output_adapter@_W@__crt_stdio_output@@@__crt_stdio_output@@IEBA_NXZ 00000001800554c0 f i libucrtd:output.obj
 0001:00054500       ?should_skip_type_state_output@?$standard_base@DV?$stream_output_adapter@D@__crt_stdio_output@@@__crt_stdio_output@@IEBA_NXZ 0000000180055500 f i libucrtd:output.obj
 0001:00054510       ?should_skip_type_state_output@?$standard_base@DV?$string_output_adapter@D@__crt_stdio_output@@@__crt_stdio_output@@IEBA_NXZ 0000000180055510 f i libucrtd:output.obj
 0001:00054520       ?should_skip_type_state_output@?$standard_base@_WV?$stream_output_adapter@_W@__crt_stdio_output@@@__crt_stdio_output@@IEBA_NXZ 0000000180055520 f i libucrtd:output.obj
 0001:00054530       ?should_skip_type_state_output@?$standard_base@_WV?$string_output_adapter@_W@__crt_stdio_output@@@__crt_stdio_output@@IEBA_NXZ 0000000180055530 f i libucrtd:output.obj
 0001:00054540       ?state_case_dot@?$output_processor@DV?$stream_output_adapter@D@__crt_stdio_output@@V?$format_validation_base@DV?$stream_output_adapter@D@__crt_stdio_output@@@2@@__crt_stdio_output@@AEAA_NXZ 0000000180055540 f i libucrtd:output.obj
 0001:00054560       ?state_case_dot@?$output_processor@DV?$stream_output_adapter@D@__crt_stdio_output@@V?$positional_parameter_base@DV?$stream_output_adapter@D@__crt_stdio_output@@@2@@__crt_stdio_output@@AEAA_NXZ 0000000180055560 f i libucrtd:output.obj
 0001:00054580       ?state_case_dot@?$output_processor@DV?$stream_output_adapter@D@__crt_stdio_output@@V?$standard_base@DV?$stream_output_adapter@D@__crt_stdio_output@@@2@@__crt_stdio_output@@AEAA_NXZ 0000000180055580 f i libucrtd:output.obj
 0001:000545a0       ?state_case_dot@?$output_processor@DV?$string_output_adapter@D@__crt_stdio_output@@V?$format_validation_base@DV?$string_output_adapter@D@__crt_stdio_output@@@2@@__crt_stdio_output@@AEAA_NXZ 00000001800555a0 f i libucrtd:output.obj
 0001:000545c0       ?state_case_dot@?$output_processor@DV?$string_output_adapter@D@__crt_stdio_output@@V?$positional_parameter_base@DV?$string_output_adapter@D@__crt_stdio_output@@@2@@__crt_stdio_output@@AEAA_NXZ 00000001800555c0 f i libucrtd:output.obj
 0001:000545e0       ?state_case_dot@?$output_processor@DV?$string_output_adapter@D@__crt_stdio_output@@V?$standard_base@DV?$string_output_adapter@D@__crt_stdio_output@@@2@@__crt_stdio_output@@AEAA_NXZ 00000001800555e0 f i libucrtd:output.obj
 0001:00054600       ?state_case_dot@?$output_processor@_WV?$stream_output_adapter@_W@__crt_stdio_output@@V?$format_validation_base@_WV?$stream_output_adapter@_W@__crt_stdio_output@@@2@@__crt_stdio_output@@AEAA_NXZ 0000000180055600 f i libucrtd:output.obj
 0001:00054620       ?state_case_dot@?$output_processor@_WV?$stream_output_adapter@_W@__crt_stdio_output@@V?$positional_parameter_base@_WV?$stream_output_adapter@_W@__crt_stdio_output@@@2@@__crt_stdio_output@@AEAA_NXZ 0000000180055620 f i libucrtd:output.obj
 0001:00054640       ?state_case_dot@?$output_processor@_WV?$stream_output_adapter@_W@__crt_stdio_output@@V?$standard_base@_WV?$stream_output_adapter@_W@__crt_stdio_output@@@2@@__crt_stdio_output@@AEAA_NXZ 0000000180055640 f i libucrtd:output.obj
 0001:00054660       ?state_case_dot@?$output_processor@_WV?$string_output_adapter@_W@__crt_stdio_output@@V?$format_validation_base@_WV?$string_output_adapter@_W@__crt_stdio_output@@@2@@__crt_stdio_output@@AEAA_NXZ 0000000180055660 f i libucrtd:output.obj
 0001:00054680       ?state_case_dot@?$output_processor@_WV?$string_output_adapter@_W@__crt_stdio_output@@V?$positional_parameter_base@_WV?$string_output_adapter@_W@__crt_stdio_output@@@2@@__crt_stdio_output@@AEAA_NXZ 0000000180055680 f i libucrtd:output.obj
 0001:000546a0       ?state_case_dot@?$output_processor@_WV?$string_output_adapter@_W@__crt_stdio_output@@V?$standard_base@_WV?$string_output_adapter@_W@__crt_stdio_output@@@2@@__crt_stdio_output@@AEAA_NXZ 00000001800556a0 f i libucrtd:output.obj
 0001:000546c0       ?state_case_flag@?$output_processor@DV?$stream_output_adapter@D@__crt_stdio_output@@V?$format_validation_base@DV?$stream_output_adapter@D@__crt_stdio_output@@@2@@__crt_stdio_output@@AEAA_NXZ 00000001800556c0 f i libucrtd:output.obj
 0001:00054760       ?state_case_flag@?$output_processor@DV?$stream_output_adapter@D@__crt_stdio_output@@V?$positional_parameter_base@DV?$stream_output_adapter@D@__crt_stdio_output@@@2@@__crt_stdio_output@@AEAA_NXZ 0000000180055760 f i libucrtd:output.obj
 0001:00054800       ?state_case_flag@?$output_processor@DV?$stream_output_adapter@D@__crt_stdio_output@@V?$standard_base@DV?$stream_output_adapter@D@__crt_stdio_output@@@2@@__crt_stdio_output@@AEAA_NXZ 0000000180055800 f i libucrtd:output.obj
 0001:000548a0       ?state_case_flag@?$output_processor@DV?$string_output_adapter@D@__crt_stdio_output@@V?$format_validation_base@DV?$string_output_adapter@D@__crt_stdio_output@@@2@@__crt_stdio_output@@AEAA_NXZ 00000001800558a0 f i libucrtd:output.obj
 0001:00054940       ?state_case_flag@?$output_processor@DV?$string_output_adapter@D@__crt_stdio_output@@V?$positional_parameter_base@DV?$string_output_adapter@D@__crt_stdio_output@@@2@@__crt_stdio_output@@AEAA_NXZ 0000000180055940 f i libucrtd:output.obj
 0001:000549e0       ?state_case_flag@?$output_processor@DV?$string_output_adapter@D@__crt_stdio_output@@V?$standard_base@DV?$string_output_adapter@D@__crt_stdio_output@@@2@@__crt_stdio_output@@AEAA_NXZ 00000001800559e0 f i libucrtd:output.obj
 0001:00054a80       ?state_case_flag@?$output_processor@_WV?$stream_output_adapter@_W@__crt_stdio_output@@V?$format_validation_base@_WV?$stream_output_adapter@_W@__crt_stdio_output@@@2@@__crt_stdio_output@@AEAA_NXZ 0000000180055a80 f i libucrtd:output.obj
 0001:00054b20       ?state_case_flag@?$output_processor@_WV?$stream_output_adapter@_W@__crt_stdio_output@@V?$positional_parameter_base@_WV?$stream_output_adapter@_W@__crt_stdio_output@@@2@@__crt_stdio_output@@AEAA_NXZ 0000000180055b20 f i libucrtd:output.obj
 0001:00054bc0       ?state_case_flag@?$output_processor@_WV?$stream_output_adapter@_W@__crt_stdio_output@@V?$standard_base@_WV?$stream_output_adapter@_W@__crt_stdio_output@@@2@@__crt_stdio_output@@AEAA_NXZ 0000000180055bc0 f i libucrtd:output.obj
 0001:00054c60       ?state_case_flag@?$output_processor@_WV?$string_output_adapter@_W@__crt_stdio_output@@V?$format_validation_base@_WV?$string_output_adapter@_W@__crt_stdio_output@@@2@@__crt_stdio_output@@AEAA_NXZ 0000000180055c60 f i libucrtd:output.obj
 0001:00054d00       ?state_case_flag@?$output_processor@_WV?$string_output_adapter@_W@__crt_stdio_output@@V?$positional_parameter_base@_WV?$string_output_adapter@_W@__crt_stdio_output@@@2@@__crt_stdio_output@@AEAA_NXZ 0000000180055d00 f i libucrtd:output.obj
 0001:00054da0       ?state_case_flag@?$output_processor@_WV?$string_output_adapter@_W@__crt_stdio_output@@V?$standard_base@_WV?$string_output_adapter@_W@__crt_stdio_output@@@2@@__crt_stdio_output@@AEAA_NXZ 0000000180055da0 f i libucrtd:output.obj
 0001:00054e40       ?state_case_normal@?$output_processor@DV?$stream_output_adapter@D@__crt_stdio_output@@V?$format_validation_base@DV?$stream_output_adapter@D@__crt_stdio_output@@@2@@__crt_stdio_output@@AEAA_NXZ 0000000180055e40 f i libucrtd:output.obj
 0001:00054f40       ?state_case_normal@?$output_processor@DV?$stream_output_adapter@D@__crt_stdio_output@@V?$positional_parameter_base@DV?$stream_output_adapter@D@__crt_stdio_output@@@2@@__crt_stdio_output@@AEAA_NXZ 0000000180055f40 f i libucrtd:output.obj
 0001:00055040       ?state_case_normal@?$output_processor@DV?$stream_output_adapter@D@__crt_stdio_output@@V?$standard_base@DV?$stream_output_adapter@D@__crt_stdio_output@@@2@@__crt_stdio_output@@AEAA_NXZ 0000000180056040 f i libucrtd:output.obj
 0001:00055140       ?state_case_normal@?$output_processor@DV?$string_output_adapter@D@__crt_stdio_output@@V?$format_validation_base@DV?$string_output_adapter@D@__crt_stdio_output@@@2@@__crt_stdio_output@@AEAA_NXZ 0000000180056140 f i libucrtd:output.obj
 0001:00055240       ?state_case_normal@?$output_processor@DV?$string_output_adapter@D@__crt_stdio_output@@V?$positional_parameter_base@DV?$string_output_adapter@D@__crt_stdio_output@@@2@@__crt_stdio_output@@AEAA_NXZ 0000000180056240 f i libucrtd:output.obj
 0001:00055340       ?state_case_normal@?$output_processor@DV?$string_output_adapter@D@__crt_stdio_output@@V?$standard_base@DV?$string_output_adapter@D@__crt_stdio_output@@@2@@__crt_stdio_output@@AEAA_NXZ 0000000180056340 f i libucrtd:output.obj
 0001:00055440       ?state_case_normal@?$output_processor@_WV?$stream_output_adapter@_W@__crt_stdio_output@@V?$format_validation_base@_WV?$stream_output_adapter@_W@__crt_stdio_output@@@2@@__crt_stdio_output@@AEAA_NXZ 0000000180056440 f i libucrtd:output.obj
 0001:00055540       ?state_case_normal@?$output_processor@_WV?$stream_output_adapter@_W@__crt_stdio_output@@V?$positional_parameter_base@_WV?$stream_output_adapter@_W@__crt_stdio_output@@@2@@__crt_stdio_output@@AEAA_NXZ 0000000180056540 f i libucrtd:output.obj
 0001:00055640       ?state_case_normal@?$output_processor@_WV?$stream_output_adapter@_W@__crt_stdio_output@@V?$standard_base@_WV?$stream_output_adapter@_W@__crt_stdio_output@@@2@@__crt_stdio_output@@AEAA_NXZ 0000000180056640 f i libucrtd:output.obj
 0001:00055740       ?state_case_normal@?$output_processor@_WV?$string_output_adapter@_W@__crt_stdio_output@@V?$format_validation_base@_WV?$string_output_adapter@_W@__crt_stdio_output@@@2@@__crt_stdio_output@@AEAA_NXZ 0000000180056740 f i libucrtd:output.obj
 0001:00055840       ?state_case_normal@?$output_processor@_WV?$string_output_adapter@_W@__crt_stdio_output@@V?$positional_parameter_base@_WV?$string_output_adapter@_W@__crt_stdio_output@@@2@@__crt_stdio_output@@AEAA_NXZ 0000000180056840 f i libucrtd:output.obj
 0001:00055940       ?state_case_normal@?$output_processor@_WV?$string_output_adapter@_W@__crt_stdio_output@@V?$standard_base@_WV?$string_output_adapter@_W@__crt_stdio_output@@@2@@__crt_stdio_output@@AEAA_NXZ 0000000180056940 f i libucrtd:output.obj
 0001:00055a40       ?state_case_normal_common@?$output_processor@DV?$stream_output_adapter@D@__crt_stdio_output@@V?$format_validation_base@DV?$stream_output_adapter@D@__crt_stdio_output@@@2@@__crt_stdio_output@@AEAA_NXZ 0000000180056a40 f i libucrtd:output.obj
 0001:00055aa0       ?state_case_normal_common@?$output_processor@DV?$stream_output_adapter@D@__crt_stdio_output@@V?$positional_parameter_base@DV?$stream_output_adapter@D@__crt_stdio_output@@@2@@__crt_stdio_output@@AEAA_NXZ 0000000180056aa0 f i libucrtd:output.obj
 0001:00055b00       ?state_case_normal_common@?$output_processor@DV?$stream_output_adapter@D@__crt_stdio_output@@V?$standard_base@DV?$stream_output_adapter@D@__crt_stdio_output@@@2@@__crt_stdio_output@@AEAA_NXZ 0000000180056b00 f i libucrtd:output.obj
 0001:00055b60       ?state_case_normal_common@?$output_processor@DV?$string_output_adapter@D@__crt_stdio_output@@V?$format_validation_base@DV?$string_output_adapter@D@__crt_stdio_output@@@2@@__crt_stdio_output@@AEAA_NXZ 0000000180056b60 f i libucrtd:output.obj
 0001:00055bc0       ?state_case_normal_common@?$output_processor@DV?$string_output_adapter@D@__crt_stdio_output@@V?$positional_parameter_base@DV?$string_output_adapter@D@__crt_stdio_output@@@2@@__crt_stdio_output@@AEAA_NXZ 0000000180056bc0 f i libucrtd:output.obj
 0001:00055c20       ?state_case_normal_common@?$output_processor@DV?$string_output_adapter@D@__crt_stdio_output@@V?$standard_base@DV?$string_output_adapter@D@__crt_stdio_output@@@2@@__crt_stdio_output@@AEAA_NXZ 0000000180056c20 f i libucrtd:output.obj
 0001:00055c80       ?state_case_normal_common@?$output_processor@_WV?$stream_output_adapter@_W@__crt_stdio_output@@V?$format_validation_base@_WV?$stream_output_adapter@_W@__crt_stdio_output@@@2@@__crt_stdio_output@@AEAA_NXZ 0000000180056c80 f i libucrtd:output.obj
 0001:00055ce0       ?state_case_normal_common@?$output_processor@_WV?$stream_output_adapter@_W@__crt_stdio_output@@V?$positional_parameter_base@_WV?$stream_output_adapter@_W@__crt_stdio_output@@@2@@__crt_stdio_output@@AEAA_NXZ 0000000180056ce0 f i libucrtd:output.obj
 0001:00055d40       ?state_case_normal_common@?$output_processor@_WV?$stream_output_adapter@_W@__crt_stdio_output@@V?$standard_base@_WV?$stream_output_adapter@_W@__crt_stdio_output@@@2@@__crt_stdio_output@@AEAA_NXZ 0000000180056d40 f i libucrtd:output.obj
 0001:00055da0       ?state_case_normal_common@?$output_processor@_WV?$string_output_adapter@_W@__crt_stdio_output@@V?$format_validation_base@_WV?$string_output_adapter@_W@__crt_stdio_output@@@2@@__crt_stdio_output@@AEAA_NXZ 0000000180056da0 f i libucrtd:output.obj
 0001:00055e00       ?state_case_normal_common@?$output_processor@_WV?$string_output_adapter@_W@__crt_stdio_output@@V?$positional_parameter_base@_WV?$string_output_adapter@_W@__crt_stdio_output@@@2@@__crt_stdio_output@@AEAA_NXZ 0000000180056e00 f i libucrtd:output.obj
 0001:00055e60       ?state_case_normal_common@?$output_processor@_WV?$string_output_adapter@_W@__crt_stdio_output@@V?$standard_base@_WV?$string_output_adapter@_W@__crt_stdio_output@@@2@@__crt_stdio_output@@AEAA_NXZ 0000000180056e60 f i libucrtd:output.obj
 0001:00055ec0       ?state_case_normal_tchar@?$output_processor@DV?$stream_output_adapter@D@__crt_stdio_output@@V?$format_validation_base@DV?$stream_output_adapter@D@__crt_stdio_output@@@2@@__crt_stdio_output@@AEAA_ND@Z 0000000180056ec0 f i libucrtd:output.obj
 0001:00056050       ?state_case_normal_tchar@?$output_processor@DV?$stream_output_adapter@D@__crt_stdio_output@@V?$positional_parameter_base@DV?$stream_output_adapter@D@__crt_stdio_output@@@2@@__crt_stdio_output@@AEAA_ND@Z 0000000180057050 f i libucrtd:output.obj
 0001:000561e0       ?state_case_normal_tchar@?$output_processor@DV?$stream_output_adapter@D@__crt_stdio_output@@V?$standard_base@DV?$stream_output_adapter@D@__crt_stdio_output@@@2@@__crt_stdio_output@@AEAA_ND@Z 00000001800571e0 f i libucrtd:output.obj
 0001:00056370       ?state_case_normal_tchar@?$output_processor@DV?$string_output_adapter@D@__crt_stdio_output@@V?$format_validation_base@DV?$string_output_adapter@D@__crt_stdio_output@@@2@@__crt_stdio_output@@AEAA_ND@Z 0000000180057370 f i libucrtd:output.obj
 0001:00056500       ?state_case_normal_tchar@?$output_processor@DV?$string_output_adapter@D@__crt_stdio_output@@V?$positional_parameter_base@DV?$string_output_adapter@D@__crt_stdio_output@@@2@@__crt_stdio_output@@AEAA_ND@Z 0000000180057500 f i libucrtd:output.obj
 0001:00056690       ?state_case_normal_tchar@?$output_processor@DV?$string_output_adapter@D@__crt_stdio_output@@V?$standard_base@DV?$string_output_adapter@D@__crt_stdio_output@@@2@@__crt_stdio_output@@AEAA_ND@Z 0000000180057690 f i libucrtd:output.obj
 0001:00056820       ?state_case_normal_tchar@?$output_processor@_WV?$stream_output_adapter@_W@__crt_stdio_output@@V?$format_validation_base@_WV?$stream_output_adapter@_W@__crt_stdio_output@@@2@@__crt_stdio_output@@AEAA_N_W@Z 0000000180057820 f i libucrtd:output.obj
 0001:00056840       ?state_case_normal_tchar@?$output_processor@_WV?$stream_output_adapter@_W@__crt_stdio_output@@V?$positional_parameter_base@_WV?$stream_output_adapter@_W@__crt_stdio_output@@@2@@__crt_stdio_output@@AEAA_N_W@Z 0000000180057840 f i libucrtd:output.obj
 0001:00056860       ?state_case_normal_tchar@?$output_processor@_WV?$stream_output_adapter@_W@__crt_stdio_output@@V?$standard_base@_WV?$stream_output_adapter@_W@__crt_stdio_output@@@2@@__crt_stdio_output@@AEAA_N_W@Z 0000000180057860 f i libucrtd:output.obj
 0001:00056880       ?state_case_normal_tchar@?$output_processor@_WV?$string_output_adapter@_W@__crt_stdio_output@@V?$format_validation_base@_WV?$string_output_adapter@_W@__crt_stdio_output@@@2@@__crt_stdio_output@@AEAA_N_W@Z 0000000180057880 f i libucrtd:output.obj
 0001:000568a0       ?state_case_normal_tchar@?$output_processor@_WV?$string_output_adapter@_W@__crt_stdio_output@@V?$positional_parameter_base@_WV?$string_output_adapter@_W@__crt_stdio_output@@@2@@__crt_stdio_output@@AEAA_N_W@Z 00000001800578a0 f i libucrtd:output.obj
 0001:000568c0       ?state_case_normal_tchar@?$output_processor@_WV?$string_output_adapter@_W@__crt_stdio_output@@V?$standard_base@_WV?$string_output_adapter@_W@__crt_stdio_output@@@2@@__crt_stdio_output@@AEAA_N_W@Z 00000001800578c0 f i libucrtd:output.obj
 0001:000568e0       ?state_case_percent@?$output_processor@DV?$stream_output_adapter@D@__crt_stdio_output@@V?$format_validation_base@DV?$stream_output_adapter@D@__crt_stdio_output@@@2@@__crt_stdio_output@@AEAA_NXZ 00000001800578e0 f i libucrtd:output.obj
 0001:00056930       ?state_case_percent@?$output_processor@DV?$stream_output_adapter@D@__crt_stdio_output@@V?$positional_parameter_base@DV?$stream_output_adapter@D@__crt_stdio_output@@@2@@__crt_stdio_output@@AEAA_NXZ 0000000180057930 f i libucrtd:output.obj
 0001:00056980       ?state_case_percent@?$output_processor@DV?$stream_output_adapter@D@__crt_stdio_output@@V?$standard_base@DV?$stream_output_adapter@D@__crt_stdio_output@@@2@@__crt_stdio_output@@AEAA_NXZ 0000000180057980 f i libucrtd:output.obj
 0001:000569d0       ?state_case_percent@?$output_processor@DV?$string_output_adapter@D@__crt_stdio_output@@V?$format_validation_base@DV?$string_output_adapter@D@__crt_stdio_output@@@2@@__crt_stdio_output@@AEAA_NXZ 00000001800579d0 f i libucrtd:output.obj
 0001:00056a20       ?state_case_percent@?$output_processor@DV?$string_output_adapter@D@__crt_stdio_output@@V?$positional_parameter_base@DV?$string_output_adapter@D@__crt_stdio_output@@@2@@__crt_stdio_output@@AEAA_NXZ 0000000180057a20 f i libucrtd:output.obj
 0001:00056a70       ?state_case_percent@?$output_processor@DV?$string_output_adapter@D@__crt_stdio_output@@V?$standard_base@DV?$string_output_adapter@D@__crt_stdio_output@@@2@@__crt_stdio_output@@AEAA_NXZ 0000000180057a70 f i libucrtd:output.obj
 0001:00056ac0       ?state_case_percent@?$output_processor@_WV?$stream_output_adapter@_W@__crt_stdio_output@@V?$format_validation_base@_WV?$stream_output_adapter@_W@__crt_stdio_output@@@2@@__crt_stdio_output@@AEAA_NXZ 0000000180057ac0 f i libucrtd:output.obj
 0001:00056b10       ?state_case_percent@?$output_processor@_WV?$stream_output_adapter@_W@__crt_stdio_output@@V?$positional_parameter_base@_WV?$stream_output_adapter@_W@__crt_stdio_output@@@2@@__crt_stdio_output@@AEAA_NXZ 0000000180057b10 f i libucrtd:output.obj
 0001:00056b60       ?state_case_percent@?$output_processor@_WV?$stream_output_adapter@_W@__crt_stdio_output@@V?$standard_base@_WV?$stream_output_adapter@_W@__crt_stdio_output@@@2@@__crt_stdio_output@@AEAA_NXZ 0000000180057b60 f i libucrtd:output.obj
 0001:00056bb0       ?state_case_percent@?$output_processor@_WV?$string_output_adapter@_W@__crt_stdio_output@@V?$format_validation_base@_WV?$string_output_adapter@_W@__crt_stdio_output@@@2@@__crt_stdio_output@@AEAA_NXZ 0000000180057bb0 f i libucrtd:output.obj
 0001:00056c00       ?state_case_percent@?$output_processor@_WV?$string_output_adapter@_W@__crt_stdio_output@@V?$positional_parameter_base@_WV?$string_output_adapter@_W@__crt_stdio_output@@@2@@__crt_stdio_output@@AEAA_NXZ 0000000180057c00 f i libucrtd:output.obj
 0001:00056c50       ?state_case_percent@?$output_processor@_WV?$string_output_adapter@_W@__crt_stdio_output@@V?$standard_base@_WV?$string_output_adapter@_W@__crt_stdio_output@@@2@@__crt_stdio_output@@AEAA_NXZ 0000000180057c50 f i libucrtd:output.obj
 0001:00056ca0       ?state_case_precision@?$output_processor@DV?$stream_output_adapter@D@__crt_stdio_output@@V?$format_validation_base@DV?$stream_output_adapter@D@__crt_stdio_output@@@2@@__crt_stdio_output@@AEAA_NXZ 0000000180057ca0 f i libucrtd:output.obj
 0001:00056d20       ?state_case_precision@?$output_processor@DV?$stream_output_adapter@D@__crt_stdio_output@@V?$positional_parameter_base@DV?$stream_output_adapter@D@__crt_stdio_output@@@2@@__crt_stdio_output@@AEAA_NXZ 0000000180057d20 f i libucrtd:output.obj
 0001:00056da0       ?state_case_precision@?$output_processor@DV?$stream_output_adapter@D@__crt_stdio_output@@V?$standard_base@DV?$stream_output_adapter@D@__crt_stdio_output@@@2@@__crt_stdio_output@@AEAA_NXZ 0000000180057da0 f i libucrtd:output.obj
 0001:00056e20       ?state_case_precision@?$output_processor@DV?$string_output_adapter@D@__crt_stdio_output@@V?$format_validation_base@DV?$string_output_adapter@D@__crt_stdio_output@@@2@@__crt_stdio_output@@AEAA_NXZ 0000000180057e20 f i libucrtd:output.obj
 0001:00056ea0       ?state_case_precision@?$output_processor@DV?$string_output_adapter@D@__crt_stdio_output@@V?$positional_parameter_base@DV?$string_output_adapter@D@__crt_stdio_output@@@2@@__crt_stdio_output@@AEAA_NXZ 0000000180057ea0 f i libucrtd:output.obj
 0001:00056f20       ?state_case_precision@?$output_processor@DV?$string_output_adapter@D@__crt_stdio_output@@V?$standard_base@DV?$string_output_adapter@D@__crt_stdio_output@@@2@@__crt_stdio_output@@AEAA_NXZ 0000000180057f20 f i libucrtd:output.obj
 0001:00056fa0       ?state_case_precision@?$output_processor@_WV?$stream_output_adapter@_W@__crt_stdio_output@@V?$format_validation_base@_WV?$stream_output_adapter@_W@__crt_stdio_output@@@2@@__crt_stdio_output@@AEAA_NXZ 0000000180057fa0 f i libucrtd:output.obj
 0001:00057020       ?state_case_precision@?$output_processor@_WV?$stream_output_adapter@_W@__crt_stdio_output@@V?$positional_parameter_base@_WV?$stream_output_adapter@_W@__crt_stdio_output@@@2@@__crt_stdio_output@@AEAA_NXZ 0000000180058020 f i libucrtd:output.obj
 0001:000570a0       ?state_case_precision@?$output_processor@_WV?$stream_output_adapter@_W@__crt_stdio_output@@V?$standard_base@_WV?$stream_output_adapter@_W@__crt_stdio_output@@@2@@__crt_stdio_output@@AEAA_NXZ 00000001800580a0 f i libucrtd:output.obj
 0001:00057120       ?state_case_precision@?$output_processor@_WV?$string_output_adapter@_W@__crt_stdio_output@@V?$format_validation_base@_WV?$string_output_adapter@_W@__crt_stdio_output@@@2@@__crt_stdio_output@@AEAA_NXZ 0000000180058120 f i libucrtd:output.obj
 0001:000571a0       ?state_case_precision@?$output_processor@_WV?$string_output_adapter@_W@__crt_stdio_output@@V?$positional_parameter_base@_WV?$string_output_adapter@_W@__crt_stdio_output@@@2@@__crt_stdio_output@@AEAA_NXZ 00000001800581a0 f i libucrtd:output.obj
 0001:00057220       ?state_case_precision@?$output_processor@_WV?$string_output_adapter@_W@__crt_stdio_output@@V?$standard_base@_WV?$string_output_adapter@_W@__crt_stdio_output@@@2@@__crt_stdio_output@@AEAA_NXZ 0000000180058220 f i libucrtd:output.obj
 0001:000572a0       ?state_case_size@?$output_processor@DV?$stream_output_adapter@D@__crt_stdio_output@@V?$format_validation_base@DV?$stream_output_adapter@D@__crt_stdio_output@@@2@@__crt_stdio_output@@AEAA_NXZ 00000001800582a0 f i libucrtd:output.obj
 0001:00057760       ?state_case_size@?$output_processor@DV?$stream_output_adapter@D@__crt_stdio_output@@V?$positional_parameter_base@DV?$stream_output_adapter@D@__crt_stdio_output@@@2@@__crt_stdio_output@@AEAA_NXZ 0000000180058760 f i libucrtd:output.obj
 0001:00057c20       ?state_case_size@?$output_processor@DV?$stream_output_adapter@D@__crt_stdio_output@@V?$standard_base@DV?$stream_output_adapter@D@__crt_stdio_output@@@2@@__crt_stdio_output@@AEAA_NXZ 0000000180058c20 f i libucrtd:output.obj
 0001:000580e0       ?state_case_size@?$output_processor@DV?$string_output_adapter@D@__crt_stdio_output@@V?$format_validation_base@DV?$string_output_adapter@D@__crt_stdio_output@@@2@@__crt_stdio_output@@AEAA_NXZ 00000001800590e0 f i libucrtd:output.obj
 0001:000585a0       ?state_case_size@?$output_processor@DV?$string_output_adapter@D@__crt_stdio_output@@V?$positional_parameter_base@DV?$string_output_adapter@D@__crt_stdio_output@@@2@@__crt_stdio_output@@AEAA_NXZ 00000001800595a0 f i libucrtd:output.obj
 0001:00058a60       ?state_case_size@?$output_processor@DV?$string_output_adapter@D@__crt_stdio_output@@V?$standard_base@DV?$string_output_adapter@D@__crt_stdio_output@@@2@@__crt_stdio_output@@AEAA_NXZ 0000000180059a60 f i libucrtd:output.obj
 0001:00058f20       ?state_case_size@?$output_processor@_WV?$stream_output_adapter@_W@__crt_stdio_output@@V?$format_validation_base@_WV?$stream_output_adapter@_W@__crt_stdio_output@@@2@@__crt_stdio_output@@AEAA_NXZ 0000000180059f20 f i libucrtd:output.obj
 0001:000593e0       ?state_case_size@?$output_processor@_WV?$stream_output_adapter@_W@__crt_stdio_output@@V?$positional_parameter_base@_WV?$stream_output_adapter@_W@__crt_stdio_output@@@2@@__crt_stdio_output@@AEAA_NXZ 000000018005a3e0 f i libucrtd:output.obj
 0001:000598a0       ?state_case_size@?$output_processor@_WV?$stream_output_adapter@_W@__crt_stdio_output@@V?$standard_base@_WV?$stream_output_adapter@_W@__crt_stdio_output@@@2@@__crt_stdio_output@@AEAA_NXZ 000000018005a8a0 f i libucrtd:output.obj
 0001:00059d60       ?state_case_size@?$output_processor@_WV?$string_output_adapter@_W@__crt_stdio_output@@V?$format_validation_base@_WV?$string_output_adapter@_W@__crt_stdio_output@@@2@@__crt_stdio_output@@AEAA_NXZ 000000018005ad60 f i libucrtd:output.obj
 0001:0005a220       ?state_case_size@?$output_processor@_WV?$string_output_adapter@_W@__crt_stdio_output@@V?$positional_parameter_base@_WV?$string_output_adapter@_W@__crt_stdio_output@@@2@@__crt_stdio_output@@AEAA_NXZ 000000018005b220 f i libucrtd:output.obj
 0001:0005a6e0       ?state_case_size@?$output_processor@_WV?$string_output_adapter@_W@__crt_stdio_output@@V?$standard_base@_WV?$string_output_adapter@_W@__crt_stdio_output@@@2@@__crt_stdio_output@@AEAA_NXZ 000000018005b6e0 f i libucrtd:output.obj
 0001:0005aba0       ?state_case_type@?$output_processor@DV?$stream_output_adapter@D@__crt_stdio_output@@V?$format_validation_base@DV?$stream_output_adapter@D@__crt_stdio_output@@@2@@__crt_stdio_output@@AEAA_NXZ 000000018005bba0 f i libucrtd:output.obj
 0001:0005b060       ?state_case_type@?$output_processor@DV?$stream_output_adapter@D@__crt_stdio_output@@V?$positional_parameter_base@DV?$stream_output_adapter@D@__crt_stdio_output@@@2@@__crt_stdio_output@@AEAA_NXZ 000000018005c060 f i libucrtd:output.obj
 0001:0005b520       ?state_case_type@?$output_processor@DV?$stream_output_adapter@D@__crt_stdio_output@@V?$standard_base@DV?$stream_output_adapter@D@__crt_stdio_output@@@2@@__crt_stdio_output@@AEAA_NXZ 000000018005c520 f i libucrtd:output.obj
 0001:0005b9e0       ?state_case_type@?$output_processor@DV?$string_output_adapter@D@__crt_stdio_output@@V?$format_validation_base@DV?$string_output_adapter@D@__crt_stdio_output@@@2@@__crt_stdio_output@@AEAA_NXZ 000000018005c9e0 f i libucrtd:output.obj
 0001:0005bea0       ?state_case_type@?$output_processor@DV?$string_output_adapter@D@__crt_stdio_output@@V?$positional_parameter_base@DV?$string_output_adapter@D@__crt_stdio_output@@@2@@__crt_stdio_output@@AEAA_NXZ 000000018005cea0 f i libucrtd:output.obj
 0001:0005c360       ?state_case_type@?$output_processor@DV?$string_output_adapter@D@__crt_stdio_output@@V?$standard_base@DV?$string_output_adapter@D@__crt_stdio_output@@@2@@__crt_stdio_output@@AEAA_NXZ 000000018005d360 f i libucrtd:output.obj
 0001:0005c820       ?state_case_type@?$output_processor@_WV?$stream_output_adapter@_W@__crt_stdio_output@@V?$format_validation_base@_WV?$stream_output_adapter@_W@__crt_stdio_output@@@2@@__crt_stdio_output@@AEAA_NXZ 000000018005d820 f i libucrtd:output.obj
 0001:0005cdb0       ?state_case_type@?$output_processor@_WV?$stream_output_adapter@_W@__crt_stdio_output@@V?$positional_parameter_base@_WV?$stream_output_adapter@_W@__crt_stdio_output@@@2@@__crt_stdio_output@@AEAA_NXZ 000000018005ddb0 f i libucrtd:output.obj
 0001:0005d340       ?state_case_type@?$output_processor@_WV?$stream_output_adapter@_W@__crt_stdio_output@@V?$standard_base@_WV?$stream_output_adapter@_W@__crt_stdio_output@@@2@@__crt_stdio_output@@AEAA_NXZ 000000018005e340 f i libucrtd:output.obj
 0001:0005d8d0       ?state_case_type@?$output_processor@_WV?$string_output_adapter@_W@__crt_stdio_output@@V?$format_validation_base@_WV?$string_output_adapter@_W@__crt_stdio_output@@@2@@__crt_stdio_output@@AEAA_NXZ 000000018005e8d0 f i libucrtd:output.obj
 0001:0005de60       ?state_case_type@?$output_processor@_WV?$string_output_adapter@_W@__crt_stdio_output@@V?$positional_parameter_base@_WV?$string_output_adapter@_W@__crt_stdio_output@@@2@@__crt_stdio_output@@AEAA_NXZ 000000018005ee60 f i libucrtd:output.obj
 0001:0005e3f0       ?state_case_type@?$output_processor@_WV?$string_output_adapter@_W@__crt_stdio_output@@V?$standard_base@_WV?$string_output_adapter@_W@__crt_stdio_output@@@2@@__crt_stdio_output@@AEAA_NXZ 000000018005f3f0 f i libucrtd:output.obj
 0001:0005e980       ?state_case_width@?$output_processor@DV?$stream_output_adapter@D@__crt_stdio_output@@V?$format_validation_base@DV?$stream_output_adapter@D@__crt_stdio_output@@@2@@__crt_stdio_output@@AEAA_NXZ 000000018005f980 f i libucrtd:output.obj
 0001:0005ea10       ?state_case_width@?$output_processor@DV?$stream_output_adapter@D@__crt_stdio_output@@V?$positional_parameter_base@DV?$stream_output_adapter@D@__crt_stdio_output@@@2@@__crt_stdio_output@@AEAA_NXZ 000000018005fa10 f i libucrtd:output.obj
 0001:0005eaa0       ?state_case_width@?$output_processor@DV?$stream_output_adapter@D@__crt_stdio_output@@V?$standard_base@DV?$stream_output_adapter@D@__crt_stdio_output@@@2@@__crt_stdio_output@@AEAA_NXZ 000000018005faa0 f i libucrtd:output.obj
 0001:0005eb30       ?state_case_width@?$output_processor@DV?$string_output_adapter@D@__crt_stdio_output@@V?$format_validation_base@DV?$string_output_adapter@D@__crt_stdio_output@@@2@@__crt_stdio_output@@AEAA_NXZ 000000018005fb30 f i libucrtd:output.obj
 0001:0005ebc0       ?state_case_width@?$output_processor@DV?$string_output_adapter@D@__crt_stdio_output@@V?$positional_parameter_base@DV?$string_output_adapter@D@__crt_stdio_output@@@2@@__crt_stdio_output@@AEAA_NXZ 000000018005fbc0 f i libucrtd:output.obj
 0001:0005ec50       ?state_case_width@?$output_processor@DV?$string_output_adapter@D@__crt_stdio_output@@V?$standard_base@DV?$string_output_adapter@D@__crt_stdio_output@@@2@@__crt_stdio_output@@AEAA_NXZ 000000018005fc50 f i libucrtd:output.obj
 0001:0005ece0       ?state_case_width@?$output_processor@_WV?$stream_output_adapter@_W@__crt_stdio_output@@V?$format_validation_base@_WV?$stream_output_adapter@_W@__crt_stdio_output@@@2@@__crt_stdio_output@@AEAA_NXZ 000000018005fce0 f i libucrtd:output.obj
 0001:0005ed70       ?state_case_width@?$output_processor@_WV?$stream_output_adapter@_W@__crt_stdio_output@@V?$positional_parameter_base@_WV?$stream_output_adapter@_W@__crt_stdio_output@@@2@@__crt_stdio_output@@AEAA_NXZ 000000018005fd70 f i libucrtd:output.obj
 0001:0005ee00       ?state_case_width@?$output_processor@_WV?$stream_output_adapter@_W@__crt_stdio_output@@V?$standard_base@_WV?$stream_output_adapter@_W@__crt_stdio_output@@@2@@__crt_stdio_output@@AEAA_NXZ 000000018005fe00 f i libucrtd:output.obj
 0001:0005ee90       ?state_case_width@?$output_processor@_WV?$string_output_adapter@_W@__crt_stdio_output@@V?$format_validation_base@_WV?$string_output_adapter@_W@__crt_stdio_output@@@2@@__crt_stdio_output@@AEAA_NXZ 000000018005fe90 f i libucrtd:output.obj
 0001:0005ef20       ?state_case_width@?$output_processor@_WV?$string_output_adapter@_W@__crt_stdio_output@@V?$positional_parameter_base@_WV?$string_output_adapter@_W@__crt_stdio_output@@@2@@__crt_stdio_output@@AEAA_NXZ 000000018005ff20 f i libucrtd:output.obj
 0001:0005efb0       ?state_case_width@?$output_processor@_WV?$string_output_adapter@_W@__crt_stdio_output@@V?$standard_base@_WV?$string_output_adapter@_W@__crt_stdio_output@@@2@@__crt_stdio_output@@AEAA_NXZ 000000018005ffb0 f i libucrtd:output.obj
 0001:0005f040       ?state_count@?$format_validation_base@DV?$stream_output_adapter@D@__crt_stdio_output@@@__crt_stdio_output@@KAIXZ 0000000180060040 f i libucrtd:output.obj
 0001:0005f050       ?state_count@?$format_validation_base@DV?$string_output_adapter@D@__crt_stdio_output@@@__crt_stdio_output@@KAIXZ 0000000180060050 f i libucrtd:output.obj
 0001:0005f060       ?state_count@?$format_validation_base@_WV?$stream_output_adapter@_W@__crt_stdio_output@@@__crt_stdio_output@@KAIXZ 0000000180060060 f i libucrtd:output.obj
 0001:0005f070       ?state_count@?$format_validation_base@_WV?$string_output_adapter@_W@__crt_stdio_output@@@__crt_stdio_output@@KAIXZ 0000000180060070 f i libucrtd:output.obj
 0001:0005f080       ?state_count@?$standard_base@DV?$stream_output_adapter@D@__crt_stdio_output@@@__crt_stdio_output@@KAIXZ 0000000180060080 f i libucrtd:output.obj
 0001:0005f090       ?state_count@?$standard_base@DV?$string_output_adapter@D@__crt_stdio_output@@@__crt_stdio_output@@KAIXZ 0000000180060090 f i libucrtd:output.obj
 0001:0005f0a0       ?state_count@?$standard_base@_WV?$stream_output_adapter@_W@__crt_stdio_output@@@__crt_stdio_output@@KAIXZ 00000001800600a0 f i libucrtd:output.obj
 0001:0005f0b0       ?state_count@?$standard_base@_WV?$string_output_adapter@_W@__crt_stdio_output@@@__crt_stdio_output@@KAIXZ 00000001800600b0 f i libucrtd:output.obj
 0001:0005f0c0       ?state_transition_table@?$format_validation_base@DV?$stream_output_adapter@D@__crt_stdio_output@@@__crt_stdio_output@@KAAEBV?$spectre_mitigated_lookup_table@Ustate_transition_pair@__crt_stdio_output@@$0IA@@2@XZ 00000001800600c0 f i libucrtd:output.obj
 0001:0005f0d0       ?state_transition_table@?$format_validation_base@DV?$string_output_adapter@D@__crt_stdio_output@@@__crt_stdio_output@@KAAEBV?$spectre_mitigated_lookup_table@Ustate_transition_pair@__crt_stdio_output@@$0IA@@2@XZ 00000001800600d0 f i libucrtd:output.obj
 0001:0005f0e0       ?state_transition_table@?$format_validation_base@_WV?$stream_output_adapter@_W@__crt_stdio_output@@@__crt_stdio_output@@KAAEBV?$spectre_mitigated_lookup_table@Ustate_transition_pair@__crt_stdio_output@@$0IA@@2@XZ 00000001800600e0 f i libucrtd:output.obj
 0001:0005f0f0       ?state_transition_table@?$format_validation_base@_WV?$string_output_adapter@_W@__crt_stdio_output@@@__crt_stdio_output@@KAAEBV?$spectre_mitigated_lookup_table@Ustate_transition_pair@__crt_stdio_output@@$0IA@@2@XZ 00000001800600f0 f i libucrtd:output.obj
 0001:0005f100       ?state_transition_table@?$standard_base@DV?$stream_output_adapter@D@__crt_stdio_output@@@__crt_stdio_output@@KAAEBV?$spectre_mitigated_lookup_table@Ustate_transition_pair@__crt_stdio_output@@$0IA@@2@XZ 0000000180060100 f i libucrtd:output.obj
 0001:0005f110       ?state_transition_table@?$standard_base@DV?$string_output_adapter@D@__crt_stdio_output@@@__crt_stdio_output@@KAAEBV?$spectre_mitigated_lookup_table@Ustate_transition_pair@__crt_stdio_output@@$0IA@@2@XZ 0000000180060110 f i libucrtd:output.obj
 0001:0005f120       ?state_transition_table@?$standard_base@_WV?$stream_output_adapter@_W@__crt_stdio_output@@@__crt_stdio_output@@KAAEBV?$spectre_mitigated_lookup_table@Ustate_transition_pair@__crt_stdio_output@@$0IA@@2@XZ 0000000180060120 f i libucrtd:output.obj
 0001:0005f130       ?state_transition_table@?$standard_base@_WV?$string_output_adapter@_W@__crt_stdio_output@@@__crt_stdio_output@@KAAEBV?$spectre_mitigated_lookup_table@Ustate_transition_pair@__crt_stdio_output@@$0IA@@2@XZ 0000000180060130 f i libucrtd:output.obj
 0001:0005f140       ?tchar_string@?$common_data@D@__crt_stdio_output@@IEAAAEAPEADD@Z 0000000180060140 f i libucrtd:output.obj
 0001:0005f160       ?tchar_string@?$common_data@D@__crt_stdio_output@@IEAAAEAPEADXZ 0000000180060160 f i libucrtd:output.obj
 0001:0005f180       ?tchar_string@?$common_data@_W@__crt_stdio_output@@IEAAAEAPEA_WXZ 0000000180060180 f i libucrtd:output.obj
 0001:0005f1a0       ?tchar_string@?$common_data@_W@__crt_stdio_output@@IEAAAEAPEA_W_W@Z 00000001800601a0 f i libucrtd:output.obj
 0001:0005f1c0       ?to_integer_size@__crt_stdio_output@@YA_KW4length_modifier@1@@Z 00000001800601c0 f i libucrtd:output.obj
 0001:0005f270       ?type_case_X@?$output_processor@DV?$stream_output_adapter@D@__crt_stdio_output@@V?$format_validation_base@DV?$stream_output_adapter@D@__crt_stdio_output@@@2@@__crt_stdio_output@@AEAA_NXZ 0000000180060270 f i libucrtd:output.obj
 0001:0005f290       ?type_case_X@?$output_processor@DV?$stream_output_adapter@D@__crt_stdio_output@@V?$positional_parameter_base@DV?$stream_output_adapter@D@__crt_stdio_output@@@2@@__crt_stdio_output@@AEAA_NXZ 0000000180060290 f i libucrtd:output.obj
 0001:0005f2b0       ?type_case_X@?$output_processor@DV?$stream_output_adapter@D@__crt_stdio_output@@V?$standard_base@DV?$stream_output_adapter@D@__crt_stdio_output@@@2@@__crt_stdio_output@@AEAA_NXZ 00000001800602b0 f i libucrtd:output.obj
 0001:0005f2d0       ?type_case_X@?$output_processor@DV?$string_output_adapter@D@__crt_stdio_output@@V?$format_validation_base@DV?$string_output_adapter@D@__crt_stdio_output@@@2@@__crt_stdio_output@@AEAA_NXZ 00000001800602d0 f i libucrtd:output.obj
 0001:0005f2f0       ?type_case_X@?$output_processor@DV?$string_output_adapter@D@__crt_stdio_output@@V?$positional_parameter_base@DV?$string_output_adapter@D@__crt_stdio_output@@@2@@__crt_stdio_output@@AEAA_NXZ 00000001800602f0 f i libucrtd:output.obj
 0001:0005f310       ?type_case_X@?$output_processor@DV?$string_output_adapter@D@__crt_stdio_output@@V?$standard_base@DV?$string_output_adapter@D@__crt_stdio_output@@@2@@__crt_stdio_output@@AEAA_NXZ 0000000180060310 f i libucrtd:output.obj
 0001:0005f330       ?type_case_X@?$output_processor@_WV?$stream_output_adapter@_W@__crt_stdio_output@@V?$format_validation_base@_WV?$stream_output_adapter@_W@__crt_stdio_output@@@2@@__crt_stdio_output@@AEAA_NXZ 0000000180060330 f i libucrtd:output.obj
 0001:0005f350       ?type_case_X@?$output_processor@_WV?$stream_output_adapter@_W@__crt_stdio_output@@V?$positional_parameter_base@_WV?$stream_output_adapter@_W@__crt_stdio_output@@@2@@__crt_stdio_output@@AEAA_NXZ 0000000180060350 f i libucrtd:output.obj
 0001:0005f370       ?type_case_X@?$output_processor@_WV?$stream_output_adapter@_W@__crt_stdio_output@@V?$standard_base@_WV?$stream_output_adapter@_W@__crt_stdio_output@@@2@@__crt_stdio_output@@AEAA_NXZ 0000000180060370 f i libucrtd:output.obj
 0001:0005f390       ?type_case_X@?$output_processor@_WV?$string_output_adapter@_W@__crt_stdio_output@@V?$format_validation_base@_WV?$string_output_adapter@_W@__crt_stdio_output@@@2@@__crt_stdio_output@@AEAA_NXZ 0000000180060390 f i libucrtd:output.obj
 0001:0005f3b0       ?type_case_X@?$output_processor@_WV?$string_output_adapter@_W@__crt_stdio_output@@V?$positional_parameter_base@_WV?$string_output_adapter@_W@__crt_stdio_output@@@2@@__crt_stdio_output@@AEAA_NXZ 00000001800603b0 f i libucrtd:output.obj
 0001:0005f3d0       ?type_case_X@?$output_processor@_WV?$string_output_adapter@_W@__crt_stdio_output@@V?$standard_base@_WV?$string_output_adapter@_W@__crt_stdio_output@@@2@@__crt_stdio_output@@AEAA_NXZ 00000001800603d0 f i libucrtd:output.obj
 0001:0005f3f0       ?type_case_Z@?$output_processor@DV?$stream_output_adapter@D@__crt_stdio_output@@V?$format_validation_base@DV?$stream_output_adapter@D@__crt_stdio_output@@@2@@__crt_stdio_output@@AEAA_NXZ 00000001800603f0 f i libucrtd:output.obj
 0001:0005f510       ?type_case_Z@?$output_processor@DV?$stream_output_adapter@D@__crt_stdio_output@@V?$positional_parameter_base@DV?$stream_output_adapter@D@__crt_stdio_output@@@2@@__crt_stdio_output@@AEAA_NXZ 0000000180060510 f i libucrtd:output.obj
 0001:0005f630       ?type_case_Z@?$output_processor@DV?$stream_output_adapter@D@__crt_stdio_output@@V?$standard_base@DV?$stream_output_adapter@D@__crt_stdio_output@@@2@@__crt_stdio_output@@AEAA_NXZ 0000000180060630 f i libucrtd:output.obj
 0001:0005f750       ?type_case_Z@?$output_processor@DV?$string_output_adapter@D@__crt_stdio_output@@V?$format_validation_base@DV?$string_output_adapter@D@__crt_stdio_output@@@2@@__crt_stdio_output@@AEAA_NXZ 0000000180060750 f i libucrtd:output.obj
 0001:0005f870       ?type_case_Z@?$output_processor@DV?$string_output_adapter@D@__crt_stdio_output@@V?$positional_parameter_base@DV?$string_output_adapter@D@__crt_stdio_output@@@2@@__crt_stdio_output@@AEAA_NXZ 0000000180060870 f i libucrtd:output.obj
 0001:0005f990       ?type_case_Z@?$output_processor@DV?$string_output_adapter@D@__crt_stdio_output@@V?$standard_base@DV?$string_output_adapter@D@__crt_stdio_output@@@2@@__crt_stdio_output@@AEAA_NXZ 0000000180060990 f i libucrtd:output.obj
 0001:0005fab0       ?type_case_Z@?$output_processor@_WV?$stream_output_adapter@_W@__crt_stdio_output@@V?$format_validation_base@_WV?$stream_output_adapter@_W@__crt_stdio_output@@@2@@__crt_stdio_output@@AEAA_NXZ 0000000180060ab0 f i libucrtd:output.obj
 0001:0005fbd0       ?type_case_Z@?$output_processor@_WV?$stream_output_adapter@_W@__crt_stdio_output@@V?$positional_parameter_base@_WV?$stream_output_adapter@_W@__crt_stdio_output@@@2@@__crt_stdio_output@@AEAA_NXZ 0000000180060bd0 f i libucrtd:output.obj
 0001:0005fcf0       ?type_case_Z@?$output_processor@_WV?$stream_output_adapter@_W@__crt_stdio_output@@V?$standard_base@_WV?$stream_output_adapter@_W@__crt_stdio_output@@@2@@__crt_stdio_output@@AEAA_NXZ 0000000180060cf0 f i libucrtd:output.obj
 0001:0005fe10       ?type_case_Z@?$output_processor@_WV?$string_output_adapter@_W@__crt_stdio_output@@V?$format_validation_base@_WV?$string_output_adapter@_W@__crt_stdio_output@@@2@@__crt_stdio_output@@AEAA_NXZ 0000000180060e10 f i libucrtd:output.obj
 0001:0005ff30       ?type_case_Z@?$output_processor@_WV?$string_output_adapter@_W@__crt_stdio_output@@V?$positional_parameter_base@_WV?$string_output_adapter@_W@__crt_stdio_output@@@2@@__crt_stdio_output@@AEAA_NXZ 0000000180060f30 f i libucrtd:output.obj
 0001:00060050       ?type_case_Z@?$output_processor@_WV?$string_output_adapter@_W@__crt_stdio_output@@V?$standard_base@_WV?$string_output_adapter@_W@__crt_stdio_output@@@2@@__crt_stdio_output@@AEAA_NXZ 0000000180061050 f i libucrtd:output.obj
 0001:00060170       ?type_case_a@?$output_processor@DV?$stream_output_adapter@D@__crt_stdio_output@@V?$format_validation_base@DV?$stream_output_adapter@D@__crt_stdio_output@@@2@@__crt_stdio_output@@AEAA_NXZ 0000000180061170 f i libucrtd:output.obj
 0001:000605d0       ?type_case_a@?$output_processor@DV?$stream_output_adapter@D@__crt_stdio_output@@V?$positional_parameter_base@DV?$stream_output_adapter@D@__crt_stdio_output@@@2@@__crt_stdio_output@@AEAA_NXZ 00000001800615d0 f i libucrtd:output.obj
 0001:00060a30       ?type_case_a@?$output_processor@DV?$stream_output_adapter@D@__crt_stdio_output@@V?$standard_base@DV?$stream_output_adapter@D@__crt_stdio_output@@@2@@__crt_stdio_output@@AEAA_NXZ 0000000180061a30 f i libucrtd:output.obj
 0001:00060e90       ?type_case_a@?$output_processor@DV?$string_output_adapter@D@__crt_stdio_output@@V?$format_validation_base@DV?$string_output_adapter@D@__crt_stdio_output@@@2@@__crt_stdio_output@@AEAA_NXZ 0000000180061e90 f i libucrtd:output.obj
 0001:000612f0       ?type_case_a@?$output_processor@DV?$string_output_adapter@D@__crt_stdio_output@@V?$positional_parameter_base@DV?$string_output_adapter@D@__crt_stdio_output@@@2@@__crt_stdio_output@@AEAA_NXZ 00000001800622f0 f i libucrtd:output.obj
 0001:00061750       ?type_case_a@?$output_processor@DV?$string_output_adapter@D@__crt_stdio_output@@V?$standard_base@DV?$string_output_adapter@D@__crt_stdio_output@@@2@@__crt_stdio_output@@AEAA_NXZ 0000000180062750 f i libucrtd:output.obj
 0001:00061bb0       ?type_case_a@?$output_processor@_WV?$stream_output_adapter@_W@__crt_stdio_output@@V?$format_validation_base@_WV?$stream_output_adapter@_W@__crt_stdio_output@@@2@@__crt_stdio_output@@AEAA_NXZ 0000000180062bb0 f i libucrtd:output.obj
 0001:00062020       ?type_case_a@?$output_processor@_WV?$stream_output_adapter@_W@__crt_stdio_output@@V?$positional_parameter_base@_WV?$stream_output_adapter@_W@__crt_stdio_output@@@2@@__crt_stdio_output@@AEAA_NXZ 0000000180063020 f i libucrtd:output.obj
 0001:00062490       ?type_case_a@?$output_processor@_WV?$stream_output_adapter@_W@__crt_stdio_output@@V?$standard_base@_WV?$stream_output_adapter@_W@__crt_stdio_output@@@2@@__crt_stdio_output@@AEAA_NXZ 0000000180063490 f i libucrtd:output.obj
 0001:00062900       ?type_case_a@?$output_processor@_WV?$string_output_adapter@_W@__crt_stdio_output@@V?$format_validation_base@_WV?$string_output_adapter@_W@__crt_stdio_output@@@2@@__crt_stdio_output@@AEAA_NXZ 0000000180063900 f i libucrtd:output.obj
 0001:00062d70       ?type_case_a@?$output_processor@_WV?$string_output_adapter@_W@__crt_stdio_output@@V?$positional_parameter_base@_WV?$string_output_adapter@_W@__crt_stdio_output@@@2@@__crt_stdio_output@@AEAA_NXZ 0000000180063d70 f i libucrtd:output.obj
 0001:000631e0       ?type_case_a@?$output_processor@_WV?$string_output_adapter@_W@__crt_stdio_output@@V?$standard_base@_WV?$string_output_adapter@_W@__crt_stdio_output@@@2@@__crt_stdio_output@@AEAA_NXZ 00000001800641e0 f i libucrtd:output.obj
 0001:00063650       ?type_case_c@?$output_processor@DV?$stream_output_adapter@D@__crt_stdio_output@@V?$format_validation_base@DV?$stream_output_adapter@D@__crt_stdio_output@@@2@@__crt_stdio_output@@AEAA_NXZ 0000000180064650 f i libucrtd:output.obj
 0001:00063670       ?type_case_c@?$output_processor@DV?$stream_output_adapter@D@__crt_stdio_output@@V?$positional_parameter_base@DV?$stream_output_adapter@D@__crt_stdio_output@@@2@@__crt_stdio_output@@AEAA_NXZ 0000000180064670 f i libucrtd:output.obj
 0001:00063690       ?type_case_c@?$output_processor@DV?$stream_output_adapter@D@__crt_stdio_output@@V?$standard_base@DV?$stream_output_adapter@D@__crt_stdio_output@@@2@@__crt_stdio_output@@AEAA_NXZ 0000000180064690 f i libucrtd:output.obj
 0001:000636b0       ?type_case_c@?$output_processor@DV?$string_output_adapter@D@__crt_stdio_output@@V?$format_validation_base@DV?$string_output_adapter@D@__crt_stdio_output@@@2@@__crt_stdio_output@@AEAA_NXZ 00000001800646b0 f i libucrtd:output.obj
 0001:000636d0       ?type_case_c@?$output_processor@DV?$string_output_adapter@D@__crt_stdio_output@@V?$positional_parameter_base@DV?$string_output_adapter@D@__crt_stdio_output@@@2@@__crt_stdio_output@@AEAA_NXZ 00000001800646d0 f i libucrtd:output.obj
 0001:000636f0       ?type_case_c@?$output_processor@DV?$string_output_adapter@D@__crt_stdio_output@@V?$standard_base@DV?$string_output_adapter@D@__crt_stdio_output@@@2@@__crt_stdio_output@@AEAA_NXZ 00000001800646f0 f i libucrtd:output.obj
 0001:00063710       ?type_case_c@?$output_processor@_WV?$stream_output_adapter@_W@__crt_stdio_output@@V?$format_validation_base@_WV?$stream_output_adapter@_W@__crt_stdio_output@@@2@@__crt_stdio_output@@AEAA_NXZ 0000000180064710 f i libucrtd:output.obj
 0001:00063730       ?type_case_c@?$output_processor@_WV?$stream_output_adapter@_W@__crt_stdio_output@@V?$positional_parameter_base@_WV?$stream_output_adapter@_W@__crt_stdio_output@@@2@@__crt_stdio_output@@AEAA_NXZ 0000000180064730 f i libucrtd:output.obj
 0001:00063750       ?type_case_c@?$output_processor@_WV?$stream_output_adapter@_W@__crt_stdio_output@@V?$standard_base@_WV?$stream_output_adapter@_W@__crt_stdio_output@@@2@@__crt_stdio_output@@AEAA_NXZ 0000000180064750 f i libucrtd:output.obj
 0001:00063770       ?type_case_c@?$output_processor@_WV?$string_output_adapter@_W@__crt_stdio_output@@V?$format_validation_base@_WV?$string_output_adapter@_W@__crt_stdio_output@@@2@@__crt_stdio_output@@AEAA_NXZ 0000000180064770 f i libucrtd:output.obj
 0001:00063790       ?type_case_c@?$output_processor@_WV?$string_output_adapter@_W@__crt_stdio_output@@V?$positional_parameter_base@_WV?$string_output_adapter@_W@__crt_stdio_output@@@2@@__crt_stdio_output@@AEAA_NXZ 0000000180064790 f i libucrtd:output.obj
 0001:000637b0       ?type_case_c@?$output_processor@_WV?$string_output_adapter@_W@__crt_stdio_output@@V?$standard_base@_WV?$string_output_adapter@_W@__crt_stdio_output@@@2@@__crt_stdio_output@@AEAA_NXZ 00000001800647b0 f i libucrtd:output.obj
 0001:000637d0       ?type_case_c_tchar@?$output_processor@DV?$stream_output_adapter@D@__crt_stdio_output@@V?$format_validation_base@DV?$stream_output_adapter@D@__crt_stdio_output@@@2@@__crt_stdio_output@@AEAA_ND@Z 00000001800647d0 f i libucrtd:output.obj
 0001:00063940       ?type_case_c_tchar@?$output_processor@DV?$stream_output_adapter@D@__crt_stdio_output@@V?$positional_parameter_base@DV?$stream_output_adapter@D@__crt_stdio_output@@@2@@__crt_stdio_output@@AEAA_ND@Z 0000000180064940 f i libucrtd:output.obj
 0001:00063ab0       ?type_case_c_tchar@?$output_processor@DV?$stream_output_adapter@D@__crt_stdio_output@@V?$standard_base@DV?$stream_output_adapter@D@__crt_stdio_output@@@2@@__crt_stdio_output@@AEAA_ND@Z 0000000180064ab0 f i libucrtd:output.obj
 0001:00063c20       ?type_case_c_tchar@?$output_processor@DV?$string_output_adapter@D@__crt_stdio_output@@V?$format_validation_base@DV?$string_output_adapter@D@__crt_stdio_output@@@2@@__crt_stdio_output@@AEAA_ND@Z 0000000180064c20 f i libucrtd:output.obj
 0001:00063d90       ?type_case_c_tchar@?$output_processor@DV?$string_output_adapter@D@__crt_stdio_output@@V?$positional_parameter_base@DV?$string_output_adapter@D@__crt_stdio_output@@@2@@__crt_stdio_output@@AEAA_ND@Z 0000000180064d90 f i libucrtd:output.obj
 0001:00063f00       ?type_case_c_tchar@?$output_processor@DV?$string_output_adapter@D@__crt_stdio_output@@V?$standard_base@DV?$string_output_adapter@D@__crt_stdio_output@@@2@@__crt_stdio_output@@AEAA_ND@Z 0000000180064f00 f i libucrtd:output.obj
 0001:00064070       ?type_case_c_tchar@?$output_processor@_WV?$stream_output_adapter@_W@__crt_stdio_output@@V?$format_validation_base@_WV?$stream_output_adapter@_W@__crt_stdio_output@@@2@@__crt_stdio_output@@AEAA_N_W@Z 0000000180065070 f i libucrtd:output.obj
 0001:000641d0       ?type_case_c_tchar@?$output_processor@_WV?$stream_output_adapter@_W@__crt_stdio_output@@V?$positional_parameter_base@_WV?$stream_output_adapter@_W@__crt_stdio_output@@@2@@__crt_stdio_output@@AEAA_N_W@Z 00000001800651d0 f i libucrtd:output.obj
 0001:00064330       ?type_case_c_tchar@?$output_processor@_WV?$stream_output_adapter@_W@__crt_stdio_output@@V?$standard_base@_WV?$stream_output_adapter@_W@__crt_stdio_output@@@2@@__crt_stdio_output@@AEAA_N_W@Z 0000000180065330 f i libucrtd:output.obj
 0001:00064490       ?type_case_c_tchar@?$output_processor@_WV?$string_output_adapter@_W@__crt_stdio_output@@V?$format_validation_base@_WV?$string_output_adapter@_W@__crt_stdio_output@@@2@@__crt_stdio_output@@AEAA_N_W@Z 0000000180065490 f i libucrtd:output.obj
 0001:000645f0       ?type_case_c_tchar@?$output_processor@_WV?$string_output_adapter@_W@__crt_stdio_output@@V?$positional_parameter_base@_WV?$string_output_adapter@_W@__crt_stdio_output@@@2@@__crt_stdio_output@@AEAA_N_W@Z 00000001800655f0 f i libucrtd:output.obj
 0001:00064750       ?type_case_c_tchar@?$output_processor@_WV?$string_output_adapter@_W@__crt_stdio_output@@V?$standard_base@_WV?$string_output_adapter@_W@__crt_stdio_output@@@2@@__crt_stdio_output@@AEAA_N_W@Z 0000000180065750 f i libucrtd:output.obj
 0001:000648b0       ?type_case_d@?$output_processor@DV?$stream_output_adapter@D@__crt_stdio_output@@V?$format_validation_base@DV?$stream_output_adapter@D@__crt_stdio_output@@@2@@__crt_stdio_output@@AEAA_NXZ 00000001800658b0 f i libucrtd:output.obj
 0001:000648e0       ?type_case_d@?$output_processor@DV?$stream_output_adapter@D@__crt_stdio_output@@V?$positional_parameter_base@DV?$stream_output_adapter@D@__crt_stdio_output@@@2@@__crt_stdio_output@@AEAA_NXZ 00000001800658e0 f i libucrtd:output.obj
 0001:00064910       ?type_case_d@?$output_processor@DV?$stream_output_adapter@D@__crt_stdio_output@@V?$standard_base@DV?$stream_output_adapter@D@__crt_stdio_output@@@2@@__crt_stdio_output@@AEAA_NXZ 0000000180065910 f i libucrtd:output.obj
 0001:00064940       ?type_case_d@?$output_processor@DV?$string_output_adapter@D@__crt_stdio_output@@V?$format_validation_base@DV?$string_output_adapter@D@__crt_stdio_output@@@2@@__crt_stdio_output@@AEAA_NXZ 0000000180065940 f i libucrtd:output.obj
 0001:00064970       ?type_case_d@?$output_processor@DV?$string_output_adapter@D@__crt_stdio_output@@V?$positional_parameter_base@DV?$string_output_adapter@D@__crt_stdio_output@@@2@@__crt_stdio_output@@AEAA_NXZ 0000000180065970 f i libucrtd:output.obj
 0001:000649a0       ?type_case_d@?$output_processor@DV?$string_output_adapter@D@__crt_stdio_output@@V?$standard_base@DV?$string_output_adapter@D@__crt_stdio_output@@@2@@__crt_stdio_output@@AEAA_NXZ 00000001800659a0 f i libucrtd:output.obj
 0001:000649d0       ?type_case_d@?$output_processor@_WV?$stream_output_adapter@_W@__crt_stdio_output@@V?$format_validation_base@_WV?$stream_output_adapter@_W@__crt_stdio_output@@@2@@__crt_stdio_output@@AEAA_NXZ 00000001800659d0 f i libucrtd:output.obj
 0001:00064a00       ?type_case_d@?$output_processor@_WV?$stream_output_adapter@_W@__crt_stdio_output@@V?$positional_parameter_base@_WV?$stream_output_adapter@_W@__crt_stdio_output@@@2@@__crt_stdio_output@@AEAA_NXZ 0000000180065a00 f i libucrtd:output.obj
 0001:00064a30       ?type_case_d@?$output_processor@_WV?$stream_output_adapter@_W@__crt_stdio_output@@V?$standard_base@_WV?$stream_output_adapter@_W@__crt_stdio_output@@@2@@__crt_stdio_output@@AEAA_NXZ 0000000180065a30 f i libucrtd:output.obj
 0001:00064a60       ?type_case_d@?$output_processor@_WV?$string_output_adapter@_W@__crt_stdio_output@@V?$format_validation_base@_WV?$string_output_adapter@_W@__crt_stdio_output@@@2@@__crt_stdio_output@@AEAA_NXZ 0000000180065a60 f i libucrtd:output.obj
 0001:00064a90       ?type_case_d@?$output_processor@_WV?$string_output_adapter@_W@__crt_stdio_output@@V?$positional_parameter_base@_WV?$string_output_adapter@_W@__crt_stdio_output@@@2@@__crt_stdio_output@@AEAA_NXZ 0000000180065a90 f i libucrtd:output.obj
 0001:00064ac0       ?type_case_d@?$output_processor@_WV?$string_output_adapter@_W@__crt_stdio_output@@V?$standard_base@_WV?$string_output_adapter@_W@__crt_stdio_output@@@2@@__crt_stdio_output@@AEAA_NXZ 0000000180065ac0 f i libucrtd:output.obj
 0001:00064af0       ?type_case_n@?$output_processor@DV?$stream_output_adapter@D@__crt_stdio_output@@V?$format_validation_base@DV?$stream_output_adapter@D@__crt_stdio_output@@@2@@__crt_stdio_output@@AEAA_NXZ 0000000180065af0 f i libucrtd:output.obj
 0001:00064d80       ?type_case_n@?$output_processor@DV?$stream_output_adapter@D@__crt_stdio_output@@V?$positional_parameter_base@DV?$stream_output_adapter@D@__crt_stdio_output@@@2@@__crt_stdio_output@@AEAA_NXZ 0000000180065d80 f i libucrtd:output.obj
 0001:00065010       ?type_case_n@?$output_processor@DV?$stream_output_adapter@D@__crt_stdio_output@@V?$standard_base@DV?$stream_output_adapter@D@__crt_stdio_output@@@2@@__crt_stdio_output@@AEAA_NXZ 0000000180066010 f i libucrtd:output.obj
 0001:000652a0       ?type_case_n@?$output_processor@DV?$string_output_adapter@D@__crt_stdio_output@@V?$format_validation_base@DV?$string_output_adapter@D@__crt_stdio_output@@@2@@__crt_stdio_output@@AEAA_NXZ 00000001800662a0 f i libucrtd:output.obj
 0001:00065530       ?type_case_n@?$output_processor@DV?$string_output_adapter@D@__crt_stdio_output@@V?$positional_parameter_base@DV?$string_output_adapter@D@__crt_stdio_output@@@2@@__crt_stdio_output@@AEAA_NXZ 0000000180066530 f i libucrtd:output.obj
 0001:000657c0       ?type_case_n@?$output_processor@DV?$string_output_adapter@D@__crt_stdio_output@@V?$standard_base@DV?$string_output_adapter@D@__crt_stdio_output@@@2@@__crt_stdio_output@@AEAA_NXZ 00000001800667c0 f i libucrtd:output.obj
 0001:00065a50       ?type_case_n@?$output_processor@_WV?$stream_output_adapter@_W@__crt_stdio_output@@V?$format_validation_base@_WV?$stream_output_adapter@_W@__crt_stdio_output@@@2@@__crt_stdio_output@@AEAA_NXZ 0000000180066a50 f i libucrtd:output.obj
 0001:00065ce0       ?type_case_n@?$output_processor@_WV?$stream_output_adapter@_W@__crt_stdio_output@@V?$positional_parameter_base@_WV?$stream_output_adapter@_W@__crt_stdio_output@@@2@@__crt_stdio_output@@AEAA_NXZ 0000000180066ce0 f i libucrtd:output.obj
 0001:00065f70       ?type_case_n@?$output_processor@_WV?$stream_output_adapter@_W@__crt_stdio_output@@V?$standard_base@_WV?$stream_output_adapter@_W@__crt_stdio_output@@@2@@__crt_stdio_output@@AEAA_NXZ 0000000180066f70 f i libucrtd:output.obj
 0001:00066200       ?type_case_n@?$output_processor@_WV?$string_output_adapter@_W@__crt_stdio_output@@V?$format_validation_base@_WV?$string_output_adapter@_W@__crt_stdio_output@@@2@@__crt_stdio_output@@AEAA_NXZ 0000000180067200 f i libucrtd:output.obj
 0001:00066490       ?type_case_n@?$output_processor@_WV?$string_output_adapter@_W@__crt_stdio_output@@V?$positional_parameter_base@_WV?$string_output_adapter@_W@__crt_stdio_output@@@2@@__crt_stdio_output@@AEAA_NXZ 0000000180067490 f i libucrtd:output.obj
 0001:00066720       ?type_case_n@?$output_processor@_WV?$string_output_adapter@_W@__crt_stdio_output@@V?$standard_base@_WV?$string_output_adapter@_W@__crt_stdio_output@@@2@@__crt_stdio_output@@AEAA_NXZ 0000000180067720 f i libucrtd:output.obj
 0001:000669b0       ?type_case_o@?$output_processor@DV?$stream_output_adapter@D@__crt_stdio_output@@V?$format_validation_base@DV?$stream_output_adapter@D@__crt_stdio_output@@@2@@__crt_stdio_output@@AEAA_NXZ 00000001800679b0 f i libucrtd:output.obj
 0001:000669f0       ?type_case_o@?$output_processor@DV?$stream_output_adapter@D@__crt_stdio_output@@V?$positional_parameter_base@DV?$stream_output_adapter@D@__crt_stdio_output@@@2@@__crt_stdio_output@@AEAA_NXZ 00000001800679f0 f i libucrtd:output.obj
 0001:00066a30       ?type_case_o@?$output_processor@DV?$stream_output_adapter@D@__crt_stdio_output@@V?$standard_base@DV?$stream_output_adapter@D@__crt_stdio_output@@@2@@__crt_stdio_output@@AEAA_NXZ 0000000180067a30 f i libucrtd:output.obj
 0001:00066a70       ?type_case_o@?$output_processor@DV?$string_output_adapter@D@__crt_stdio_output@@V?$format_validation_base@DV?$string_output_adapter@D@__crt_stdio_output@@@2@@__crt_stdio_output@@AEAA_NXZ 0000000180067a70 f i libucrtd:output.obj
 0001:00066ab0       ?type_case_o@?$output_processor@DV?$string_output_adapter@D@__crt_stdio_output@@V?$positional_parameter_base@DV?$string_output_adapter@D@__crt_stdio_output@@@2@@__crt_stdio_output@@AEAA_NXZ 0000000180067ab0 f i libucrtd:output.obj
 0001:00066af0       ?type_case_o@?$output_processor@DV?$string_output_adapter@D@__crt_stdio_output@@V?$standard_base@DV?$string_output_adapter@D@__crt_stdio_output@@@2@@__crt_stdio_output@@AEAA_NXZ 0000000180067af0 f i libucrtd:output.obj
 0001:00066b30       ?type_case_o@?$output_processor@_WV?$stream_output_adapter@_W@__crt_stdio_output@@V?$format_validation_base@_WV?$stream_output_adapter@_W@__crt_stdio_output@@@2@@__crt_stdio_output@@AEAA_NXZ 0000000180067b30 f i libucrtd:output.obj
 0001:00066b70       ?type_case_o@?$output_processor@_WV?$stream_output_adapter@_W@__crt_stdio_output@@V?$positional_parameter_base@_WV?$stream_output_adapter@_W@__crt_stdio_output@@@2@@__crt_stdio_output@@AEAA_NXZ 0000000180067b70 f i libucrtd:output.obj
 0001:00066bb0       ?type_case_o@?$output_processor@_WV?$stream_output_adapter@_W@__crt_stdio_output@@V?$standard_base@_WV?$stream_output_adapter@_W@__crt_stdio_output@@@2@@__crt_stdio_output@@AEAA_NXZ 0000000180067bb0 f i libucrtd:output.obj
 0001:00066bf0       ?type_case_o@?$output_processor@_WV?$string_output_adapter@_W@__crt_stdio_output@@V?$format_validation_base@_WV?$string_output_adapter@_W@__crt_stdio_output@@@2@@__crt_stdio_output@@AEAA_NXZ 0000000180067bf0 f i libucrtd:output.obj
 0001:00066c30       ?type_case_o@?$output_processor@_WV?$string_output_adapter@_W@__crt_stdio_output@@V?$positional_parameter_base@_WV?$string_output_adapter@_W@__crt_stdio_output@@@2@@__crt_stdio_output@@AEAA_NXZ 0000000180067c30 f i libucrtd:output.obj
 0001:00066c70       ?type_case_o@?$output_processor@_WV?$string_output_adapter@_W@__crt_stdio_output@@V?$standard_base@_WV?$string_output_adapter@_W@__crt_stdio_output@@@2@@__crt_stdio_output@@AEAA_NXZ 0000000180067c70 f i libucrtd:output.obj
 0001:00066cb0       ?type_case_p@?$output_processor@DV?$stream_output_adapter@D@__crt_stdio_output@@V?$format_validation_base@DV?$stream_output_adapter@D@__crt_stdio_output@@@2@@__crt_stdio_output@@AEAA_NXZ 0000000180067cb0 f i libucrtd:output.obj
 0001:00066cf0       ?type_case_p@?$output_processor@DV?$stream_output_adapter@D@__crt_stdio_output@@V?$positional_parameter_base@DV?$stream_output_adapter@D@__crt_stdio_output@@@2@@__crt_stdio_output@@AEAA_NXZ 0000000180067cf0 f i libucrtd:output.obj
 0001:00066d30       ?type_case_p@?$output_processor@DV?$stream_output_adapter@D@__crt_stdio_output@@V?$standard_base@DV?$stream_output_adapter@D@__crt_stdio_output@@@2@@__crt_stdio_output@@AEAA_NXZ 0000000180067d30 f i libucrtd:output.obj
 0001:00066d70       ?type_case_p@?$output_processor@DV?$string_output_adapter@D@__crt_stdio_output@@V?$format_validation_base@DV?$string_output_adapter@D@__crt_stdio_output@@@2@@__crt_stdio_output@@AEAA_NXZ 0000000180067d70 f i libucrtd:output.obj
 0001:00066db0       ?type_case_p@?$output_processor@DV?$string_output_adapter@D@__crt_stdio_output@@V?$positional_parameter_base@DV?$string_output_adapter@D@__crt_stdio_output@@@2@@__crt_stdio_output@@AEAA_NXZ 0000000180067db0 f i libucrtd:output.obj
 0001:00066df0       ?type_case_p@?$output_processor@DV?$string_output_adapter@D@__crt_stdio_output@@V?$standard_base@DV?$string_output_adapter@D@__crt_stdio_output@@@2@@__crt_stdio_output@@AEAA_NXZ 0000000180067df0 f i libucrtd:output.obj
 0001:00066e30       ?type_case_p@?$output_processor@_WV?$stream_output_adapter@_W@__crt_stdio_output@@V?$format_validation_base@_WV?$stream_output_adapter@_W@__crt_stdio_output@@@2@@__crt_stdio_output@@AEAA_NXZ 0000000180067e30 f i libucrtd:output.obj
 0001:00066e70       ?type_case_p@?$output_processor@_WV?$stream_output_adapter@_W@__crt_stdio_output@@V?$positional_parameter_base@_WV?$stream_output_adapter@_W@__crt_stdio_output@@@2@@__crt_stdio_output@@AEAA_NXZ 0000000180067e70 f i libucrtd:output.obj
 0001:00066eb0       ?type_case_p@?$output_processor@_WV?$stream_output_adapter@_W@__crt_stdio_output@@V?$standard_base@_WV?$stream_output_adapter@_W@__crt_stdio_output@@@2@@__crt_stdio_output@@AEAA_NXZ 0000000180067eb0 f i libucrtd:output.obj
 0001:00066ef0       ?type_case_p@?$output_processor@_WV?$string_output_adapter@_W@__crt_stdio_output@@V?$format_validation_base@_WV?$string_output_adapter@_W@__crt_stdio_output@@@2@@__crt_stdio_output@@AEAA_NXZ 0000000180067ef0 f i libucrtd:output.obj
 0001:00066f30       ?type_case_p@?$output_processor@_WV?$string_output_adapter@_W@__crt_stdio_output@@V?$positional_parameter_base@_WV?$string_output_adapter@_W@__crt_stdio_output@@@2@@__crt_stdio_output@@AEAA_NXZ 0000000180067f30 f i libucrtd:output.obj
 0001:00066f70       ?type_case_p@?$output_processor@_WV?$string_output_adapter@_W@__crt_stdio_output@@V?$standard_base@_WV?$string_output_adapter@_W@__crt_stdio_output@@@2@@__crt_stdio_output@@AEAA_NXZ 0000000180067f70 f i libucrtd:output.obj
 0001:00066fb0       ?type_case_s@?$output_processor@DV?$stream_output_adapter@D@__crt_stdio_output@@V?$format_validation_base@DV?$stream_output_adapter@D@__crt_stdio_output@@@2@@__crt_stdio_output@@AEAA_NXZ 0000000180067fb0 f i libucrtd:output.obj
 0001:000670d0       ?type_case_s@?$output_processor@DV?$stream_output_adapter@D@__crt_stdio_output@@V?$positional_parameter_base@DV?$stream_output_adapter@D@__crt_stdio_output@@@2@@__crt_stdio_output@@AEAA_NXZ 00000001800680d0 f i libucrtd:output.obj
 0001:000671f0       ?type_case_s@?$output_processor@DV?$stream_output_adapter@D@__crt_stdio_output@@V?$standard_base@DV?$stream_output_adapter@D@__crt_stdio_output@@@2@@__crt_stdio_output@@AEAA_NXZ 00000001800681f0 f i libucrtd:output.obj
 0001:00067310       ?type_case_s@?$output_processor@DV?$string_output_adapter@D@__crt_stdio_output@@V?$format_validation_base@DV?$string_output_adapter@D@__crt_stdio_output@@@2@@__crt_stdio_output@@AEAA_NXZ 0000000180068310 f i libucrtd:output.obj
 0001:00067430       ?type_case_s@?$output_processor@DV?$string_output_adapter@D@__crt_stdio_output@@V?$positional_parameter_base@DV?$string_output_adapter@D@__crt_stdio_output@@@2@@__crt_stdio_output@@AEAA_NXZ 0000000180068430 f i libucrtd:output.obj
 0001:00067550       ?type_case_s@?$output_processor@DV?$string_output_adapter@D@__crt_stdio_output@@V?$standard_base@DV?$string_output_adapter@D@__crt_stdio_output@@@2@@__crt_stdio_output@@AEAA_NXZ 0000000180068550 f i libucrtd:output.obj
 0001:00067670       ?type_case_s@?$output_processor@_WV?$stream_output_adapter@_W@__crt_stdio_output@@V?$format_validation_base@_WV?$stream_output_adapter@_W@__crt_stdio_output@@@2@@__crt_stdio_output@@AEAA_NXZ 0000000180068670 f i libucrtd:output.obj
 0001:00067790       ?type_case_s@?$output_processor@_WV?$stream_output_adapter@_W@__crt_stdio_output@@V?$positional_parameter_base@_WV?$stream_output_adapter@_W@__crt_stdio_output@@@2@@__crt_stdio_output@@AEAA_NXZ 0000000180068790 f i libucrtd:output.obj
 0001:000678b0       ?type_case_s@?$output_processor@_WV?$stream_output_adapter@_W@__crt_stdio_output@@V?$standard_base@_WV?$stream_output_adapter@_W@__crt_stdio_output@@@2@@__crt_stdio_output@@AEAA_NXZ 00000001800688b0 f i libucrtd:output.obj
 0001:000679d0       ?type_case_s@?$output_processor@_WV?$string_output_adapter@_W@__crt_stdio_output@@V?$format_validation_base@_WV?$string_output_adapter@_W@__crt_stdio_output@@@2@@__crt_stdio_output@@AEAA_NXZ 00000001800689d0 f i libucrtd:output.obj
 0001:00067af0       ?type_case_s@?$output_processor@_WV?$string_output_adapter@_W@__crt_stdio_output@@V?$positional_parameter_base@_WV?$string_output_adapter@_W@__crt_stdio_output@@@2@@__crt_stdio_output@@AEAA_NXZ 0000000180068af0 f i libucrtd:output.obj
 0001:00067c10       ?type_case_s@?$output_processor@_WV?$string_output_adapter@_W@__crt_stdio_output@@V?$standard_base@_WV?$string_output_adapter@_W@__crt_stdio_output@@@2@@__crt_stdio_output@@AEAA_NXZ 0000000180068c10 f i libucrtd:output.obj
 0001:00067d30       ?type_case_s_compute_narrow_string_length@?$output_processor@DV?$stream_output_adapter@D@__crt_stdio_output@@V?$format_validation_base@DV?$stream_output_adapter@D@__crt_stdio_output@@@2@@__crt_stdio_output@@AEAAHHD@Z 0000000180068d30 f i libucrtd:output.obj
 0001:00067d60       ?type_case_s_compute_narrow_string_length@?$output_processor@DV?$stream_output_adapter@D@__crt_stdio_output@@V?$positional_parameter_base@DV?$stream_output_adapter@D@__crt_stdio_output@@@2@@__crt_stdio_output@@AEAAHHD@Z 0000000180068d60 f i libucrtd:output.obj
 0001:00067d90       ?type_case_s_compute_narrow_string_length@?$output_processor@DV?$stream_output_adapter@D@__crt_stdio_output@@V?$standard_base@DV?$stream_output_adapter@D@__crt_stdio_output@@@2@@__crt_stdio_output@@AEAAHHD@Z 0000000180068d90 f i libucrtd:output.obj
 0001:00067dc0       ?type_case_s_compute_narrow_string_length@?$output_processor@DV?$string_output_adapter@D@__crt_stdio_output@@V?$format_validation_base@DV?$string_output_adapter@D@__crt_stdio_output@@@2@@__crt_stdio_output@@AEAAHHD@Z 0000000180068dc0 f i libucrtd:output.obj
 0001:00067df0       ?type_case_s_compute_narrow_string_length@?$output_processor@DV?$string_output_adapter@D@__crt_stdio_output@@V?$positional_parameter_base@DV?$string_output_adapter@D@__crt_stdio_output@@@2@@__crt_stdio_output@@AEAAHHD@Z 0000000180068df0 f i libucrtd:output.obj
 0001:00067e20       ?type_case_s_compute_narrow_string_length@?$output_processor@DV?$string_output_adapter@D@__crt_stdio_output@@V?$standard_base@DV?$string_output_adapter@D@__crt_stdio_output@@@2@@__crt_stdio_output@@AEAAHHD@Z 0000000180068e20 f i libucrtd:output.obj
 0001:00067e50       ?type_case_s_compute_narrow_string_length@?$output_processor@_WV?$stream_output_adapter@_W@__crt_stdio_output@@V?$format_validation_base@_WV?$stream_output_adapter@_W@__crt_stdio_output@@@2@@__crt_stdio_output@@AEAAHH_W@Z 0000000180068e50 f i libucrtd:output.obj
 0001:00067fa0       ?type_case_s_compute_narrow_string_length@?$output_processor@_WV?$stream_output_adapter@_W@__crt_stdio_output@@V?$positional_parameter_base@_WV?$stream_output_adapter@_W@__crt_stdio_output@@@2@@__crt_stdio_output@@AEAAHH_W@Z 0000000180068fa0 f i libucrtd:output.obj
 0001:000680f0       ?type_case_s_compute_narrow_string_length@?$output_processor@_WV?$stream_output_adapter@_W@__crt_stdio_output@@V?$standard_base@_WV?$stream_output_adapter@_W@__crt_stdio_output@@@2@@__crt_stdio_output@@AEAAHH_W@Z 00000001800690f0 f i libucrtd:output.obj
 0001:00068240       ?type_case_s_compute_narrow_string_length@?$output_processor@_WV?$string_output_adapter@_W@__crt_stdio_output@@V?$format_validation_base@_WV?$string_output_adapter@_W@__crt_stdio_output@@@2@@__crt_stdio_output@@AEAAHH_W@Z 0000000180069240 f i libucrtd:output.obj
 0001:00068390       ?type_case_s_compute_narrow_string_length@?$output_processor@_WV?$string_output_adapter@_W@__crt_stdio_output@@V?$positional_parameter_base@_WV?$string_output_adapter@_W@__crt_stdio_output@@@2@@__crt_stdio_output@@AEAAHH_W@Z 0000000180069390 f i libucrtd:output.obj
 0001:000684e0       ?type_case_s_compute_narrow_string_length@?$output_processor@_WV?$string_output_adapter@_W@__crt_stdio_output@@V?$standard_base@_WV?$string_output_adapter@_W@__crt_stdio_output@@@2@@__crt_stdio_output@@AEAAHH_W@Z 00000001800694e0 f i libucrtd:output.obj
 0001:00068630       ?type_case_u@?$output_processor@DV?$stream_output_adapter@D@__crt_stdio_output@@V?$format_validation_base@DV?$stream_output_adapter@D@__crt_stdio_output@@@2@@__crt_stdio_output@@AEAA_NXZ 0000000180069630 f i libucrtd:output.obj
 0001:00068650       ?type_case_u@?$output_processor@DV?$stream_output_adapter@D@__crt_stdio_output@@V?$positional_parameter_base@DV?$stream_output_adapter@D@__crt_stdio_output@@@2@@__crt_stdio_output@@AEAA_NXZ 0000000180069650 f i libucrtd:output.obj
 0001:00068670       ?type_case_u@?$output_processor@DV?$stream_output_adapter@D@__crt_stdio_output@@V?$standard_base@DV?$stream_output_adapter@D@__crt_stdio_output@@@2@@__crt_stdio_output@@AEAA_NXZ 0000000180069670 f i libucrtd:output.obj
 0001:00068690       ?type_case_u@?$output_processor@DV?$string_output_adapter@D@__crt_stdio_output@@V?$format_validation_base@DV?$string_output_adapter@D@__crt_stdio_output@@@2@@__crt_stdio_output@@AEAA_NXZ 0000000180069690 f i libucrtd:output.obj
 0001:000686b0       ?type_case_u@?$output_processor@DV?$string_output_adapter@D@__crt_stdio_output@@V?$positional_parameter_base@DV?$string_output_adapter@D@__crt_stdio_output@@@2@@__crt_stdio_output@@AEAA_NXZ 00000001800696b0 f i libucrtd:output.obj
 0001:000686d0       ?type_case_u@?$output_processor@DV?$string_output_adapter@D@__crt_stdio_output@@V?$standard_base@DV?$string_output_adapter@D@__crt_stdio_output@@@2@@__crt_stdio_output@@AEAA_NXZ 00000001800696d0 f i libucrtd:output.obj
 0001:000686f0       ?type_case_u@?$output_processor@_WV?$stream_output_adapter@_W@__crt_stdio_output@@V?$format_validation_base@_WV?$stream_output_adapter@_W@__crt_stdio_output@@@2@@__crt_stdio_output@@AEAA_NXZ 00000001800696f0 f i libucrtd:output.obj
 0001:00068710       ?type_case_u@?$output_processor@_WV?$stream_output_adapter@_W@__crt_stdio_output@@V?$positional_parameter_base@_WV?$stream_output_adapter@_W@__crt_stdio_output@@@2@@__crt_stdio_output@@AEAA_NXZ 0000000180069710 f i libucrtd:output.obj
 0001:00068730       ?type_case_u@?$output_processor@_WV?$stream_output_adapter@_W@__crt_stdio_output@@V?$standard_base@_WV?$stream_output_adapter@_W@__crt_stdio_output@@@2@@__crt_stdio_output@@AEAA_NXZ 0000000180069730 f i libucrtd:output.obj
 0001:00068750       ?type_case_u@?$output_processor@_WV?$string_output_adapter@_W@__crt_stdio_output@@V?$format_validation_base@_WV?$string_output_adapter@_W@__crt_stdio_output@@@2@@__crt_stdio_output@@AEAA_NXZ 0000000180069750 f i libucrtd:output.obj
 0001:00068770       ?type_case_u@?$output_processor@_WV?$string_output_adapter@_W@__crt_stdio_output@@V?$positional_parameter_base@_WV?$string_output_adapter@_W@__crt_stdio_output@@@2@@__crt_stdio_output@@AEAA_NXZ 0000000180069770 f i libucrtd:output.obj
 0001:00068790       ?type_case_u@?$output_processor@_WV?$string_output_adapter@_W@__crt_stdio_output@@V?$standard_base@_WV?$string_output_adapter@_W@__crt_stdio_output@@@2@@__crt_stdio_output@@AEAA_NXZ 0000000180069790 f i libucrtd:output.obj
 0001:000687b0       ?type_case_x@?$output_processor@DV?$stream_output_adapter@D@__crt_stdio_output@@V?$format_validation_base@DV?$stream_output_adapter@D@__crt_stdio_output@@@2@@__crt_stdio_output@@AEAA_NXZ 00000001800697b0 f i libucrtd:output.obj
 0001:000687d0       ?type_case_x@?$output_processor@DV?$stream_output_adapter@D@__crt_stdio_output@@V?$positional_parameter_base@DV?$stream_output_adapter@D@__crt_stdio_output@@@2@@__crt_stdio_output@@AEAA_NXZ 00000001800697d0 f i libucrtd:output.obj
 0001:000687f0       ?type_case_x@?$output_processor@DV?$stream_output_adapter@D@__crt_stdio_output@@V?$standard_base@DV?$stream_output_adapter@D@__crt_stdio_output@@@2@@__crt_stdio_output@@AEAA_NXZ 00000001800697f0 f i libucrtd:output.obj
 0001:00068810       ?type_case_x@?$output_processor@DV?$string_output_adapter@D@__crt_stdio_output@@V?$format_validation_base@DV?$string_output_adapter@D@__crt_stdio_output@@@2@@__crt_stdio_output@@AEAA_NXZ 0000000180069810 f i libucrtd:output.obj
 0001:00068830       ?type_case_x@?$output_processor@DV?$string_output_adapter@D@__crt_stdio_output@@V?$positional_parameter_base@DV?$string_output_adapter@D@__crt_stdio_output@@@2@@__crt_stdio_output@@AEAA_NXZ 0000000180069830 f i libucrtd:output.obj
 0001:00068850       ?type_case_x@?$output_processor@DV?$string_output_adapter@D@__crt_stdio_output@@V?$standard_base@DV?$string_output_adapter@D@__crt_stdio_output@@@2@@__crt_stdio_output@@AEAA_NXZ 0000000180069850 f i libucrtd:output.obj
 0001:00068870       ?type_case_x@?$output_processor@_WV?$stream_output_adapter@_W@__crt_stdio_output@@V?$format_validation_base@_WV?$stream_output_adapter@_W@__crt_stdio_output@@@2@@__crt_stdio_output@@AEAA_NXZ 0000000180069870 f i libucrtd:output.obj
 0001:00068890       ?type_case_x@?$output_processor@_WV?$stream_output_adapter@_W@__crt_stdio_output@@V?$positional_parameter_base@_WV?$stream_output_adapter@_W@__crt_stdio_output@@@2@@__crt_stdio_output@@AEAA_NXZ 0000000180069890 f i libucrtd:output.obj
 0001:000688b0       ?type_case_x@?$output_processor@_WV?$stream_output_adapter@_W@__crt_stdio_output@@V?$standard_base@_WV?$stream_output_adapter@_W@__crt_stdio_output@@@2@@__crt_stdio_output@@AEAA_NXZ 00000001800698b0 f i libucrtd:output.obj
 0001:000688d0       ?type_case_x@?$output_processor@_WV?$string_output_adapter@_W@__crt_stdio_output@@V?$format_validation_base@_WV?$string_output_adapter@_W@__crt_stdio_output@@@2@@__crt_stdio_output@@AEAA_NXZ 00000001800698d0 f i libucrtd:output.obj
 0001:000688f0       ?type_case_x@?$output_processor@_WV?$string_output_adapter@_W@__crt_stdio_output@@V?$positional_parameter_base@_WV?$string_output_adapter@_W@__crt_stdio_output@@@2@@__crt_stdio_output@@AEAA_NXZ 00000001800698f0 f i libucrtd:output.obj
 0001:00068910       ?type_case_x@?$output_processor@_WV?$string_output_adapter@_W@__crt_stdio_output@@V?$standard_base@_WV?$string_output_adapter@_W@__crt_stdio_output@@@2@@__crt_stdio_output@@AEAA_NXZ 0000000180069910 f i libucrtd:output.obj
 0001:00068930       ?unget@?$c_string_character_source@D@__crt_strtox@@QEAAXD@Z 0000000180069930 f i libucrtd:output.obj
 0001:00068a10       ?unget@?$c_string_character_source@_W@__crt_strtox@@QEAAX_W@Z 0000000180069a10 f i libucrtd:output.obj
 0001:00068af0       ?unsafe_value@?$cached@H@__crt_cached_ptd_host@@QEAAHXZ 0000000180069af0 f i libucrtd:output.obj
 0001:00068b00       ?unsafe_value@?$cached@K@__crt_cached_ptd_host@@QEAAKXZ 0000000180069b00 f i libucrtd:output.obj
 0001:00068b10       ?unset_flag@?$output_processor@DV?$stream_output_adapter@D@__crt_stdio_output@@V?$format_validation_base@DV?$stream_output_adapter@D@__crt_stdio_output@@@2@@__crt_stdio_output@@AEAAXI@Z 0000000180069b10 f i libucrtd:output.obj
 0001:00068b40       ?unset_flag@?$output_processor@DV?$stream_output_adapter@D@__crt_stdio_output@@V?$positional_parameter_base@DV?$stream_output_adapter@D@__crt_stdio_output@@@2@@__crt_stdio_output@@AEAAXI@Z 0000000180069b40 f i libucrtd:output.obj
 0001:00068b70       ?unset_flag@?$output_processor@DV?$stream_output_adapter@D@__crt_stdio_output@@V?$standard_base@DV?$stream_output_adapter@D@__crt_stdio_output@@@2@@__crt_stdio_output@@AEAAXI@Z 0000000180069b70 f i libucrtd:output.obj
 0001:00068ba0       ?unset_flag@?$output_processor@DV?$string_output_adapter@D@__crt_stdio_output@@V?$format_validation_base@DV?$string_output_adapter@D@__crt_stdio_output@@@2@@__crt_stdio_output@@AEAAXI@Z 0000000180069ba0 f i libucrtd:output.obj
 0001:00068bd0       ?unset_flag@?$output_processor@DV?$string_output_adapter@D@__crt_stdio_output@@V?$positional_parameter_base@DV?$string_output_adapter@D@__crt_stdio_output@@@2@@__crt_stdio_output@@AEAAXI@Z 0000000180069bd0 f i libucrtd:output.obj
 0001:00068c00       ?unset_flag@?$output_processor@DV?$string_output_adapter@D@__crt_stdio_output@@V?$standard_base@DV?$string_output_adapter@D@__crt_stdio_output@@@2@@__crt_stdio_output@@AEAAXI@Z 0000000180069c00 f i libucrtd:output.obj
 0001:00068c30       ?unset_flag@?$output_processor@_WV?$stream_output_adapter@_W@__crt_stdio_output@@V?$format_validation_base@_WV?$stream_output_adapter@_W@__crt_stdio_output@@@2@@__crt_stdio_output@@AEAAXI@Z 0000000180069c30 f i libucrtd:output.obj
 0001:00068c60       ?unset_flag@?$output_processor@_WV?$stream_output_adapter@_W@__crt_stdio_output@@V?$positional_parameter_base@_WV?$stream_output_adapter@_W@__crt_stdio_output@@@2@@__crt_stdio_output@@AEAAXI@Z 0000000180069c60 f i libucrtd:output.obj
 0001:00068c90       ?unset_flag@?$output_processor@_WV?$stream_output_adapter@_W@__crt_stdio_output@@V?$standard_base@_WV?$stream_output_adapter@_W@__crt_stdio_output@@@2@@__crt_stdio_output@@AEAAXI@Z 0000000180069c90 f i libucrtd:output.obj
 0001:00068cc0       ?unset_flag@?$output_processor@_WV?$string_output_adapter@_W@__crt_stdio_output@@V?$format_validation_base@_WV?$string_output_adapter@_W@__crt_stdio_output@@@2@@__crt_stdio_output@@AEAAXI@Z 0000000180069cc0 f i libucrtd:output.obj
 0001:00068cf0       ?unset_flag@?$output_processor@_WV?$string_output_adapter@_W@__crt_stdio_output@@V?$positional_parameter_base@_WV?$string_output_adapter@_W@__crt_stdio_output@@@2@@__crt_stdio_output@@AEAAXI@Z 0000000180069cf0 f i libucrtd:output.obj
 0001:00068d20       ?unset_flag@?$output_processor@_WV?$string_output_adapter@_W@__crt_stdio_output@@V?$standard_base@_WV?$string_output_adapter@_W@__crt_stdio_output@@@2@@__crt_stdio_output@@AEAAXI@Z 0000000180069d20 f i libucrtd:output.obj
 0001:00068d50       ?update_field_width@?$positional_parameter_base@DV?$stream_output_adapter@D@__crt_stdio_output@@@__crt_stdio_output@@IEAA_NXZ 0000000180069d50 f i libucrtd:output.obj
 0001:00068f50       ?update_field_width@?$positional_parameter_base@DV?$string_output_adapter@D@__crt_stdio_output@@@__crt_stdio_output@@IEAA_NXZ 0000000180069f50 f i libucrtd:output.obj
 0001:00069150       ?update_field_width@?$positional_parameter_base@_WV?$stream_output_adapter@_W@__crt_stdio_output@@@__crt_stdio_output@@IEAA_NXZ 000000018006a150 f i libucrtd:output.obj
 0001:00069350       ?update_field_width@?$positional_parameter_base@_WV?$string_output_adapter@_W@__crt_stdio_output@@@__crt_stdio_output@@IEAA_NXZ 000000018006a350 f i libucrtd:output.obj
 0001:00069550       ?update_field_width@?$standard_base@DV?$stream_output_adapter@D@__crt_stdio_output@@@__crt_stdio_output@@IEAA_NXZ 000000018006a550 f i libucrtd:output.obj
 0001:00069580       ?update_field_width@?$standard_base@DV?$string_output_adapter@D@__crt_stdio_output@@@__crt_stdio_output@@IEAA_NXZ 000000018006a580 f i libucrtd:output.obj
 0001:000695b0       ?update_field_width@?$standard_base@_WV?$stream_output_adapter@_W@__crt_stdio_output@@@__crt_stdio_output@@IEAA_NXZ 000000018006a5b0 f i libucrtd:output.obj
 0001:000695e0       ?update_field_width@?$standard_base@_WV?$string_output_adapter@_W@__crt_stdio_output@@@__crt_stdio_output@@IEAA_NXZ 000000018006a5e0 f i libucrtd:output.obj
 0001:00069610       ?update_locale@__crt_cached_ptd_host@@AEAAXXZ 000000018006a610 f i libucrtd:output.obj
 0001:00069640       ?update_locale_slow@__crt_cached_ptd_host@@AEAAXXZ 000000018006a640 f i libucrtd:output.obj
 0001:000696f0       ?update_precision@?$positional_parameter_base@DV?$stream_output_adapter@D@__crt_stdio_output@@@__crt_stdio_output@@IEAA_NXZ 000000018006a6f0 f i libucrtd:output.obj
 0001:000698f0       ?update_precision@?$positional_parameter_base@DV?$string_output_adapter@D@__crt_stdio_output@@@__crt_stdio_output@@IEAA_NXZ 000000018006a8f0 f i libucrtd:output.obj
 0001:00069af0       ?update_precision@?$positional_parameter_base@_WV?$stream_output_adapter@_W@__crt_stdio_output@@@__crt_stdio_output@@IEAA_NXZ 000000018006aaf0 f i libucrtd:output.obj
 0001:00069cf0       ?update_precision@?$positional_parameter_base@_WV?$string_output_adapter@_W@__crt_stdio_output@@@__crt_stdio_output@@IEAA_NXZ 000000018006acf0 f i libucrtd:output.obj
 0001:00069ef0       ?update_precision@?$standard_base@DV?$stream_output_adapter@D@__crt_stdio_output@@@__crt_stdio_output@@IEAA_NXZ 000000018006aef0 f i libucrtd:output.obj
 0001:00069f20       ?update_precision@?$standard_base@DV?$string_output_adapter@D@__crt_stdio_output@@@__crt_stdio_output@@IEAA_NXZ 000000018006af20 f i libucrtd:output.obj
 0001:00069f50       ?update_precision@?$standard_base@_WV?$stream_output_adapter@_W@__crt_stdio_output@@@__crt_stdio_output@@IEAA_NXZ 000000018006af50 f i libucrtd:output.obj
 0001:00069f80       ?update_precision@?$standard_base@_WV?$string_output_adapter@_W@__crt_stdio_output@@@__crt_stdio_output@@IEAA_NXZ 000000018006af80 f i libucrtd:output.obj
 0001:00069fb0       ?valid@?$cached@H@__crt_cached_ptd_host@@QEBA_NXZ 000000018006afb0 f i libucrtd:output.obj
 0001:00069fc0       ?valid@?$cached@K@__crt_cached_ptd_host@@QEBA_NXZ 000000018006afc0 f i libucrtd:output.obj
 0001:00069fd0       ?valid@__crt_stdio_stream@@QEBA_NXZ 000000018006afd0 f i libucrtd:output.obj
 0001:0006a000       ?validate@?$c_string_character_source@D@__crt_strtox@@QEBA_NXZ 000000018006b000 f i libucrtd:output.obj
 0001:0006a0c0       ?validate@?$c_string_character_source@_W@__crt_strtox@@QEBA_NXZ 000000018006b0c0 f i libucrtd:output.obj
 0001:0006a180       ?validate@?$stream_output_adapter@D@__crt_stdio_output@@QEBA_NAEAV__crt_cached_ptd_host@@@Z 000000018006b180 f i libucrtd:output.obj
 0001:0006a280       ?validate@?$stream_output_adapter@_W@__crt_stdio_output@@QEBA_NAEAV__crt_cached_ptd_host@@@Z 000000018006b280 f i libucrtd:output.obj
 0001:0006a380       ?validate@?$string_output_adapter@D@__crt_stdio_output@@QEBA_NAEAV__crt_cached_ptd_host@@@Z 000000018006b380 f i libucrtd:output.obj
 0001:0006a460       ?validate@?$string_output_adapter@_W@__crt_stdio_output@@QEBA_NAEAV__crt_cached_ptd_host@@@Z 000000018006b460 f i libucrtd:output.obj
 0001:0006a540       ?validate_and_store_parameter_data@?$positional_parameter_base@DV?$stream_output_adapter@D@__crt_stdio_output@@@__crt_stdio_output@@AEAA_NAEAUparameter_data@12@W4parameter_type@12@DW4length_modifier@2@@Z 000000018006b540 f i libucrtd:output.obj
 0001:0006a680       ?validate_and_store_parameter_data@?$positional_parameter_base@DV?$string_output_adapter@D@__crt_stdio_output@@@__crt_stdio_output@@AEAA_NAEAUparameter_data@12@W4parameter_type@12@DW4length_modifier@2@@Z 000000018006b680 f i libucrtd:output.obj
 0001:0006a7c0       ?validate_and_store_parameter_data@?$positional_parameter_base@_WV?$stream_output_adapter@_W@__crt_stdio_output@@@__crt_stdio_output@@AEAA_NAEAUparameter_data@12@W4parameter_type@12@_WW4length_modifier@2@@Z 000000018006b7c0 f i libucrtd:output.obj
 0001:0006a900       ?validate_and_store_parameter_data@?$positional_parameter_base@_WV?$string_output_adapter@_W@__crt_stdio_output@@@__crt_stdio_output@@AEAA_NAEAUparameter_data@12@W4parameter_type@12@_WW4length_modifier@2@@Z 000000018006b900 f i libucrtd:output.obj
 0001:0006aa40       ?validate_and_update_state_at_beginning_of_format_character@?$positional_parameter_base@DV?$stream_output_adapter@D@__crt_stdio_output@@@__crt_stdio_output@@IEAA_NXZ 000000018006ba40 f i libucrtd:output.obj
 0001:0006ace0       ?validate_and_update_state_at_beginning_of_format_character@?$positional_parameter_base@DV?$string_output_adapter@D@__crt_stdio_output@@@__crt_stdio_output@@IEAA_NXZ 000000018006bce0 f i libucrtd:output.obj
 0001:0006af80       ?validate_and_update_state_at_beginning_of_format_character@?$positional_parameter_base@_WV?$stream_output_adapter@_W@__crt_stdio_output@@@__crt_stdio_output@@IEAA_NXZ 000000018006bf80 f i libucrtd:output.obj
 0001:0006b220       ?validate_and_update_state_at_beginning_of_format_character@?$positional_parameter_base@_WV?$string_output_adapter@_W@__crt_stdio_output@@@__crt_stdio_output@@IEAA_NXZ 000000018006c220 f i libucrtd:output.obj
 0001:0006b4c0       ?validate_and_update_state_at_beginning_of_format_character@?$standard_base@DV?$stream_output_adapter@D@__crt_stdio_output@@@__crt_stdio_output@@IEAA_NXZ 000000018006c4c0 f i libucrtd:output.obj
 0001:0006b4d0       ?validate_and_update_state_at_beginning_of_format_character@?$standard_base@DV?$string_output_adapter@D@__crt_stdio_output@@@__crt_stdio_output@@IEAA_NXZ 000000018006c4d0 f i libucrtd:output.obj
 0001:0006b4e0       ?validate_and_update_state_at_beginning_of_format_character@?$standard_base@_WV?$stream_output_adapter@_W@__crt_stdio_output@@@__crt_stdio_output@@IEAA_NXZ 000000018006c4e0 f i libucrtd:output.obj
 0001:0006b4f0       ?validate_and_update_state_at_beginning_of_format_character@?$standard_base@_WV?$string_output_adapter@_W@__crt_stdio_output@@@__crt_stdio_output@@IEAA_NXZ 000000018006c4f0 f i libucrtd:output.obj
 0001:0006b500       ?validate_and_update_state_at_end_of_format_string@?$format_validation_base@DV?$stream_output_adapter@D@__crt_stdio_output@@@__crt_stdio_output@@IEAA_NXZ 000000018006c500 f i libucrtd:output.obj
 0001:0006b5f0       ?validate_and_update_state_at_end_of_format_string@?$format_validation_base@DV?$string_output_adapter@D@__crt_stdio_output@@@__crt_stdio_output@@IEAA_NXZ 000000018006c5f0 f i libucrtd:output.obj
 0001:0006b6e0       ?validate_and_update_state_at_end_of_format_string@?$format_validation_base@_WV?$stream_output_adapter@_W@__crt_stdio_output@@@__crt_stdio_output@@IEAA_NXZ 000000018006c6e0 f i libucrtd:output.obj
 0001:0006b7d0       ?validate_and_update_state_at_end_of_format_string@?$format_validation_base@_WV?$string_output_adapter@_W@__crt_stdio_output@@@__crt_stdio_output@@IEAA_NXZ 000000018006c7d0 f i libucrtd:output.obj
 0001:0006b8c0       ?validate_and_update_state_at_end_of_format_string@?$positional_parameter_base@DV?$stream_output_adapter@D@__crt_stdio_output@@@__crt_stdio_output@@IEAA_NXZ 000000018006c8c0 f i libucrtd:output.obj
 0001:0006baf0       ?validate_and_update_state_at_end_of_format_string@?$positional_parameter_base@DV?$string_output_adapter@D@__crt_stdio_output@@@__crt_stdio_output@@IEAA_NXZ 000000018006caf0 f i libucrtd:output.obj
 0001:0006bd20       ?validate_and_update_state_at_end_of_format_string@?$positional_parameter_base@_WV?$stream_output_adapter@_W@__crt_stdio_output@@@__crt_stdio_output@@IEAA_NXZ 000000018006cd20 f i libucrtd:output.obj
 0001:0006bf50       ?validate_and_update_state_at_end_of_format_string@?$positional_parameter_base@_WV?$string_output_adapter@_W@__crt_stdio_output@@@__crt_stdio_output@@IEAA_NXZ 000000018006cf50 f i libucrtd:output.obj
 0001:0006c180       ?validate_and_update_state_at_end_of_format_string@?$standard_base@DV?$stream_output_adapter@D@__crt_stdio_output@@@__crt_stdio_output@@IEBA_NXZ 000000018006d180 f i libucrtd:output.obj
 0001:0006c190       ?validate_and_update_state_at_end_of_format_string@?$standard_base@DV?$string_output_adapter@D@__crt_stdio_output@@@__crt_stdio_output@@IEBA_NXZ 000000018006d190 f i libucrtd:output.obj
 0001:0006c1a0       ?validate_and_update_state_at_end_of_format_string@?$standard_base@_WV?$stream_output_adapter@_W@__crt_stdio_output@@@__crt_stdio_output@@IEBA_NXZ 000000018006d1a0 f i libucrtd:output.obj
 0001:0006c1b0       ?validate_and_update_state_at_end_of_format_string@?$standard_base@_WV?$string_output_adapter@_W@__crt_stdio_output@@@__crt_stdio_output@@IEBA_NXZ 000000018006d1b0 f i libucrtd:output.obj
 0001:0006c1c0       ?validate_state_for_type_case_a@?$positional_parameter_base@DV?$stream_output_adapter@D@__crt_stdio_output@@@__crt_stdio_output@@IEAA_NXZ 000000018006d1c0 f i libucrtd:output.obj
 0001:0006c320       ?validate_state_for_type_case_a@?$positional_parameter_base@DV?$string_output_adapter@D@__crt_stdio_output@@@__crt_stdio_output@@IEAA_NXZ 000000018006d320 f i libucrtd:output.obj
 0001:0006c480       ?validate_state_for_type_case_a@?$positional_parameter_base@_WV?$stream_output_adapter@_W@__crt_stdio_output@@@__crt_stdio_output@@IEAA_NXZ 000000018006d480 f i libucrtd:output.obj
 0001:0006c5e0       ?validate_state_for_type_case_a@?$positional_parameter_base@_WV?$string_output_adapter@_W@__crt_stdio_output@@@__crt_stdio_output@@IEAA_NXZ 000000018006d5e0 f i libucrtd:output.obj
 0001:0006c740       ?validate_state_for_type_case_a@?$standard_base@DV?$stream_output_adapter@D@__crt_stdio_output@@@__crt_stdio_output@@IEBA_NXZ 000000018006d740 f i libucrtd:output.obj
 0001:0006c750       ?validate_state_for_type_case_a@?$standard_base@DV?$string_output_adapter@D@__crt_stdio_output@@@__crt_stdio_output@@IEBA_NXZ 000000018006d750 f i libucrtd:output.obj
 0001:0006c760       ?validate_state_for_type_case_a@?$standard_base@_WV?$stream_output_adapter@_W@__crt_stdio_output@@@__crt_stdio_output@@IEBA_NXZ 000000018006d760 f i libucrtd:output.obj
 0001:0006c770       ?validate_state_for_type_case_a@?$standard_base@_WV?$string_output_adapter@_W@__crt_stdio_output@@@__crt_stdio_output@@IEBA_NXZ 000000018006d770 f i libucrtd:output.obj
 0001:0006c780       ?validate_stream_is_ansi_if_required@?$__acrt_stdio_char_traits@D@@SA_NQEAU_iobuf@@@Z 000000018006d780 f i libucrtd:output.obj
 0001:0006c920       ?validate_stream_is_ansi_if_required@?$__acrt_stdio_char_traits@_W@@SA_NQEAU_iobuf@@@Z 000000018006d920 f i libucrtd:output.obj
 0001:0006c930       ?wide_character_to_digit@__crt_strtox@@YAH_W@Z 000000018006d930 f i libucrtd:output.obj
 0001:0006cca0       ?wide_null_string@?$output_processor@DV?$stream_output_adapter@D@__crt_stdio_output@@V?$format_validation_base@DV?$stream_output_adapter@D@__crt_stdio_output@@@2@@__crt_stdio_output@@CAPEA_WXZ 000000018006dca0 f i libucrtd:output.obj
 0001:0006ccb0       ?wide_null_string@?$output_processor@DV?$stream_output_adapter@D@__crt_stdio_output@@V?$positional_parameter_base@DV?$stream_output_adapter@D@__crt_stdio_output@@@2@@__crt_stdio_output@@CAPEA_WXZ 000000018006dcb0 f i libucrtd:output.obj
 0001:0006ccc0       ?wide_null_string@?$output_processor@DV?$stream_output_adapter@D@__crt_stdio_output@@V?$standard_base@DV?$stream_output_adapter@D@__crt_stdio_output@@@2@@__crt_stdio_output@@CAPEA_WXZ 000000018006dcc0 f i libucrtd:output.obj
 0001:0006ccd0       ?wide_null_string@?$output_processor@DV?$string_output_adapter@D@__crt_stdio_output@@V?$format_validation_base@DV?$string_output_adapter@D@__crt_stdio_output@@@2@@__crt_stdio_output@@CAPEA_WXZ 000000018006dcd0 f i libucrtd:output.obj
 0001:0006cce0       ?wide_null_string@?$output_processor@DV?$string_output_adapter@D@__crt_stdio_output@@V?$positional_parameter_base@DV?$string_output_adapter@D@__crt_stdio_output@@@2@@__crt_stdio_output@@CAPEA_WXZ 000000018006dce0 f i libucrtd:output.obj
 0001:0006ccf0       ?wide_null_string@?$output_processor@DV?$string_output_adapter@D@__crt_stdio_output@@V?$standard_base@DV?$string_output_adapter@D@__crt_stdio_output@@@2@@__crt_stdio_output@@CAPEA_WXZ 000000018006dcf0 f i libucrtd:output.obj
 0001:0006cd00       ?wide_null_string@?$output_processor@_WV?$stream_output_adapter@_W@__crt_stdio_output@@V?$format_validation_base@_WV?$stream_output_adapter@_W@__crt_stdio_output@@@2@@__crt_stdio_output@@CAPEA_WXZ 000000018006dd00 f i libucrtd:output.obj
 0001:0006cd10       ?wide_null_string@?$output_processor@_WV?$stream_output_adapter@_W@__crt_stdio_output@@V?$positional_parameter_base@_WV?$stream_output_adapter@_W@__crt_stdio_output@@@2@@__crt_stdio_output@@CAPEA_WXZ 000000018006dd10 f i libucrtd:output.obj
 0001:0006cd20       ?wide_null_string@?$output_processor@_WV?$stream_output_adapter@_W@__crt_stdio_output@@V?$standard_base@_WV?$stream_output_adapter@_W@__crt_stdio_output@@@2@@__crt_stdio_output@@CAPEA_WXZ 000000018006dd20 f i libucrtd:output.obj
 0001:0006cd30       ?wide_null_string@?$output_processor@_WV?$string_output_adapter@_W@__crt_stdio_output@@V?$format_validation_base@_WV?$string_output_adapter@_W@__crt_stdio_output@@@2@@__crt_stdio_output@@CAPEA_WXZ 000000018006dd30 f i libucrtd:output.obj
 0001:0006cd40       ?wide_null_string@?$output_processor@_WV?$string_output_adapter@_W@__crt_stdio_output@@V?$positional_parameter_base@_WV?$string_output_adapter@_W@__crt_stdio_output@@@2@@__crt_stdio_output@@CAPEA_WXZ 000000018006dd40 f i libucrtd:output.obj
 0001:0006cd50       ?wide_null_string@?$output_processor@_WV?$string_output_adapter@_W@__crt_stdio_output@@V?$standard_base@_WV?$string_output_adapter@_W@__crt_stdio_output@@@2@@__crt_stdio_output@@CAPEA_WXZ 000000018006dd50 f i libucrtd:output.obj
 0001:0006cd60       ?write_character@?$output_adapter_common@DV?$stream_output_adapter@D@__crt_stdio_output@@@__crt_stdio_output@@QEBAXDQEAHAEAV__crt_cached_ptd_host@@@Z 000000018006dd60 f i libucrtd:output.obj
 0001:0006cdc0       ?write_character@?$output_adapter_common@_WV?$stream_output_adapter@_W@__crt_stdio_output@@@__crt_stdio_output@@QEBAX_WQEAHAEAV__crt_cached_ptd_host@@@Z 000000018006ddc0 f i libucrtd:output.obj
 0001:0006ce20       ?write_character@?$string_output_adapter@D@__crt_stdio_output@@QEBA_NDQEAHAEAV__crt_cached_ptd_host@@@Z 000000018006de20 f i libucrtd:output.obj
 0001:0006cef0       ?write_character@?$string_output_adapter@_W@__crt_stdio_output@@QEBA_N_WQEAHAEAV__crt_cached_ptd_host@@@Z 000000018006def0 f i libucrtd:output.obj
 0001:0006cfc0       ?write_character_without_count_update@?$stream_output_adapter@D@__crt_stdio_output@@QEBA_NDAEAV__crt_cached_ptd_host@@@Z 000000018006dfc0 f i libucrtd:output.obj
 0001:0006d050       ?write_character_without_count_update@?$stream_output_adapter@_W@__crt_stdio_output@@QEBA_N_WAEAV__crt_cached_ptd_host@@@Z 000000018006e050 f i libucrtd:output.obj
 0001:0006d0e0       ?write_stored_string_tchar@?$output_processor@DV?$stream_output_adapter@D@__crt_stdio_output@@V?$format_validation_base@DV?$stream_output_adapter@D@__crt_stdio_output@@@2@@__crt_stdio_output@@AEAA_ND@Z 000000018006e0e0 f i libucrtd:output.obj
 0001:0006d3d0       ?write_stored_string_tchar@?$output_processor@DV?$stream_output_adapter@D@__crt_stdio_output@@V?$positional_parameter_base@DV?$stream_output_adapter@D@__crt_stdio_output@@@2@@__crt_stdio_output@@AEAA_ND@Z 000000018006e3d0 f i libucrtd:output.obj
 0001:0006d6c0       ?write_stored_string_tchar@?$output_processor@DV?$stream_output_adapter@D@__crt_stdio_output@@V?$standard_base@DV?$stream_output_adapter@D@__crt_stdio_output@@@2@@__crt_stdio_output@@AEAA_ND@Z 000000018006e6c0 f i libucrtd:output.obj
 0001:0006d9b0       ?write_stored_string_tchar@?$output_processor@DV?$string_output_adapter@D@__crt_stdio_output@@V?$format_validation_base@DV?$string_output_adapter@D@__crt_stdio_output@@@2@@__crt_stdio_output@@AEAA_ND@Z 000000018006e9b0 f i libucrtd:output.obj
 0001:0006dca0       ?write_stored_string_tchar@?$output_processor@DV?$string_output_adapter@D@__crt_stdio_output@@V?$positional_parameter_base@DV?$string_output_adapter@D@__crt_stdio_output@@@2@@__crt_stdio_output@@AEAA_ND@Z 000000018006eca0 f i libucrtd:output.obj
 0001:0006df90       ?write_stored_string_tchar@?$output_processor@DV?$string_output_adapter@D@__crt_stdio_output@@V?$standard_base@DV?$string_output_adapter@D@__crt_stdio_output@@@2@@__crt_stdio_output@@AEAA_ND@Z 000000018006ef90 f i libucrtd:output.obj
 0001:0006e280       ?write_stored_string_tchar@?$output_processor@_WV?$stream_output_adapter@_W@__crt_stdio_output@@V?$format_validation_base@_WV?$stream_output_adapter@_W@__crt_stdio_output@@@2@@__crt_stdio_output@@AEAA_N_W@Z 000000018006f280 f i libucrtd:output.obj
 0001:0006e5a0       ?write_stored_string_tchar@?$output_processor@_WV?$stream_output_adapter@_W@__crt_stdio_output@@V?$positional_parameter_base@_WV?$stream_output_adapter@_W@__crt_stdio_output@@@2@@__crt_stdio_output@@AEAA_N_W@Z 000000018006f5a0 f i libucrtd:output.obj
 0001:0006e8c0       ?write_stored_string_tchar@?$output_processor@_WV?$stream_output_adapter@_W@__crt_stdio_output@@V?$standard_base@_WV?$stream_output_adapter@_W@__crt_stdio_output@@@2@@__crt_stdio_output@@AEAA_N_W@Z 000000018006f8c0 f i libucrtd:output.obj
 0001:0006ebe0       ?write_stored_string_tchar@?$output_processor@_WV?$string_output_adapter@_W@__crt_stdio_output@@V?$format_validation_base@_WV?$string_output_adapter@_W@__crt_stdio_output@@@2@@__crt_stdio_output@@AEAA_N_W@Z 000000018006fbe0 f i libucrtd:output.obj
 0001:0006ef00       ?write_stored_string_tchar@?$output_processor@_WV?$string_output_adapter@_W@__crt_stdio_output@@V?$positional_parameter_base@_WV?$string_output_adapter@_W@__crt_stdio_output@@@2@@__crt_stdio_output@@AEAA_N_W@Z 000000018006ff00 f i libucrtd:output.obj
 0001:0006f220       ?write_stored_string_tchar@?$output_processor@_WV?$string_output_adapter@_W@__crt_stdio_output@@V?$standard_base@_WV?$string_output_adapter@_W@__crt_stdio_output@@@2@@__crt_stdio_output@@AEAA_N_W@Z 0000000180070220 f i libucrtd:output.obj
 0001:0006f540       ?write_string@?$stream_output_adapter@D@__crt_stdio_output@@QEBAXQEBDHQEAHAEAV__crt_cached_ptd_host@@@Z 0000000180070540 f i libucrtd:output.obj
 0001:0006f5c0       ?write_string@?$stream_output_adapter@_W@__crt_stdio_output@@QEBAXQEB_WHQEAHAEAV__crt_cached_ptd_host@@@Z 00000001800705c0 f i libucrtd:output.obj
 0001:0006f640       ?write_string@?$string_output_adapter@D@__crt_stdio_output@@QEBAXQEBDHQEAHAEAV__crt_cached_ptd_host@@@Z 0000000180070640 f i libucrtd:output.obj
 0001:0006f7b0       ?write_string@?$string_output_adapter@_W@__crt_stdio_output@@QEBAXQEB_WHQEAHAEAV__crt_cached_ptd_host@@@Z 00000001800707b0 f i libucrtd:output.obj
 0001:0006f920       ?write_string_impl@?$output_adapter_common@DV?$stream_output_adapter@D@__crt_stdio_output@@@__crt_stdio_output@@IEBAXQEBDHQEAHAEAV__crt_cached_ptd_host@@@Z 0000000180070920 f i libucrtd:output.obj
 0001:0006fa40       ?write_string_impl@?$output_adapter_common@_WV?$stream_output_adapter@_W@__crt_stdio_output@@@__crt_stdio_output@@IEBAXQEB_WHQEAHAEAV__crt_cached_ptd_host@@@Z 0000000180070a40 f i libucrtd:output.obj
 0001:0006fb60       __acrt_isleadbyte_l_noupdate 0000000180070b60 f i libucrtd:output.obj
 0001:0006fb90       __acrt_locale_get_ctype_array_value 0000000180070b90 f i libucrtd:output.obj
 0001:0006fbd0       __ascii_iswalpha           0000000180070bd0 f i libucrtd:output.obj
 0001:0006fc10       __ascii_toupper            0000000180070c10 f i libucrtd:output.obj
 0001:0006fc30       __ascii_towupper           0000000180070c30 f i libucrtd:output.obj
 0001:0006fc50       __stdio_common_vfprintf    0000000180070c50 f   libucrtd:output.obj
 0001:0006fcd0       __stdio_common_vfprintf_p  0000000180070cd0 f   libucrtd:output.obj
 0001:0006fd50       __stdio_common_vfprintf_s  0000000180070d50 f   libucrtd:output.obj
 0001:0006fdd0       __stdio_common_vfwprintf   0000000180070dd0 f   libucrtd:output.obj
 0001:0006fe50       __stdio_common_vfwprintf_p 0000000180070e50 f   libucrtd:output.obj
 0001:0006fed0       __stdio_common_vfwprintf_s 0000000180070ed0 f   libucrtd:output.obj
 0001:0006ff50       __stdio_common_vsnprintf_s 0000000180070f50 f   libucrtd:output.obj
 0001:0006ffe0       __stdio_common_vsnwprintf_s 0000000180070fe0 f   libucrtd:output.obj
 0001:00070070       __stdio_common_vsprintf    0000000180071070 f   libucrtd:output.obj
 0001:00070100       __stdio_common_vsprintf_p  0000000180071100 f   libucrtd:output.obj
 0001:00070190       __stdio_common_vsprintf_s  0000000180071190 f   libucrtd:output.obj
 0001:00070220       __stdio_common_vswprintf   0000000180071220 f   libucrtd:output.obj
 0001:000702b0       __stdio_common_vswprintf_p 00000001800712b0 f   libucrtd:output.obj
 0001:00070340       __stdio_common_vswprintf_s 0000000180071340 f   libucrtd:output.obj
 0001:000703d0       _ctype_fast_check_internal 00000001800713d0 f i libucrtd:output.obj
 0001:00070400       _isdigit_fast_internal     0000000180071400 f i libucrtd:output.obj
 0001:00070430       _tolower_fast_internal     0000000180071430 f i libucrtd:output.obj
 0001:00071260       _makepath                  0000000180072260 f   libucrtd:makepath.obj
 0001:000712b0       _makepath_s                00000001800722b0 f   libucrtd:makepath.obj
 0001:00071300       _wmakepath                 0000000180072300 f   libucrtd:makepath.obj
 0001:00071350       _wmakepath_s               0000000180072350 f   libucrtd:makepath.obj
 0001:000739c0       ??$tcsncpy_s@AEAPEAD_KAEAPEBDAEB_K@?$__crt_char_traits@D@@SAHAEAPEAD$$QEA_KAEAPEBDAEB_K@Z 00000001800749c0 f i libucrtd:splitpath.obj
 0001:00073a10       ??$tcsncpy_s@AEAPEAD_KAEAPEBDH@?$__crt_char_traits@D@@SAHAEAPEAD$$QEA_KAEAPEBD$$QEAH@Z 0000000180074a10 f i libucrtd:splitpath.obj
 0001:00073a60       ??$tcsncpy_s@AEAPEA_W_KAEAPEB_WAEB_K@?$__crt_char_traits@_W@@SAHAEAPEA_W$$QEA_KAEAPEB_WAEB_K@Z 0000000180074a60 f i libucrtd:splitpath.obj
 0001:00073ab0       ??$tcsncpy_s@AEAPEA_W_KAEAPEB_WH@?$__crt_char_traits@_W@@SAHAEAPEA_W$$QEA_KAEAPEB_W$$QEAH@Z 0000000180074ab0 f i libucrtd:splitpath.obj
 0001:00073d60       _splitpath                 0000000180074d60 f   libucrtd:splitpath.obj
 0001:00073da0       _splitpath_s               0000000180074da0 f   libucrtd:splitpath.obj
 0001:00073e40       _wsplitpath                0000000180074e40 f   libucrtd:splitpath.obj
 0001:00073e80       _wsplitpath_s              0000000180074e80 f   libucrtd:splitpath.obj
 0001:00074420       wcscpy_s                   0000000180075420 f   libucrtd:wcscpy_s.obj
 0001:00074450       _set_abort_behavior        0000000180075450 f   libucrtd:abort.obj
 0001:00074490       abort                      0000000180075490 f   libucrtd:abort.obj
 0001:00074510       ??$__crt_fast_decode_pointer@P6AXPEB_W00I_K@Z@@YAP6AXPEB_W00I_K@ZQ6AX000I1@Z@Z 0000000180075510 f i libucrtd:invalid_parameter.obj
 0001:00074550       ??$__crt_fast_encode_pointer@P6AXPEB_W00I_K@Z@@YAP6AXPEB_W00I_K@ZQ6AX000I1@Z@Z 0000000180075550 f i libucrtd:invalid_parameter.obj
 0001:00074590       ??$initialize_from_array@$$BY00Q6AXPEB_W00I_K@Z@?$dual_state_global@P6AXPEB_W00I_K@Z@__crt_state_management@@QEAAXAEAY00Q6AXPEB_W00I_K@Z@Z 0000000180075590 f i libucrtd:invalid_parameter.obj
 0001:000746b0       ?check_synchronize_global_state_index@__crt_cached_ptd_host@@AEAA_KXZ 00000001800756b0 f i libucrtd:invalid_parameter.obj
 0001:00074710       ?dangerous_get_state_array@?$dual_state_global@P6AXPEB_W00I_K@Z@__crt_state_management@@QEAAPEAP6AXPEB_W00I_K@ZXZ 0000000180075710 f i libucrtd:invalid_parameter.obj
 0001:00074720       ?get_current_global_state_index@__crt_cached_ptd_host@@QEAA_KXZ 0000000180075720 f i libucrtd:invalid_parameter.obj
 0001:00074740       ?get_raw_ptd_noexit@__crt_cached_ptd_host@@QEAAPEAU__acrt_ptd@@XZ 0000000180075740 f i libucrtd:invalid_parameter.obj
 0001:00074760       ?try_synchronize_per_thread_data@__crt_cached_ptd_host@@AEAAPEAU__acrt_ptd@@XZ 0000000180075760 f i libucrtd:invalid_parameter.obj
 0001:00074790       ?value@?$dual_state_global@P6AXPEB_W00I_K@Z@__crt_state_management@@QEAAAEAP6AXPEB_W00I_K@ZAEAV__crt_cached_ptd_host@@@Z 0000000180075790 f i libucrtd:invalid_parameter.obj
 0001:000747c0       ?value@?$dual_state_global@P6AXPEB_W00I_K@Z@__crt_state_management@@QEAAAEAP6AXPEB_W00I_K@ZXZ 00000001800757c0 f i libucrtd:invalid_parameter.obj
 0001:000747e0       __acrt_call_reportfault    00000001800757e0 f   libucrtd:invalid_parameter.obj
 0001:00074910       __acrt_initialize_invalid_parameter_handler 0000000180075910 f   libucrtd:invalid_parameter.obj
 0001:00074940       _get_invalid_parameter_handler 0000000180075940 f   libucrtd:invalid_parameter.obj
 0001:00074960       _get_thread_local_invalid_parameter_handler 0000000180075960 f   libucrtd:invalid_parameter.obj
 0001:00074990       _invalid_parameter         0000000180075990 f   libucrtd:invalid_parameter.obj
 0001:00074a00       _invalid_parameter_internal 0000000180075a00 f   libucrtd:invalid_parameter.obj
 0001:00074b40       _invalid_parameter_noinfo  0000000180075b40 f   libucrtd:invalid_parameter.obj
 0001:00074b70       _invalid_parameter_noinfo_noreturn 0000000180075b70 f   libucrtd:invalid_parameter.obj
 0001:00074bb0       _invoke_watson             0000000180075bb0 f   libucrtd:invalid_parameter.obj
 0001:00074c10       _set_invalid_parameter_handler 0000000180075c10 f   libucrtd:invalid_parameter.obj
 0001:00074c60       _set_thread_local_invalid_parameter_handler 0000000180075c60 f   libucrtd:invalid_parameter.obj
 0001:00074ca0       ??$is_overflow_condition@_K@__crt_strtox@@YA_NI_K@Z 0000000180075ca0 f i libucrtd:atox.obj
 0001:00074d10       ??$make_c_string_character_source@D$$T@__crt_strtox@@YA?AV?$c_string_character_source@D@0@QEBD$$T@Z 0000000180075d10 f i libucrtd:atox.obj
 0001:00074d50       ??$make_c_string_character_source@_W$$T@__crt_strtox@@YA?AV?$c_string_character_source@_W@0@QEB_W$$T@Z 0000000180075d50 f i libucrtd:atox.obj
 0001:00074d90       ??$parse_integer@KV?$c_string_character_source@D@__crt_strtox@@$00@__crt_strtox@@YAKAEAV__crt_cached_ptd_host@@V?$c_string_character_source@D@0@H_N@Z 0000000180075d90 f i libucrtd:atox.obj
 0001:00075250       ??$parse_integer@KV?$c_string_character_source@_W@__crt_strtox@@$00@__crt_strtox@@YAKAEAV__crt_cached_ptd_host@@V?$c_string_character_source@_W@0@H_N@Z 0000000180076250 f i libucrtd:atox.obj
 0001:00075720       ??$parse_integer@_KV?$c_string_character_source@D@__crt_strtox@@$00@__crt_strtox@@YA_KAEAV__crt_cached_ptd_host@@V?$c_string_character_source@D@0@H_N@Z 0000000180076720 f i libucrtd:atox.obj
 0001:00075c30       ??$parse_integer@_KV?$c_string_character_source@_W@__crt_strtox@@$00@__crt_strtox@@YA_KAEAV__crt_cached_ptd_host@@V?$c_string_character_source@_W@0@H_N@Z 0000000180076c30 f i libucrtd:atox.obj
 0001:00076150       ??$parse_integer_from_string@JD$$T@__crt_strtox@@YAJQEBD$$THQEAU__crt_locale_pointers@@@Z 0000000180077150 f i libucrtd:atox.obj
 0001:000761e0       ??$parse_integer_from_string@J_W$$T@__crt_strtox@@YAJQEB_W$$THQEAU__crt_locale_pointers@@@Z 00000001800771e0 f i libucrtd:atox.obj
 0001:00076270       ??$parse_integer_from_string@_JD$$T@__crt_strtox@@YA_JQEBD$$THQEAU__crt_locale_pointers@@@Z 0000000180077270 f i libucrtd:atox.obj
 0001:00076300       ??$parse_integer_from_string@_J_W$$T@__crt_strtox@@YA_JQEB_W$$THQEAU__crt_locale_pointers@@@Z 0000000180077300 f i libucrtd:atox.obj
 0001:00076390       ?is_space@__crt_strtox@@YA_NDQEAU__crt_locale_pointers@@@Z 0000000180077390 f i libucrtd:atox.obj
 0001:000763e0       ?is_space@__crt_strtox@@YA_N_WPEAU__crt_locale_pointers@@@Z 00000001800773e0 f i libucrtd:atox.obj
 0001:00076420       ?maximum_signed_value@__crt_strtox@@YA_J_K@Z 0000000180077420 f i libucrtd:atox.obj
 0001:00076430       ?minimum_signed_value@__crt_strtox@@YA_J_K@Z 0000000180077430 f i libucrtd:atox.obj
 0001:00076440       _atoi64                    0000000180077440 f   libucrtd:atox.obj
 0001:00076470       _atoi64_l                  0000000180077470 f   libucrtd:atox.obj
 0001:000764a0       _atoi_l                    00000001800774a0 f   libucrtd:atox.obj
 0001:000764d0       _atol_l                    00000001800774d0 f   libucrtd:atox.obj
 0001:00076500       _atoll_l                   0000000180077500 f   libucrtd:atox.obj
 0001:00076530       _wtoi                      0000000180077530 f   libucrtd:atox.obj
 0001:00076560       _wtoi64                    0000000180077560 f   libucrtd:atox.obj
 0001:00076590       _wtoi64_l                  0000000180077590 f   libucrtd:atox.obj
 0001:000765c0       _wtoi_l                    00000001800775c0 f   libucrtd:atox.obj
 0001:000765f0       _wtol                      00000001800775f0 f   libucrtd:atox.obj
 0001:00076620       _wtol_l                    0000000180077620 f   libucrtd:atox.obj
 0001:00076650       _wtoll                     0000000180077650 f   libucrtd:atox.obj
 0001:00076680       _wtoll_l                   0000000180077680 f   libucrtd:atox.obj
 0001:000766b0       atoi                       00000001800776b0 f   libucrtd:atox.obj
 0001:000766e0       atol                       00000001800776e0 f   libucrtd:atox.obj
 0001:00076710       atoll                      0000000180077710 f   libucrtd:atox.obj
 0001:00076740       wcsncmp                    0000000180077740 f   libucrtd:wcsncmp.obj
 0001:000767d0       free                       00000001800777d0 f   libucrtd:free.obj
 0001:000767f0       malloc                     00000001800777f0 f   libucrtd:malloc.obj
 0001:00076820       _chvalidator               0000000180077820 f   libucrtd:isctype.obj
 0001:00076890       _chvalidator_l             0000000180077890 f   libucrtd:isctype.obj
 0001:00076940       _isctype                   0000000180077940 f   libucrtd:isctype.obj
 0001:00076990       _isctype_l                 0000000180077990 f   libucrtd:isctype.obj
 0001:00076bd0       _isleadbyte_fast_internal  0000000180077bd0 f i libucrtd:isctype.obj
 0001:00076d80       ?get_doserrno@__crt_cached_ptd_host@@QEAA@XZ 0000000180077d80 f i libucrtd:errno.obj
 0001:00076d90       ?set@?$cached@K@__crt_cached_ptd_host@@QEAAKK@Z 0000000180077d90 f i libucrtd:errno.obj
 0001:00076dc0       __acrt_errno_from_os_error 0000000180077dc0 f   libucrtd:errno.obj
 0001:00076e90       __acrt_errno_map_os_error  0000000180077e90 f   libucrtd:errno.obj
 0001:00076ec0       __acrt_errno_map_os_error_ptd 0000000180077ec0 f   libucrtd:errno.obj
 0001:00076f20       __doserrno                 0000000180077f20 f   libucrtd:errno.obj
 0001:00076f50       _errno                     0000000180077f50 f   libucrtd:errno.obj
 0001:00076f80       _get_doserrno              0000000180077f80 f   libucrtd:errno.obj
 0001:00077040       _get_errno                 0000000180078040 f   libucrtd:errno.obj
 0001:00077100       _set_doserrno              0000000180078100 f   libucrtd:errno.obj
 0001:00077140       _set_errno                 0000000180078140 f   libucrtd:errno.obj
 0001:00077180       _callnewh                  0000000180078180 f   libucrtd:new_handler.obj
 0001:000771e0       __acrt_initialize_new_handler 00000001800781e0 f   libucrtd:new_handler.obj
 0001:00077210       _query_new_handler         0000000180078210 f   libucrtd:new_handler.obj
 0001:00077260       _set_new_handler           0000000180078260 f   libucrtd:new_handler.obj
 0001:000772d0       ?_set_new_handler@@YAP6AH_K@ZH@Z 00000001800782d0 f   libucrtd:new_handler.obj
 0001:00077340       ??$?B$$A6AH_K@Z@__crt_fast_encoded_nullptr_t@@QEBAP6AH_K@ZXZ 0000000180078340 f i libucrtd:new_handler.obj
 0001:00077360       ??$__crt_fast_decode_pointer@P6AH_K@Z@@YAP6AH_K@ZQ6AH0@Z@Z 0000000180078360 f i libucrtd:new_handler.obj
 0001:000773a0       ??$__crt_fast_encode_pointer@P6AH_K@Z@@YAP6AH_K@ZQ6AH0@Z@Z 00000001800783a0 f i libucrtd:new_handler.obj
 0001:000773e0       ?initialize@?$dual_state_global@P6AH_K@Z@__crt_state_management@@QEAAXQ6AH_K@Z@Z 00000001800783e0 f i libucrtd:new_handler.obj
 0001:00077430       ?value@?$dual_state_global@P6AH_K@Z@__crt_state_management@@QEAAAEAP6AH_K@ZXZ 0000000180078430 f i libucrtd:new_handler.obj
 0001:00077450       _free_base                 0000000180078450 f   libucrtd:free_base.obj
 0001:000774c0       _realloc_base              00000001800784c0 f   libucrtd:realloc_base.obj
 0001:00077570       ??$?RU__acrt_ptd@@@__crt_internal_free_policy@@QEBAXQEBU__acrt_ptd@@@Z 0000000180078570 f i libucrtd:per_thread_data.obj
 0001:00077820       ??$internal_get_ptd_head@P6APEAXK@Z@@YAPEAU__acrt_ptd@@P6APEAXK@Z@Z 0000000180078820 f i libucrtd:per_thread_data.obj
 0001:00077860       ??$try_get_ptd_head@P6APEAXK@Z@@YAPEAU__acrt_ptd@@P6APEAXK@Z@Z 0000000180078860 f i libucrtd:per_thread_data.obj
 0001:00077a50       ??0?$__crt_unique_heap_ptr@U__acrt_ptd@@U__crt_internal_free_policy@@@@QEAA@QEAU__acrt_ptd@@@Z 0000000180078a50 f i libucrtd:per_thread_data.obj
 0001:00077a70       ??1?$__crt_unique_heap_ptr@U__acrt_ptd@@U__crt_internal_free_policy@@@@QEAA@XZ 0000000180078a70 f i libucrtd:per_thread_data.obj
 0001:00077a90       ??B?$__crt_unique_heap_ptr@U__acrt_ptd@@U__crt_internal_free_policy@@@@QEBA_NXZ 0000000180078a90 f i libucrtd:per_thread_data.obj
 0001:00077de0       ?dangerous_get_state_array@?$dual_state_global@PEAU__crt_locale_data@@@__crt_state_management@@QEAAPEAPEAU__crt_locale_data@@XZ 0000000180078de0 f i libucrtd:per_thread_data.obj
 0001:00077fb0       ?detach@?$__crt_unique_heap_ptr@U__acrt_ptd@@U__crt_internal_free_policy@@@@QEAAPEAU__acrt_ptd@@XZ 0000000180078fb0 f i libucrtd:per_thread_data.obj
 0001:00077fe0       ?get@?$__crt_unique_heap_ptr@U__acrt_ptd@@U__crt_internal_free_policy@@@@QEBAPEAU__acrt_ptd@@XZ 0000000180078fe0 f i libucrtd:per_thread_data.obj
 0001:00077ff0       ?get_current_state_index2@__crt_state_management@@YA_KXZ 0000000180078ff0 f i libucrtd:per_thread_data.obj
 0001:00078000       ?internal_get_ptd_head_slow@@YAPEAU__acrt_ptd@@XZ 0000000180079000 f   libucrtd:per_thread_data.obj
 0001:00078230       ?is_valid@?$__crt_unique_heap_ptr@U__acrt_ptd@@U__crt_internal_free_policy@@@@QEBA_NXZ 0000000180079230 f i libucrtd:per_thread_data.obj
 0001:00078260       ?release@?$__crt_unique_heap_ptr@U__acrt_ptd@@U__crt_internal_free_policy@@@@QEAAXXZ 0000000180079260 f i libucrtd:per_thread_data.obj
 0001:00078350       ?value@?$dual_state_global@PEAU__crt_locale_data@@@__crt_state_management@@QEAAAEAPEAU__crt_locale_data@@XZ 0000000180079350 f i libucrtd:per_thread_data.obj
 0001:00078370       __acrt_freeptd             0000000180079370 f   libucrtd:per_thread_data.obj
 0001:000783b0       __acrt_getptd              00000001800793b0 f   libucrtd:per_thread_data.obj
 0001:000783e0       __acrt_getptd_head         00000001800793e0 f   libucrtd:per_thread_data.obj
 0001:00078410       __acrt_getptd_noexit       0000000180079410 f   libucrtd:per_thread_data.obj
 0001:00078450       __acrt_getptd_noexit_explicit 0000000180079450 f   libucrtd:per_thread_data.obj
 0001:00078480       __acrt_initialize_ptd      0000000180079480 f   libucrtd:per_thread_data.obj
 0001:000784d0       __acrt_uninitialize_ptd    00000001800794d0 f   libucrtd:per_thread_data.obj
 0001:00078500       __threadhandle             0000000180079500 f   libucrtd:per_thread_data.obj
 0001:00078510       __threadid                 0000000180079510 f   libucrtd:per_thread_data.obj
 0001:00078520       __acrt_initialize_locks    0000000180079520 f   libucrtd:locks.obj
 0001:00078590       __acrt_lock                0000000180079590 f   libucrtd:locks.obj
 0001:000785c0       __acrt_uninitialize_locks  00000001800795c0 f   libucrtd:locks.obj
 0001:00078620       __acrt_unlock              0000000180079620 f   libucrtd:locks.obj
 0001:00078650       _lock_locales              0000000180079650 f   libucrtd:locks.obj
 0001:00078670       _unlock_locales            0000000180079670 f   libucrtd:locks.obj
 0001:00078690       _expand                    0000000180079690 f   libucrtd:expand.obj
 0001:000786d0       _expand_base               00000001800796d0 f   libucrtd:expand.obj
 0001:000788d0       ?value@?$dual_state_global@PEAU__crt_multibyte_data@@@__crt_state_management@@QEAAAEAPEAU__crt_multibyte_data@@XZ 00000001800798d0 f i libucrtd:locale_update.obj
 0001:000788f0       ?value_explicit@?$dual_state_global@PEAU__crt_locale_data@@@__crt_state_management@@QEAAAEAPEAU__crt_locale_data@@_K@Z 00000001800798f0 f i libucrtd:locale_update.obj
 0001:00078910       ?value_explicit@?$dual_state_global@PEAU__crt_multibyte_data@@@__crt_state_management@@QEAAAEAPEAU__crt_multibyte_data@@_K@Z 0000000180079910 f i libucrtd:locale_update.obj
 0001:00078930       __acrt_should_sync_with_global_locale 0000000180079930 f i libucrtd:locale_update.obj
 0001:00078970       __acrt_update_locale_info  0000000180079970 f   libucrtd:locale_update.obj
 0001:000789c0       __acrt_update_locale_info_explicit 00000001800799c0 f   libucrtd:locale_update.obj
 0001:00078a20       __acrt_update_multibyte_info 0000000180079a20 f   libucrtd:locale_update.obj
 0001:00078a70       __acrt_update_multibyte_info_explicit 0000000180079a70 f   libucrtd:locale_update.obj
 0001:00078ad0       _query_new_mode            0000000180079ad0 f   libucrtd:new_mode.obj
 0001:00078b00       _set_new_mode              0000000180079b00 f   libucrtd:new_mode.obj
 0001:00078bd0       ?value@?$dual_state_global@J@__crt_state_management@@QEAAAEAJXZ 0000000180079bd0 f i libucrtd:new_mode.obj
 0001:00078bf0       _CrtDefaultAllocHook       0000000180079bf0 f   libucrtd:debug_heap_hook.obj
 0001:00078c20       ??$?RU__crt_locale_data@@@__crt_internal_free_policy@@QEBAXQEBU__crt_locale_data@@@Z 0000000180079c20 f i libucrtd:wsetlocale.obj
 0001:00078c50       ??$?RU__crt_locale_pointers@@@__crt_internal_free_policy@@QEBAXQEBU__crt_locale_pointers@@@Z 0000000180079c50 f i libucrtd:wsetlocale.obj
 0001:00078c80       ??$?RU__crt_multibyte_data@@@__crt_internal_free_policy@@QEBAXQEBU__crt_multibyte_data@@@Z 0000000180079c80 f i libucrtd:wsetlocale.obj
 0001:00079230       ??0?$__crt_unique_heap_ptr@U__crt_locale_data@@U__crt_internal_free_policy@@@@QEAA@QEAU__crt_locale_data@@@Z 000000018007a230 f i libucrtd:wsetlocale.obj
 0001:00079250       ??0?$__crt_unique_heap_ptr@U__crt_locale_pointers@@U__crt_internal_free_policy@@@@QEAA@QEAU__crt_locale_pointers@@@Z 000000018007a250 f i libucrtd:wsetlocale.obj
 0001:00079270       ??0?$__crt_unique_heap_ptr@U__crt_multibyte_data@@U__crt_internal_free_policy@@@@QEAA@QEAU__crt_multibyte_data@@@Z 000000018007a270 f i libucrtd:wsetlocale.obj
 0001:00079290       ??0_expandlocale_locale_name_cache@@QEAA@QEA_W_KQEAU__crt_qualified_locale_data@@@Z 000000018007a290 f i libucrtd:wsetlocale.obj
 0001:00079340       ??1?$__crt_unique_heap_ptr@U__crt_locale_data@@U__crt_internal_free_policy@@@@QEAA@XZ 000000018007a340 f i libucrtd:wsetlocale.obj
 0001:00079360       ??1?$__crt_unique_heap_ptr@U__crt_locale_pointers@@U__crt_internal_free_policy@@@@QEAA@XZ 000000018007a360 f i libucrtd:wsetlocale.obj
 0001:00079380       ??1?$__crt_unique_heap_ptr@U__crt_multibyte_data@@U__crt_internal_free_policy@@@@QEAA@XZ 000000018007a380 f i libucrtd:wsetlocale.obj
 0001:000793a0       ??1_expandlocale_locale_name_cache@@QEAA@XZ 000000018007a3a0 f i libucrtd:wsetlocale.obj
 0001:00079420       ??B?$__crt_unique_heap_ptr@U__crt_locale_data@@U__crt_internal_free_policy@@@@QEBA_NXZ 000000018007a420 f i libucrtd:wsetlocale.obj
 0001:00079440       ??B?$__crt_unique_heap_ptr@U__crt_locale_pointers@@U__crt_internal_free_policy@@@@QEBA_NXZ 000000018007a440 f i libucrtd:wsetlocale.obj
 0001:00079460       ??B?$__crt_unique_heap_ptr@U__crt_multibyte_data@@U__crt_internal_free_policy@@@@QEBA_NXZ 000000018007a460 f i libucrtd:wsetlocale.obj
 0001:00079910       ?commit_locale_name@_expandlocale_locale_name_cache@@QEAAXQEB_W_K@Z 000000018007a910 f i libucrtd:wsetlocale.obj
 0001:00079990       ?commit_locale_name_cache_already_updated@_expandlocale_locale_name_cache@@QEAAXQEB_W_K@Z 000000018007a990 f i libucrtd:wsetlocale.obj
 0001:00079a00       ?detach@?$__crt_unique_heap_ptr@U__crt_locale_data@@U__crt_internal_free_policy@@@@QEAAPEAU__crt_locale_data@@XZ 000000018007aa00 f i libucrtd:wsetlocale.obj
 0001:00079a30       ?detach@?$__crt_unique_heap_ptr@U__crt_locale_pointers@@U__crt_internal_free_policy@@@@QEAAPEAU__crt_locale_pointers@@XZ 000000018007aa30 f i libucrtd:wsetlocale.obj
 0001:00079a60       ?detach@?$__crt_unique_heap_ptr@U__crt_multibyte_data@@U__crt_internal_free_policy@@@@QEAAPEAU__crt_multibyte_data@@XZ 000000018007aa60 f i libucrtd:wsetlocale.obj
 0001:00079a90       ?get@?$__crt_unique_heap_ptr@U__crt_locale_data@@U__crt_internal_free_policy@@@@QEBAPEAU__crt_locale_data@@XZ 000000018007aa90 f i libucrtd:wsetlocale.obj
 0001:00079aa0       ?get@?$__crt_unique_heap_ptr@U__crt_locale_pointers@@U__crt_internal_free_policy@@@@QEBAPEAU__crt_locale_pointers@@XZ 000000018007aaa0 f i libucrtd:wsetlocale.obj
 0001:00079ab0       ?get@?$__crt_unique_heap_ptr@U__crt_multibyte_data@@U__crt_internal_free_policy@@@@QEBAPEAU__crt_multibyte_data@@XZ 000000018007aab0 f i libucrtd:wsetlocale.obj
 0001:00079ac0       ?is_valid@?$__crt_unique_heap_ptr@U__crt_locale_data@@U__crt_internal_free_policy@@@@QEBA_NXZ 000000018007aac0 f i libucrtd:wsetlocale.obj
 0001:00079af0       ?is_valid@?$__crt_unique_heap_ptr@U__crt_locale_pointers@@U__crt_internal_free_policy@@@@QEBA_NXZ 000000018007aaf0 f i libucrtd:wsetlocale.obj
 0001:00079b20       ?is_valid@?$__crt_unique_heap_ptr@U__crt_multibyte_data@@U__crt_internal_free_policy@@@@QEBA_NXZ 000000018007ab20 f i libucrtd:wsetlocale.obj
 0001:00079b50       ?release@?$__crt_unique_heap_ptr@U__crt_locale_data@@U__crt_internal_free_policy@@@@QEAAXXZ 000000018007ab50 f i libucrtd:wsetlocale.obj
 0001:00079b80       ?release@?$__crt_unique_heap_ptr@U__crt_locale_pointers@@U__crt_internal_free_policy@@@@QEAAXXZ 000000018007ab80 f i libucrtd:wsetlocale.obj
 0001:00079bb0       ?release@?$__crt_unique_heap_ptr@U__crt_multibyte_data@@U__crt_internal_free_policy@@@@QEAAXXZ 000000018007abb0 f i libucrtd:wsetlocale.obj
 0001:00079be0       __acrt_copy_locale_name    000000018007abe0 f   libucrtd:wsetlocale.obj
 0001:00079cc0       __acrt_set_locale_changed  000000018007acc0 f   libucrtd:wsetlocale.obj
 0001:00079cd0       __acrt_uninitialize_locale 000000018007acd0 f   libucrtd:wsetlocale.obj
 0001:00079d00       __ascii_tolower            000000018007ad00 f i libucrtd:wsetlocale.obj
 0001:00079d20       __ascii_towlower           000000018007ad20 f i libucrtd:wsetlocale.obj
 0001:00079d40       __lc_lctowcs               000000018007ad40 f   libucrtd:wsetlocale.obj
 0001:00079e30       __lc_wcstolc               000000018007ae30 f   libucrtd:wsetlocale.obj
 0001:0007a110       _configthreadlocale        000000018007b110 f   libucrtd:wsetlocale.obj
 0001:0007a2d0       _create_locale             000000018007b2d0 f   libucrtd:wsetlocale.obj
 0001:0007a9e0       _free_locale               000000018007b9e0 f   libucrtd:wsetlocale.obj
 0001:0007aad0       _get_current_locale        000000018007bad0 f   libucrtd:wsetlocale.obj
 0001:0007abf0       _wcreate_locale            000000018007bbf0 f   libucrtd:wsetlocale.obj
 0001:0007aef0       _wcscats                   000000018007bef0 f   libucrtd:wsetlocale.obj
 0001:0007afe0       _wsetlocale                000000018007bfe0 f   libucrtd:wsetlocale.obj
 0001:0007cc90       __p___mb_cur_max           000000018007dc90 f   libucrtd:nlsdata.obj
 0001:0007ccd0       _get_heap_handle           000000018007dcd0 f   libucrtd:heap_handle.obj
 0001:0007cd30       __acrt_initialize_heap     000000018007dd30 f   libucrtd:heap_handle.obj
 0001:0007cd60       __acrt_uninitialize_heap   000000018007dd60 f   libucrtd:heap_handle.obj
 0001:0007cd80       __acrt_getheap             000000018007dd80 f   libucrtd:heap_handle.obj
 0001:0007cde0       _CrtGetReportHook          000000018007dde0 f   libucrtd:dbgrptt.obj
 0001:0007cdf0       _CrtSetReportFile          000000018007ddf0 f   libucrtd:dbgrptt.obj
 0001:0007cf50       _CrtSetReportHook          000000018007df50 f   libucrtd:dbgrptt.obj
 0001:0007cf80       _CrtSetReportMode          000000018007df80 f   libucrtd:dbgrptt.obj
 0001:0007d140       _VCrtDbgReportA            000000018007e140 f   libucrtd:dbgrptt.obj
 0001:0007db60       _VCrtDbgReportW            000000018007eb60 f   libucrtd:dbgrptt.obj
 0001:0007e740       _snprintf_s                000000018007f740 f i libucrtd:dbgrptt.obj
 0001:0007e7c0       _vsnprintf_s               000000018007f7c0 f i libucrtd:dbgrptt.obj
 0001:0007e810       _vsnprintf_s_l             000000018007f810 f i libucrtd:dbgrptt.obj
 0001:0007fb90       ??1?$__crt_simd_cleanup_guard@$00@@QEAA@XZ 0000000180080b90 f i libucrtd:strnlen.obj
 0001:0007fba0       ??1?$__crt_simd_cleanup_guard@$0A@@@QEAA@XZ 0000000180080ba0 f i libucrtd:strnlen.obj
 0001:0007fbb0       ?compare_equals@?$__crt_simd_traits@$00E@@SA?AT__m256i@@T2@0@Z 0000000180080bb0 f i libucrtd:strnlen.obj
 0001:0007fbf0       ?compare_equals@?$__crt_simd_traits@$00G@@SA?AT__m256i@@T2@0@Z 0000000180080bf0 f i libucrtd:strnlen.obj
 0001:0007fc30       ?compare_equals@?$__crt_simd_traits@$0A@E@@SA?AT__m128i@@T2@0@Z 0000000180080c30 f i libucrtd:strnlen.obj
 0001:0007fc60       ?compare_equals@?$__crt_simd_traits@$0A@G@@SA?AT__m128i@@T2@0@Z 0000000180080c60 f i libucrtd:strnlen.obj
 0001:0007fc90       ?compute_byte_mask@?$__crt_simd_pack_traits@$00@@SAHT__m256i@@@Z 0000000180080c90 f i libucrtd:strnlen.obj
 0001:0007fcb0       ?compute_byte_mask@?$__crt_simd_pack_traits@$0A@@@SAHT__m128i@@@Z 0000000180080cb0 f i libucrtd:strnlen.obj
 0001:0007fcd0       ?get_zero_pack@?$__crt_simd_pack_traits@$00@@SA?AT__m256i@@XZ 0000000180080cd0 f i libucrtd:strnlen.obj
 0001:0007fd00       ?get_zero_pack@?$__crt_simd_pack_traits@$0A@@@SA?AT__m128i@@XZ 0000000180080d00 f i libucrtd:strnlen.obj
 0001:0007fd20       strnlen                    0000000180080d20 f   libucrtd:strnlen.obj
 0001:0007fd50       wcslen                     0000000180080d50 f   libucrtd:strnlen.obj
 0001:0007fd70       wcsnlen                    0000000180080d70 f   libucrtd:strnlen.obj
 0001:0007fda0       ??$__acrt_convert_wcs_mbs_cp@_WDV<lambda_f788ae46380686e8b737efdd8c720d07>@@U__crt_win32_buffer_no_resizing@@@@YAHQEB_WAEAV?$__crt_win32_buffer@DU__crt_win32_buffer_no_resizing@@@@AEBV<lambda_f788ae46380686e8b737efdd8c720d07>@@I@Z 0000000180080da0 f i libucrtd:getmodulefilenamea.obj
 0001:0007ff50       ??$__acrt_wcs_to_mbs_cp@U__crt_win32_buffer_no_resizing@@@@YAHQEB_WAEAV?$__crt_win32_buffer@DU__crt_win32_buffer_no_resizing@@@@I@Z 0000000180080f50 f i libucrtd:getmodulefilenamea.obj
 0001:0007ffa0       ??0?$__crt_win32_buffer@DU__crt_win32_buffer_no_resizing@@@@QEAA@QEAD_K@Z 0000000180080fa0 f i libucrtd:getmodulefilenamea.obj
 0001:00080010       ??1?$__crt_win32_buffer@DU__crt_win32_buffer_no_resizing@@@@QEAA@XZ 0000000180081010 f i libucrtd:getmodulefilenamea.obj
 0001:00080040       ??R<lambda_f788ae46380686e8b737efdd8c720d07>@@QEBA@IQEB_WQEAD_K@Z 0000000180081040 f i libucrtd:getmodulefilenamea.obj
 0001:000800a0       ?__acrt_get_utf8_acp_compatibility_codepage@@YAIXZ 00000001800810a0 f i libucrtd:getmodulefilenamea.obj
 0001:00080140       ?_deallocate@?$__crt_win32_buffer@DU__crt_win32_buffer_no_resizing@@@@AEAAXXZ 0000000180081140 f i libucrtd:getmodulefilenamea.obj
 0001:00080190       ?allocate@?$__crt_win32_buffer@DU__crt_win32_buffer_no_resizing@@@@QEAAH_K@Z 0000000180081190 f i libucrtd:getmodulefilenamea.obj
 0001:00080210       ?allocate@__crt_win32_buffer_no_resizing@@SAHQEAPEAX_KAEBV__crt_win32_buffer_empty_debug_info@@@Z 0000000180081210 f i libucrtd:getmodulefilenamea.obj
 0001:00080240       ?capacity@?$__crt_win32_buffer@DU__crt_win32_buffer_no_resizing@@@@QEBA_KXZ 0000000180081240 f i libucrtd:getmodulefilenamea.obj
 0001:00080250       ?data@?$__crt_win32_buffer@DU__crt_win32_buffer_no_resizing@@@@QEAAPEADXZ 0000000180081250 f i libucrtd:getmodulefilenamea.obj
 0001:00080260       ?deallocate@__crt_win32_buffer_no_resizing@@SAXQEAXAEBV__crt_win32_buffer_empty_debug_info@@@Z 0000000180081260 f i libucrtd:getmodulefilenamea.obj
 0001:00080270       ?debug_info@?$__crt_win32_buffer@DU__crt_win32_buffer_no_resizing@@@@QEBAAEBV__crt_win32_buffer_empty_debug_info@@XZ 0000000180081270 f i libucrtd:getmodulefilenamea.obj
 0001:00080280       ?set_to_nullptr@?$__crt_win32_buffer@DU__crt_win32_buffer_no_resizing@@@@QEAAXXZ 0000000180081280 f i libucrtd:getmodulefilenamea.obj
 0001:000802c0       ?size@?$__crt_win32_buffer@DU__crt_win32_buffer_no_resizing@@@@QEAAX_K@Z 00000001800812c0 f i libucrtd:getmodulefilenamea.obj
 0001:000802e0       ?size@?$__crt_win32_buffer@DU__crt_win32_buffer_no_resizing@@@@QEBA_KXZ 00000001800812e0 f i libucrtd:getmodulefilenamea.obj
 0001:000802f0       __acrt_GetModuleFileNameA  00000001800812f0 f   libucrtd:getmodulefilenamea.obj
 0001:00080650       ??$message_box@$$TAEBQEBDAEBQEBDK@?$__crt_char_traits@D@@SAH$$QEA$$TAEBQEBD1$$QEAK@Z 0000000180081650 f i libucrtd:crtmbox.obj
 0001:000806a0       ??$message_box@$$TAEBQEB_WAEBQEB_WK@?$__crt_char_traits@_W@@SAH$$QEA$$TAEBQEB_W1$$QEAK@Z 00000001800816a0 f i libucrtd:crtmbox.obj
 0001:000806f0       ??$message_box@PEAUHWND__@@AEBQEBDAEBQEBDAEBI@?$__crt_char_traits@D@@SAH$$QEAPEAUHWND__@@AEBQEBD1AEBI@Z 00000001800816f0 f i libucrtd:crtmbox.obj
 0001:00080740       ??$message_box@PEAUHWND__@@AEBQEB_WAEBQEB_WAEBI@?$__crt_char_traits@_W@@SAH$$QEAPEAUHWND__@@AEBQEB_W1AEBI@Z 0000000180081740 f i libucrtd:crtmbox.obj
 0001:00080790       ??$output_debug_string@AEBQEBD@?$__crt_char_traits@D@@SAXAEBQEBD@Z 0000000180081790 f i libucrtd:crtmbox.obj
 0001:000807b0       ??$output_debug_string@AEBQEB_W@?$__crt_char_traits@_W@@SAXAEBQEB_W@Z 00000001800817b0 f i libucrtd:crtmbox.obj
 0001:000807d0       __acrt_show_narrow_message_box 00000001800817d0 f   libucrtd:crtmbox.obj
 0001:00080800       __acrt_show_wide_message_box 0000000180081800 f   libucrtd:crtmbox.obj
 0001:00080830       ??$?B$$A6AXH@Z@__crt_fast_encoded_nullptr_t@@QEBAP6AXH@ZXZ 0000000180081830 f i libucrtd:signal.obj
 0001:00080900       ??$__crt_fast_decode_pointer@P6AXH@Z@@YAP6AXH@ZQ6AXH@Z@Z 0000000180081900 f i libucrtd:signal.obj
 0001:00080940       ??$__crt_fast_encode_pointer@P6AXH@Z@@YAP6AXH@ZQ6AXH@Z@Z 0000000180081940 f i libucrtd:signal.obj
 0001:00080bd0       ?initialize@?$dual_state_global@P6AXH@Z@__crt_state_management@@QEAAXQ6AXH@Z@Z 0000000180081bd0 f i libucrtd:signal.obj
 0001:00080d50       ?value@?$dual_state_global@P6AXH@Z@__crt_state_management@@QEAAAEAP6AXH@ZXZ 0000000180081d50 f i libucrtd:signal.obj
 0001:00080d70       __acrt_get_sigabrt_handler 0000000180081d70 f   libucrtd:signal.obj
 0001:00080da0       __acrt_initialize_signal_handlers 0000000180081da0 f   libucrtd:signal.obj
 0001:00080e00       __fpecode                  0000000180081e00 f   libucrtd:signal.obj
 0001:00080e20       __pxcptinfoptrs            0000000180081e20 f   libucrtd:signal.obj
 0001:00080e40       raise                      0000000180081e40 f   libucrtd:signal.obj
 0001:00081340       signal                     0000000180082340 f   libucrtd:signal.obj
 0001:00081610       __acrt_app_verifier_enabled 0000000180082610 f   libucrtd:peb_access.obj
 0001:00081650       __acrt_is_secure_process   0000000180082650 f   libucrtd:peb_access.obj
 0001:00081a40       __acrt_get_begin_thread_init_policy 0000000180082a40 f   libucrtd:win_policies.obj
 0001:00081a50       __acrt_get_developer_information_policy 0000000180082a50 f   libucrtd:win_policies.obj
 0001:00081a70       __acrt_get_process_end_policy 0000000180082a70 f   libucrtd:win_policies.obj
 0001:00081a80       __acrt_get_windowing_model_policy 0000000180082a80 f   libucrtd:win_policies.obj
 0001:00081b00       ??$__acrt_convert_wcs_mbs_cp@D_WV<lambda_7c9dea7b4ca7285d2cdb541a38da6275>@@U__crt_win32_buffer_internal_dynamic_resizing@@@@YAHQEBDAEAV?$__crt_win32_buffer@_WU__crt_win32_buffer_internal_dynamic_resizing@@@@AEBV<lambda_7c9dea7b4ca7285d2cdb541a38da6275>@@I@Z 0000000180082b00 f i libucrtd:argv_wildcards.obj
 0001:00081cb0       ??$__acrt_convert_wcs_mbs_cp@_WDV<lambda_d8593a27d1aa8c02be35c86a17d324c4>@@U__crt_win32_buffer_internal_dynamic_resizing@@@@YAHQEB_WAEAV?$__crt_win32_buffer@DU__crt_win32_buffer_internal_dynamic_resizing@@@@AEBV<lambda_d8593a27d1aa8c02be35c86a17d324c4>@@I@Z 0000000180082cb0 f i libucrtd:argv_wildcards.obj
 0001:00081e60       ??$__acrt_mbs_to_wcs_cp@U__crt_win32_buffer_internal_dynamic_resizing@@@@YAHQEBDAEAV?$__crt_win32_buffer@_WU__crt_win32_buffer_internal_dynamic_resizing@@@@I@Z 0000000180082e60 f i libucrtd:argv_wildcards.obj
 0001:00081eb0       ??$__acrt_wcs_to_mbs_cp@U__crt_win32_buffer_internal_dynamic_resizing@@@@YAHQEB_WAEAV?$__crt_win32_buffer@DU__crt_win32_buffer_internal_dynamic_resizing@@@@I@Z 0000000180082eb0 f i libucrtd:argv_wildcards.obj
 0001:00083350       ??$tcsncpy_s@AEAPEAD_KAEAPEADAEB_K@?$__crt_char_traits@D@@SAHAEAPEAD$$QEA_K0AEB_K@Z 0000000180084350 f i libucrtd:argv_wildcards.obj
 0001:000833a0       ??$tcsncpy_s@AEAPEA_W_KAEAPEA_WAEB_K@?$__crt_char_traits@_W@@SAHAEAPEA_W$$QEA_K0AEB_K@Z 00000001800843a0 f i libucrtd:argv_wildcards.obj
 0001:000833f0       ??$tcsncpy_s@PEADAEB_KAEBQEBDAEB_K@?$__crt_char_traits@D@@SAH$$QEAPEADAEB_KAEBQEBD1@Z 00000001800843f0 f i libucrtd:argv_wildcards.obj
 0001:00083440       ??$tcsncpy_s@PEAD_KAEBQEBDAEB_K@?$__crt_char_traits@D@@SAH$$QEAPEAD$$QEA_KAEBQEBDAEB_K@Z 0000000180084440 f i libucrtd:argv_wildcards.obj
 0001:00083490       ??$tcsncpy_s@PEA_WAEB_KAEBQEB_WAEB_K@?$__crt_char_traits@_W@@SAH$$QEAPEA_WAEB_KAEBQEB_W1@Z 0000000180084490 f i libucrtd:argv_wildcards.obj
 0001:000834e0       ??$tcsncpy_s@PEA_W_KAEBQEB_WAEB_K@?$__crt_char_traits@_W@@SAH$$QEAPEA_W$$QEA_KAEBQEB_WAEB_K@Z 00000001800844e0 f i libucrtd:argv_wildcards.obj
 0001:00083530       ??$tcspbrk@AEAPEADAEAY02$$CBD@?$__crt_char_traits@D@@SAPEADAEAPEADAEAY02$$CBD@Z 0000000180084530 f i libucrtd:argv_wildcards.obj
 0001:00083560       ??$tcspbrk@AEAPEA_WAEAY02$$CB_W@?$__crt_char_traits@_W@@SAPEA_WAEAPEA_WAEAY02$$CB_W@Z 0000000180084560 f i libucrtd:argv_wildcards.obj
 0001:00083590       ??0?$__crt_unique_handle_t@U__crt_findfile_traits@@@@QEAA@QEAX@Z 0000000180084590 f i libucrtd:argv_wildcards.obj
 0001:000835b0       ??0?$__crt_win32_buffer@DU__crt_win32_buffer_internal_dynamic_resizing@@@@QEAA@XZ 00000001800845b0 f i libucrtd:argv_wildcards.obj
 0001:00083610       ??0?$__crt_win32_buffer@_WU__crt_win32_buffer_internal_dynamic_resizing@@@@QEAA@XZ 0000000180084610 f i libucrtd:argv_wildcards.obj
 0001:000836f0       ??1?$__crt_unique_handle_t@U__crt_findfile_traits@@@@QEAA@XZ 00000001800846f0 f i libucrtd:argv_wildcards.obj
 0001:00083710       ??1?$__crt_win32_buffer@DU__crt_win32_buffer_internal_dynamic_resizing@@@@QEAA@XZ 0000000180084710 f i libucrtd:argv_wildcards.obj
 0001:00083740       ??1?$__crt_win32_buffer@_WU__crt_win32_buffer_internal_dynamic_resizing@@@@QEAA@XZ 0000000180084740 f i libucrtd:argv_wildcards.obj
 0001:00083870       ??R<lambda_7c9dea7b4ca7285d2cdb541a38da6275>@@QEBA@IQEBDQEA_W_K@Z 0000000180084870 f i libucrtd:argv_wildcards.obj
 0001:000839e0       ??R<lambda_d8593a27d1aa8c02be35c86a17d324c4>@@QEBA@IQEB_WQEAD_K@Z 00000001800849e0 f i libucrtd:argv_wildcards.obj
 0001:00083a40       ?_deallocate@?$__crt_win32_buffer@DU__crt_win32_buffer_internal_dynamic_resizing@@@@AEAAXXZ 0000000180084a40 f i libucrtd:argv_wildcards.obj
 0001:00083a90       ?_deallocate@?$__crt_win32_buffer@_WU__crt_win32_buffer_internal_dynamic_resizing@@@@AEAAXXZ 0000000180084a90 f i libucrtd:argv_wildcards.obj
 0001:00083ae0       ?allocate@?$__crt_win32_buffer@DU__crt_win32_buffer_internal_dynamic_resizing@@@@QEAAH_K@Z 0000000180084ae0 f i libucrtd:argv_wildcards.obj
 0001:00083b60       ?allocate@?$__crt_win32_buffer@_WU__crt_win32_buffer_internal_dynamic_resizing@@@@QEAAH_K@Z 0000000180084b60 f i libucrtd:argv_wildcards.obj
 0001:00083bf0       ?allocate@__crt_win32_buffer_internal_dynamic_resizing@@SAHQEAPEAX_KAEBV__crt_win32_buffer_empty_debug_info@@@Z 0000000180084bf0 f i libucrtd:argv_wildcards.obj
 0001:00083d50       ?capacity@?$__crt_win32_buffer@DU__crt_win32_buffer_internal_dynamic_resizing@@@@QEBA_KXZ 0000000180084d50 f i libucrtd:argv_wildcards.obj
 0001:00083d60       ?capacity@?$__crt_win32_buffer@_WU__crt_win32_buffer_internal_dynamic_resizing@@@@QEBA_KXZ 0000000180084d60 f i libucrtd:argv_wildcards.obj
 0001:00083d70       ?close@?$__crt_unique_handle_t@U__crt_findfile_traits@@@@QEAAXXZ 0000000180084d70 f i libucrtd:argv_wildcards.obj
 0001:00083db0       ?close@__crt_findfile_traits@@SA_NPEAX@Z 0000000180084db0 f i libucrtd:argv_wildcards.obj
 0001:00083df0       ?data@?$__crt_win32_buffer@DU__crt_win32_buffer_internal_dynamic_resizing@@@@QEAAPEADXZ 0000000180084df0 f i libucrtd:argv_wildcards.obj
 0001:00083e00       ?data@?$__crt_win32_buffer@_WU__crt_win32_buffer_internal_dynamic_resizing@@@@QEAAPEA_WXZ 0000000180084e00 f i libucrtd:argv_wildcards.obj
 0001:00083e10       ?deallocate@__crt_win32_buffer_internal_dynamic_resizing@@SAXQEAXAEBV__crt_win32_buffer_empty_debug_info@@@Z 0000000180084e10 f i libucrtd:argv_wildcards.obj
 0001:00083e40       ?debug_info@?$__crt_win32_buffer@DU__crt_win32_buffer_internal_dynamic_resizing@@@@QEBAAEBV__crt_win32_buffer_empty_debug_info@@XZ 0000000180084e40 f i libucrtd:argv_wildcards.obj
 0001:00083e50       ?debug_info@?$__crt_win32_buffer@_WU__crt_win32_buffer_internal_dynamic_resizing@@@@QEBAAEBV__crt_win32_buffer_empty_debug_info@@XZ 0000000180084e50 f i libucrtd:argv_wildcards.obj
 0001:00084240       ?get@?$__crt_unique_handle_t@U__crt_findfile_traits@@@@QEBAPEAXXZ 0000000180085240 f i libucrtd:argv_wildcards.obj
 0001:000842b0       ?get_invalid_value@__crt_findfile_traits@@SAPEAXXZ 00000001800852b0 f i libucrtd:argv_wildcards.obj
 0001:00084370       ?set_to_nullptr@?$__crt_win32_buffer@DU__crt_win32_buffer_internal_dynamic_resizing@@@@QEAAXXZ 0000000180085370 f i libucrtd:argv_wildcards.obj
 0001:000843b0       ?set_to_nullptr@?$__crt_win32_buffer@_WU__crt_win32_buffer_internal_dynamic_resizing@@@@QEAAXXZ 00000001800853b0 f i libucrtd:argv_wildcards.obj
 0001:000843f0       ?size@?$__crt_win32_buffer@DU__crt_win32_buffer_internal_dynamic_resizing@@@@QEAAX_K@Z 00000001800853f0 f i libucrtd:argv_wildcards.obj
 0001:00084410       ?size@?$__crt_win32_buffer@_WU__crt_win32_buffer_internal_dynamic_resizing@@@@QEAAX_K@Z 0000000180085410 f i libucrtd:argv_wildcards.obj
 0001:00084470       ?strpbrk@@YAPEADQEADQEBD@Z 0000000180085470 f i libucrtd:argv_wildcards.obj
 0001:000844a0       ?wcspbrk@@YAPEA_WPEA_WPEB_W@Z 00000001800854a0 f i libucrtd:argv_wildcards.obj
 0001:000844d0       __acrt_expand_narrow_argv_wildcards 00000001800854d0 f   libucrtd:argv_wildcards.obj
 0001:00084500       __acrt_expand_wide_argv_wildcards 0000000180085500 f   libucrtd:argv_wildcards.obj
 0001:000845d0       ??$initialize_from_array@$$BY10BAA@E@?$dual_state_global@PEAE@__crt_state_management@@QEAAXAEAY10BAA@E@Z 00000001800855d0 f i libucrtd:mbctype.obj
 0001:00084640       ??$initialize_from_array@$$BY10BAB@E@?$dual_state_global@PEAE@__crt_state_management@@QEAAXAEAY10BAB@E@Z 0000000180085640 f i libucrtd:mbctype.obj
 0001:00084930       ?dangerous_get_state_array@?$dual_state_global@PEAE@__crt_state_management@@QEAAPEAPEAEXZ 0000000180085930 f i libucrtd:mbctype.obj
 0001:00084940       ?dangerous_get_state_array@?$dual_state_global@PEAU__crt_multibyte_data@@@__crt_state_management@@QEAAPEAPEAU__crt_multibyte_data@@XZ 0000000180085940 f i libucrtd:mbctype.obj
 0001:00084a30       ?initialize@?$dual_state_global@PEAU__crt_multibyte_data@@@__crt_state_management@@QEAAXQEAU__crt_multibyte_data@@@Z 0000000180085a30 f i libucrtd:mbctype.obj
 0001:00085340       ?value@?$dual_state_global@PEAE@__crt_state_management@@QEAAAEAPEAEXZ 0000000180086340 f i libucrtd:mbctype.obj
 0001:00085360       __acrt_initialize_multibyte 0000000180086360 f   libucrtd:mbctype.obj
 0001:00085430       __acrt_update_thread_multibyte_data 0000000180086430 f   libucrtd:mbctype.obj
 0001:00085470       __p__mbcasemap             0000000180086470 f   libucrtd:mbctype.obj
 0001:00085490       __p__mbctype               0000000180086490 f   libucrtd:mbctype.obj
 0001:000854b0       _getmbcp                   00000001800864b0 f   libucrtd:mbctype.obj
 0001:00085530       _setmbcp                   0000000180086530 f   libucrtd:mbctype.obj
 0001:00085570       _setmbcp_nolock            0000000180086570 f   libucrtd:mbctype.obj
 0001:00085ca0       _ismbbalnum                0000000180086ca0 f   libucrtd:ismbbyte.obj
 0001:00085cd0       _ismbbalnum_l              0000000180086cd0 f   libucrtd:ismbbyte.obj
 0001:00085d00       _ismbbalpha                0000000180086d00 f   libucrtd:ismbbyte.obj
 0001:00085d30       _ismbbalpha_l              0000000180086d30 f   libucrtd:ismbbyte.obj
 0001:00085d60       _ismbbblank                0000000180086d60 f   libucrtd:ismbbyte.obj
 0001:00085da0       _ismbbblank_l              0000000180086da0 f   libucrtd:ismbbyte.obj
 0001:00085df0       _ismbbgraph                0000000180086df0 f   libucrtd:ismbbyte.obj
 0001:00085e20       _ismbbgraph_l              0000000180086e20 f   libucrtd:ismbbyte.obj
 0001:00085e50       _ismbbkalnum               0000000180086e50 f   libucrtd:ismbbyte.obj
 0001:00085e80       _ismbbkalnum_l             0000000180086e80 f   libucrtd:ismbbyte.obj
 0001:00085eb0       _ismbbkana                 0000000180086eb0 f   libucrtd:ismbbyte.obj
 0001:00085ed0       _ismbbkana_l               0000000180086ed0 f   libucrtd:ismbbyte.obj
 0001:00085f60       _ismbbkprint               0000000180086f60 f   libucrtd:ismbbyte.obj
 0001:00085f90       _ismbbkprint_l             0000000180086f90 f   libucrtd:ismbbyte.obj
 0001:00085fc0       _ismbbkpunct               0000000180086fc0 f   libucrtd:ismbbyte.obj
 0001:00085ff0       _ismbbkpunct_l             0000000180086ff0 f   libucrtd:ismbbyte.obj
 0001:00086020       _ismbblead                 0000000180087020 f   libucrtd:ismbbyte.obj
 0001:00086050       _ismbblead_l               0000000180087050 f   libucrtd:ismbbyte.obj
 0001:00086080       _ismbbprint                0000000180087080 f   libucrtd:ismbbyte.obj
 0001:000860b0       _ismbbprint_l              00000001800870b0 f   libucrtd:ismbbyte.obj
 0001:000860e0       _ismbbpunct                00000001800870e0 f   libucrtd:ismbbyte.obj
 0001:00086110       _ismbbpunct_l              0000000180087110 f   libucrtd:ismbbyte.obj
 0001:00086140       _ismbbtrail                0000000180087140 f   libucrtd:ismbbyte.obj
 0001:00086170       _ismbbtrail_l              0000000180087170 f   libucrtd:ismbbyte.obj
 0001:000861a0       __acrt_initialize_command_line 00000001800871a0 f   libucrtd:argv_data.obj
 0001:000861d0       __acrt_uninitialize_command_line 00000001800871d0 f   libucrtd:argv_data.obj
 0001:000861e0       __p___argc                 00000001800871e0 f   libucrtd:argv_data.obj
 0001:000861f0       __p___argv                 00000001800871f0 f   libucrtd:argv_data.obj
 0001:00086200       __p___wargv                0000000180087200 f   libucrtd:argv_data.obj
 0001:00086210       __p__acmdln                0000000180087210 f   libucrtd:argv_data.obj
 0001:00086220       __p__pgmptr                0000000180087220 f   libucrtd:argv_data.obj
 0001:00086230       __p__wcmdln                0000000180087230 f   libucrtd:argv_data.obj
 0001:00086240       __p__wpgmptr               0000000180087240 f   libucrtd:argv_data.obj
 0001:00086250       _get_pgmptr                0000000180087250 f   libucrtd:argv_data.obj
 0001:000863c0       _get_wpgmptr               00000001800873c0 f   libucrtd:argv_data.obj
 0001:00086640       __acrt_MultiByteToWideChar 0000000180087640 f   libucrtd:multibytetowidechar.obj
 0001:000867b0       __acrt_WideCharToMultiByte 00000001800877b0 f   libucrtd:widechartomultibyte.obj
 0001:00086a50       __dcrt_get_narrow_environment_from_os 0000000180087a50 f   libucrtd:get_environment_from_os.obj
 0001:00086c80       __dcrt_get_wide_environment_from_os 0000000180087c80 f   libucrtd:get_environment_from_os.obj
 0001:000884c0       ??$get_or_create_environment_nolock@$$V@?$__crt_char_traits@D@@SAPEAPEADXZ 00000001800894c0 f i libucrtd:setenv.obj
 0001:000884d0       ??$get_or_create_environment_nolock@$$V@?$__crt_char_traits@_W@@SAPEAPEA_WXZ 00000001800894d0 f i libucrtd:setenv.obj
 0001:000884e0       ??$set_environment_variable@AEBQEADQEAD@?$__crt_char_traits@D@@SAHAEBQEAD$$QEBQEAD@Z 00000001800894e0 f i libucrtd:setenv.obj
 0001:00088510       ??$set_environment_variable@AEBQEA_WQEA_W@?$__crt_char_traits@_W@@SAHAEBQEA_W$$QEBQEA_W@Z 0000000180089510 f i libucrtd:setenv.obj
 0001:00088540       ??$tcschr@AEBQEADD@?$__crt_char_traits@D@@SAPEADAEBQEAD$$QEAD@Z 0000000180089540 f i libucrtd:setenv.obj
 0001:00088580       ??$tcschr@AEBQEA_WD@?$__crt_char_traits@_W@@SAPEA_WAEBQEA_W$$QEAD@Z 0000000180089580 f i libucrtd:setenv.obj
 0001:000885c0       ??$tcscpy_s@AEAPEADAEB_KAEAPEAD@?$__crt_char_traits@D@@SAHAEAPEADAEB_K0@Z 00000001800895c0 f i libucrtd:setenv.obj
 0001:00088600       ??$tcscpy_s@AEAPEA_WAEB_KAEAPEA_W@?$__crt_char_traits@_W@@SAHAEAPEA_WAEB_K0@Z 0000000180089600 f i libucrtd:setenv.obj
 0001:00088640       ??$tcscpy_s@AEBQEADAEB_KAEBQEAD@?$__crt_char_traits@D@@SAHAEBQEADAEB_K0@Z 0000000180089640 f i libucrtd:setenv.obj
 0001:00088680       ??$tcscpy_s@AEBQEA_WAEB_KAEBQEA_W@?$__crt_char_traits@_W@@SAHAEBQEA_WAEB_K0@Z 0000000180089680 f i libucrtd:setenv.obj
 0001:000886c0       ??$tcslen@AEBQEAD@?$__crt_char_traits@D@@SA_KAEBQEAD@Z 00000001800896c0 f i libucrtd:setenv.obj
 0001:000886e0       ??$tcslen@AEBQEA_W@?$__crt_char_traits@_W@@SA_KAEBQEA_W@Z 00000001800896e0 f i libucrtd:setenv.obj
 0001:00088700       ??$tcsnicoll@AEBQEBDAEAPEADAEB_K@?$__crt_char_traits@D@@SAHAEBQEBDAEAPEADAEB_K@Z 0000000180089700 f i libucrtd:setenv.obj
 0001:00088740       ??$tcsnicoll@AEBQEB_WAEAPEA_WAEB_K@?$__crt_char_traits@_W@@SAHAEBQEB_WAEAPEA_WAEB_K@Z 0000000180089740 f i libucrtd:setenv.obj
 0001:00088780       ??$tcsnlen@PEADH@?$__crt_char_traits@D@@SA_K$$QEAPEAD$$QEAH@Z 0000000180089780 f i libucrtd:setenv.obj
 0001:000887b0       ??$tcsnlen@PEA_WH@?$__crt_char_traits@_W@@SA_K$$QEAPEA_W$$QEAH@Z 00000001800897b0 f i libucrtd:setenv.obj
 0001:00088880       ?strchr@@YAPEADQEADH@Z     0000000180089880 f i libucrtd:setenv.obj
 0001:000888a0       ?wcschr@@YAPEA_WPEA_W_W@Z  00000001800898a0 f i libucrtd:setenv.obj
 0001:000888d0       __dcrt_set_variable_in_narrow_environment_nolock 00000001800898d0 f   libucrtd:setenv.obj
 0001:000888f0       __dcrt_set_variable_in_wide_environment_nolock 00000001800898f0 f   libucrtd:setenv.obj
 0001:00088af0       ?ReadPointerNoFence@@YAPEAXPEDSEAX@Z 0000000180089af0 f i libucrtd:winapi_thunks.obj
 0001:000896c0       GetCurrentThreadEffectiveToken 000000018008a6c0 f i libucrtd:winapi_thunks.obj
 0001:000896d0       __acrt_AppPolicyGetProcessTerminationMethodInternal 000000018008a6d0 f   libucrtd:winapi_thunks.obj
 0001:00089730       __acrt_AppPolicyGetShowDeveloperDiagnosticInternal 000000018008a730 f   libucrtd:winapi_thunks.obj
 0001:00089790       __acrt_AppPolicyGetThreadInitializationTypeInternal 000000018008a790 f   libucrtd:winapi_thunks.obj
 0001:000897f0       __acrt_AppPolicyGetWindowingModelInternal 000000018008a7f0 f   libucrtd:winapi_thunks.obj
 0001:00089850       __acrt_AreFileApisANSI     000000018008a850 f   libucrtd:winapi_thunks.obj
 0001:00089890       __acrt_CompareStringEx     000000018008a890 f   libucrtd:winapi_thunks.obj
 0001:000899a0       __acrt_EnumSystemLocalesEx 000000018008a9a0 f   libucrtd:winapi_thunks.obj
 0001:00089a20       __acrt_FlsAlloc            000000018008aa20 f   libucrtd:winapi_thunks.obj
 0001:00089a40       __acrt_FlsFree             000000018008aa40 f   libucrtd:winapi_thunks.obj
 0001:00089a60       __acrt_FlsGetValue         000000018008aa60 f   libucrtd:winapi_thunks.obj
 0001:00089a80       __acrt_FlsGetValue2        000000018008aa80 f   libucrtd:winapi_thunks.obj
 0001:00089ab0       __acrt_FlsSetValue         000000018008aab0 f   libucrtd:winapi_thunks.obj
 0001:00089ae0       __acrt_GetDateFormatEx     000000018008aae0 f   libucrtd:winapi_thunks.obj
 0001:00089bb0       __acrt_GetEnabledXStateFeatures 000000018008abb0 f   libucrtd:winapi_thunks.obj
 0001:00089bf0       __acrt_GetFileInformationByName 000000018008abf0 f   libucrtd:winapi_thunks.obj
 0001:00089c60       __acrt_GetLocaleInfoEx     000000018008ac60 f   libucrtd:winapi_thunks.obj
 0001:00089cf0       __acrt_GetSystemTimePreciseAsFileTime 000000018008acf0 f   libucrtd:winapi_thunks.obj
 0001:00089d40       __acrt_GetTempPath2W       000000018008ad40 f   libucrtd:winapi_thunks.obj
 0001:00089da0       __acrt_GetTimeFormatEx     000000018008ada0 f   libucrtd:winapi_thunks.obj
 0001:00089e60       __acrt_GetUserDefaultLocaleName 000000018008ae60 f   libucrtd:winapi_thunks.obj
 0001:00089ed0       __acrt_GetXStateFeaturesMask 000000018008aed0 f   libucrtd:winapi_thunks.obj
 0001:00089f30       __acrt_InitializeCriticalSectionEx 000000018008af30 f   libucrtd:winapi_thunks.obj
 0001:00089f60       __acrt_IsThreadAFiber      000000018008af60 f   libucrtd:winapi_thunks.obj
 0001:00089f70       __acrt_IsValidLocaleName   000000018008af70 f   libucrtd:winapi_thunks.obj
 0001:00089fd0       __acrt_LCIDToLocaleName    000000018008afd0 f   libucrtd:winapi_thunks.obj
 0001:0008a050       __acrt_LCMapStringEx       000000018008b050 f   libucrtd:winapi_thunks.obj
 0001:0008a150       __acrt_LocaleNameToLCID    000000018008b150 f   libucrtd:winapi_thunks.obj
 0001:0008a1b0       __acrt_LocateXStateFeature 000000018008b1b0 f   libucrtd:winapi_thunks.obj
 0001:0008a210       __acrt_MessageBoxA         000000018008b210 f   libucrtd:winapi_thunks.obj
 0001:0008a280       __acrt_MessageBoxW         000000018008b280 f   libucrtd:winapi_thunks.obj
 0001:0008a2f0       __acrt_RoInitialize        000000018008b2f0 f   libucrtd:winapi_thunks.obj
 0001:0008a340       __acrt_RoUninitialize      000000018008b340 f   libucrtd:winapi_thunks.obj
 0001:0008a370       __acrt_RtlGenRandom        000000018008b370 f   libucrtd:winapi_thunks.obj
 0001:0008a3d0       __acrt_SetThreadStackGuarantee 000000018008b3d0 f   libucrtd:winapi_thunks.obj
 0001:0008a420       __acrt_can_show_message_box 000000018008b420 f   libucrtd:winapi_thunks.obj
 0001:0008a460       __acrt_can_use_vista_locale_apis 000000018008b460 f   libucrtd:winapi_thunks.obj
 0001:0008a490       __acrt_can_use_xstate_apis 000000018008b490 f   libucrtd:winapi_thunks.obj
 0001:0008a4c0       __acrt_eagerly_load_locale_apis 000000018008b4c0 f   libucrtd:winapi_thunks.obj
 0001:0008a500       __acrt_get_parent_window   000000018008b500 f   libucrtd:winapi_thunks.obj
 0001:0008a580       __acrt_initialize_winapi_thunks 000000018008b580 f   libucrtd:winapi_thunks.obj
 0001:0008a5d0       __acrt_is_interactive      000000018008b5d0 f   libucrtd:winapi_thunks.obj
 0001:0008a6c0       __acrt_tls2_supported      000000018008b6c0 f   libucrtd:winapi_thunks.obj
 0001:0008a6f0       __acrt_uninitialize_winapi_thunks 000000018008b6f0 f   libucrtd:winapi_thunks.obj
 0001:0008ab40       __acrt_initialize_lowio    000000018008bb40 f   libucrtd:ioinit.obj
 0001:0008ab90       __acrt_uninitialize_lowio  000000018008bb90 f   libucrtd:ioinit.obj
 0001:0008ac10       __acrt_execute_initializers 000000018008bc10 f   libucrtd:shared_initialization.obj
 0001:0008ad00       __acrt_execute_uninitializers 000000018008bd00 f   libucrtd:shared_initialization.obj
 0001:0008ad80       ??$__crt_fast_decode_pointer@P6AHPEAU_exception@@@Z@@YAP6AHPEAU_exception@@@ZQ6AH0@Z@Z 000000018008bd80 f i libucrtd:matherr.obj
 0001:0008ada0       ??$__crt_fast_encode_pointer@P6AHPEAU_exception@@@Z@@YAP6AHPEAU_exception@@@ZQ6AH0@Z@Z 000000018008bda0 f i libucrtd:matherr.obj
 0001:0008adc0       ?initialize@?$dual_state_global@P6AHPEAU_exception@@@Z@__crt_state_management@@QEAAXQ6AHPEAU_exception@@@Z@Z 000000018008bdc0 f i libucrtd:matherr.obj
 0001:0008add0       ?value@?$dual_state_global@P6AHPEAU_exception@@@Z@__crt_state_management@@QEAAAEAP6AHPEAU_exception@@@ZXZ 000000018008bdd0 f i libucrtd:matherr.obj
 0001:0008ade0       __acrt_has_user_matherr    000000018008bde0 f   libucrtd:matherr.obj
 0001:0008ae00       __acrt_initialize_user_matherr 000000018008be00 f   libucrtd:matherr.obj
 0001:0008ae10       __acrt_invoke_user_matherr 000000018008be10 f   libucrtd:matherr.obj
 0001:0008ae40       __setusermatherr           000000018008be40 f   libucrtd:matherr.obj
 0001:0008ae70       ?has_any_buffer@__crt_stdio_stream@@QEBA_NXZ 000000018008be70 f i libucrtd:_sftbuf.obj
 0001:0008ae90       ?has_any_of@__crt_stdio_stream@@QEBA_NJ@Z 000000018008be90 f i libucrtd:_sftbuf.obj
 0001:0008aed0       ?has_temporary_buffer@__crt_stdio_stream@@QEBA_NXZ 000000018008bed0 f i libucrtd:_sftbuf.obj
 0001:0008aef0       ?set_flags@__crt_stdio_stream@@QEBA_NJ@Z 000000018008bef0 f i libucrtd:_sftbuf.obj
 0001:0008af60       ?unset_flags@__crt_stdio_stream@@QEBA_NJ@Z 000000018008bf60 f i libucrtd:_sftbuf.obj
 0001:0008afc0       __acrt_should_use_temporary_buffer 000000018008bfc0 f   libucrtd:_sftbuf.obj
 0001:0008b010       __acrt_stdio_begin_temporary_buffering_nolock 000000018008c010 f   libucrtd:_sftbuf.obj
 0001:0008b270       __acrt_stdio_end_temporary_buffering_nolock 000000018008c270 f   libucrtd:_sftbuf.obj
 0001:0008b310       _CrtGetDebugFillThreshold  000000018008c310 f   libucrtd:debug_fill_threshold.obj
 0001:0008b320       _CrtSetDebugFillThreshold  000000018008c320 f   libucrtd:debug_fill_threshold.obj
 0001:0008b350       ?__acrt_fp_classify@@YA?AW4__acrt_fp_class@@AEBN@Z 000000018008c350 f i libucrtd:cvt.obj
 0001:0008b450       ?__acrt_fp_is_negative@@YA_NAEBN@Z 000000018008c450 f i libucrtd:cvt.obj
 0001:0008cd90       ?strrchr@@YAPEADQEADH@Z    000000018008dd90 f i libucrtd:cvt.obj
 0001:0008cdb0       __acrt_fp_format           000000018008ddb0 f   libucrtd:cvt.obj
 0001:0008d480       ?value_or@?$cached@H@__crt_cached_ptd_host@@QEBAHH@Z 000000018008e480 f i libucrtd:wctomb.obj
 0001:0008d4b0       _wctomb_internal           000000018008e4b0 f   libucrtd:wctomb.obj
 0001:0008da10       _wctomb_l                  000000018008ea10 f   libucrtd:wctomb.obj
 0001:0008dac0       _wctomb_s_l                000000018008eac0 f   libucrtd:wctomb.obj
 0001:0008db40       wctomb                     000000018008eb40 f   libucrtd:wctomb.obj
 0001:0008dbe0       wctomb_s                   000000018008ebe0 f   libucrtd:wctomb.obj
 0001:0008dc60       _mbtowc_internal           000000018008ec60 f   libucrtd:mbtowc.obj
 0001:0008dff0       _mbtowc_l                  000000018008eff0 f   libucrtd:mbtowc.obj
 0001:0008e060       mbtowc                     000000018008f060 f   libucrtd:mbtowc.obj
 0001:0008e0c0       ?__mblen_utf8@__crt_mbstring@@YAHPEBD@Z 000000018008f0c0 f   libucrtd:mbrtoc32.obj
 0001:0008e160       ?__mbrtoc32_utf8@__crt_mbstring@@YA_KPEA_UPEBD_KPEAU_Mbstatet@@AEAV__crt_cached_ptd_host@@@Z 000000018008f160 f   libucrtd:mbrtoc32.obj
 0001:0008e530       mbrtoc32                   000000018008f530 f   libucrtd:mbrtoc32.obj
 0001:0008e5b0       ?__c16rtomb_utf8@__crt_mbstring@@YA_KPEAD_SPEAU_Mbstatet@@AEAV__crt_cached_ptd_host@@@Z 000000018008f5b0 f   libucrtd:c16rtomb.obj
 0001:0008e7f0       c16rtomb                   000000018008f7f0 f   libucrtd:c16rtomb.obj
 0001:0008e8c0       ?__mbrtowc_utf8@__crt_mbstring@@YA_KPEA_WPEBD_KPEAU_Mbstatet@@AEAV__crt_cached_ptd_host@@@Z 000000018008f8c0 f   libucrtd:mbrtowc.obj
 0001:0008e950       ?__mbsrtowcs_utf8@__crt_mbstring@@YA_KPEA_WPEAPEBD_KPEAU_Mbstatet@@AEAV__crt_cached_ptd_host@@@Z 000000018008f950 f   libucrtd:mbrtowc.obj
 0001:0008fb50       btowc                      0000000180090b50 f   libucrtd:mbrtowc.obj
 0001:0008fc20       mbrlen                     0000000180090c20 f   libucrtd:mbrtowc.obj
 0001:0008fcd0       mbrtowc                    0000000180090cd0 f   libucrtd:mbrtowc.obj
 0001:0008fde0       mbsrtowcs                  0000000180090de0 f   libucrtd:mbrtowc.obj
 0001:0008fe60       mbsrtowcs_s                0000000180090e60 f   libucrtd:mbrtowc.obj
 0001:0008fef0       ?lowio_handle@__crt_stdio_stream@@QEBAHXZ 0000000180090ef0 f i libucrtd:fileno.obj
 0001:0008ff20       _fileno                    0000000180090f20 f   libucrtd:fileno.obj
 0001:00090000       ??$?RPEAU__crt_stdio_stream_data@@@__crt_internal_free_policy@@QEBAXQEBQEAU__crt_stdio_stream_data@@@Z 0000000180091000 f i libucrtd:_file.obj
 0001:00090030       ??0?$__crt_unique_heap_ptr@PEAU__crt_stdio_stream_data@@U__crt_internal_free_policy@@@@QEAA@QEAPEAU__crt_stdio_stream_data@@@Z 0000000180091030 f i libucrtd:_file.obj
 0001:00090050       ??1?$__crt_unique_heap_ptr@PEAU__crt_stdio_stream_data@@U__crt_internal_free_policy@@@@QEAA@XZ 0000000180091050 f i libucrtd:_file.obj
 0001:00090070       ?detach@?$__crt_unique_heap_ptr@PEAU__crt_stdio_stream_data@@U__crt_internal_free_policy@@@@QEAAPEAPEAU__crt_stdio_stream_data@@XZ 0000000180091070 f i libucrtd:_file.obj
 0001:000900a0       ?release@?$__crt_unique_heap_ptr@PEAU__crt_stdio_stream_data@@U__crt_internal_free_policy@@@@QEAAXXZ 00000001800910a0 f i libucrtd:_file.obj
 0001:000900d0       __acrt_initialize_stdio    00000001800910d0 f   libucrtd:_file.obj
 0001:000902c0       __acrt_iob_func            00000001800912c0 f   libucrtd:_file.obj
 0001:000902e0       __acrt_uninitialize_stdio  00000001800912e0 f   libucrtd:_file.obj
 0001:00090370       _get_stream_buffer_pointers 0000000180091370 f   libucrtd:_file.obj
 0001:000904a0       _lock_file                 00000001800914a0 f   libucrtd:_file.obj
 0001:000904e0       _unlock_file               00000001800914e0 f   libucrtd:_file.obj
 0001:00090520       _get_printf_count_output   0000000180091520 f   libucrtd:printf_count_output.obj
 0001:00090550       _set_printf_count_output   0000000180091550 f   libucrtd:printf_count_output.obj
 0001:00090790       _fputwc_nolock             0000000180091790 f   libucrtd:fputwc.obj
 0001:000907e0       _fputwc_nolock_internal    00000001800917e0 f   libucrtd:fputwc.obj
 0001:00090ab0       _fputwchar                 0000000180091ab0 f   libucrtd:fputwc.obj
 0001:00090ae0       _putwc_nolock              0000000180091ae0 f   libucrtd:fputwc.obj
 0001:00090b10       fputwc                     0000000180091b10 f   libucrtd:fputwc.obj
 0001:00090b60       putwc                      0000000180091b60 f   libucrtd:fputwc.obj
 0001:00090b90       putwchar                   0000000180091b90 f   libucrtd:fputwc.obj
 0001:00090eb0       _fputc_nolock              0000000180091eb0 f   libucrtd:fputc.obj
 0001:00090f00       _fputc_nolock_internal     0000000180091f00 f   libucrtd:fputc.obj
 0001:00090fc0       _fputchar                  0000000180091fc0 f   libucrtd:fputc.obj
 0001:00090ff0       _putc_nolock               0000000180091ff0 f   libucrtd:fputc.obj
 0001:00091010       fputc                      0000000180092010 f   libucrtd:fputc.obj
 0001:00091060       putc                       0000000180092060 f   libucrtd:fputc.obj
 0001:00091080       putchar                    0000000180092080 f   libucrtd:fputc.obj
 0001:000910a0       _mbsdec                    00000001800920a0 f   libucrtd:mbsdec.obj
 0001:000910d0       _mbsdec_l                  00000001800920d0 f   libucrtd:mbsdec.obj
 0001:00091a10       wcsncpy_s                  0000000180092a10 f   libucrtd:wcsncpy_s.obj
 0001:000920e0       strncpy_s                  00000001800930e0 f   libucrtd:strncpy_s.obj
 0001:000922f0       __acrt_report_runtime_error 00000001800932f0 f   libucrtd:report_runtime_error.obj
 0001:00092570       _query_app_type            0000000180093570 f   libucrtd:report_runtime_error.obj
 0001:00092580       _set_app_type              0000000180093580 f   libucrtd:report_runtime_error.obj
 0001:00092590       _iswctype_l                0000000180093590 f   libucrtd:iswctype.obj
 0001:000925c0       iswctype                   00000001800935c0 f   libucrtd:iswctype.obj
 0001:00092650       ??0?$__crt_scoped_stack_ptr@_W@@QEAA@U?$__crt_scoped_stack_ptr_tag@_W@@@Z 0000000180093650 f i libucrtd:getstringtypea.obj
 0001:00092670       ??0?$__crt_scoped_stack_ptr_tag@_W@@QEAA@QEA_W@Z 0000000180093670 f i libucrtd:getstringtypea.obj
 0001:00092690       ??1?$__crt_scoped_stack_ptr@_W@@QEAA@XZ 0000000180093690 f i libucrtd:getstringtypea.obj
 0001:000926b0       ?get@?$__crt_scoped_stack_ptr@_W@@QEBAPEA_WXZ 00000001800936b0 f i libucrtd:getstringtypea.obj
 0001:000926c0       _MallocaComputeSize        00000001800936c0 f i libucrtd:getstringtypea.obj
 0001:00092700       _MarkAllocaS               0000000180093700 f i libucrtd:getstringtypea.obj
 0001:00092730       __acrt_GetStringTypeA      0000000180093730 f   libucrtd:getstringtypea.obj
 0001:00092990       _freea_crt                 0000000180093990 f i libucrtd:getstringtypea.obj
 0001:00092a30       _malloc_base               0000000180093a30 f   libucrtd:malloc_base.obj
 0001:00092ad0       __acrt_add_locale_ref      0000000180093ad0 f   libucrtd:locale_refcounting.obj
 0001:00092c30       __acrt_free_locale         0000000180093c30 f   libucrtd:locale_refcounting.obj
 0001:00092fb0       __acrt_locale_add_lc_time_reference 0000000180093fb0 f   libucrtd:locale_refcounting.obj
 0001:00092ff0       __acrt_locale_free_lc_time_if_unreferenced 0000000180093ff0 f   libucrtd:locale_refcounting.obj
 0001:00093050       __acrt_locale_release_lc_time_reference 0000000180094050 f   libucrtd:locale_refcounting.obj
 0001:00093090       __acrt_release_locale_ref  0000000180094090 f   libucrtd:locale_refcounting.obj
 0001:00093200       __acrt_update_thread_locale_data 0000000180094200 f   libucrtd:locale_refcounting.obj
 0001:000932a0       _updatetlocinfoEx_nolock   00000001800942a0 f   libucrtd:locale_refcounting.obj
 0001:00093340       ??$?RG@__crt_internal_free_policy@@QEBAXQEBG@Z 0000000180094340 f i libucrtd:initctype.obj
 0001:00093370       ??$?RJ@__crt_internal_free_policy@@QEBAXQEBJ@Z 0000000180094370 f i libucrtd:initctype.obj
 0001:000933a0       ??0?$__crt_unique_heap_ptr@GU__crt_internal_free_policy@@@@QEAA@QEAG@Z 00000001800943a0 f i libucrtd:initctype.obj
 0001:000933c0       ??0?$__crt_unique_heap_ptr@JU__crt_internal_free_policy@@@@QEAA@QEAJ@Z 00000001800943c0 f i libucrtd:initctype.obj
 0001:000933e0       ??1?$__crt_unique_heap_ptr@GU__crt_internal_free_policy@@@@QEAA@XZ 00000001800943e0 f i libucrtd:initctype.obj
 0001:00093400       ??1?$__crt_unique_heap_ptr@JU__crt_internal_free_policy@@@@QEAA@XZ 0000000180094400 f i libucrtd:initctype.obj
 0001:00093420       ?detach@?$__crt_unique_heap_ptr@GU__crt_internal_free_policy@@@@QEAAPEAGXZ 0000000180094420 f i libucrtd:initctype.obj
 0001:00093450       ?detach@?$__crt_unique_heap_ptr@JU__crt_internal_free_policy@@@@QEAAPEAJXZ 0000000180094450 f i libucrtd:initctype.obj
 0001:00093480       ?release@?$__crt_unique_heap_ptr@GU__crt_internal_free_policy@@@@QEAAXXZ 0000000180094480 f i libucrtd:initctype.obj
 0001:000934b0       ?release@?$__crt_unique_heap_ptr@JU__crt_internal_free_policy@@@@QEAAXXZ 00000001800944b0 f i libucrtd:initctype.obj
 0001:000934e0       ___lc_codepage_func        00000001800944e0 f   libucrtd:initctype.obj
 0001:00093520       ___lc_collate_cp_func      0000000180094520 f   libucrtd:initctype.obj
 0001:00093560       ___lc_locale_name_func     0000000180094560 f   libucrtd:initctype.obj
 0001:000935a0       ___mb_cur_max_func         00000001800945a0 f   libucrtd:initctype.obj
 0001:000935e0       ___mb_cur_max_l_func       00000001800945e0 f   libucrtd:initctype.obj
 0001:00093620       __acrt_locale_initialize_ctype 0000000180094620 f   libucrtd:initctype.obj
 0001:00094110       ??$?RUlconv@@@__crt_internal_free_policy@@QEBAXQEBUlconv@@@Z 0000000180095110 f i libucrtd:initmon.obj
 0001:00094140       ??0?$__crt_unique_heap_ptr@Ulconv@@U__crt_internal_free_policy@@@@QEAA@QEAUlconv@@@Z 0000000180095140 f i libucrtd:initmon.obj
 0001:00094160       ??1?$__crt_unique_heap_ptr@Ulconv@@U__crt_internal_free_policy@@@@QEAA@XZ 0000000180095160 f i libucrtd:initmon.obj
 0001:00094180       ?detach@?$__crt_unique_heap_ptr@Ulconv@@U__crt_internal_free_policy@@@@QEAAPEAUlconv@@XZ 0000000180095180 f i libucrtd:initmon.obj
 0001:000941b0       ?release@?$__crt_unique_heap_ptr@Ulconv@@U__crt_internal_free_policy@@@@QEAAXXZ 00000001800951b0 f i libucrtd:initmon.obj
 0001:000941e0       __acrt_locale_free_monetary 00000001800951e0 f   libucrtd:initmon.obj
 0001:000943f0       __acrt_locale_initialize_monetary 00000001800953f0 f   libucrtd:initmon.obj
 0001:00094dd0       __acrt_locale_free_numeric 0000000180095dd0 f   libucrtd:initnum.obj
 0001:00094eb0       __acrt_locale_initialize_numeric 0000000180095eb0 f   libucrtd:initnum.obj
 0001:000954f0       ??$?RU__crt_lc_time_data@@@__crt_internal_free_policy@@QEBAXQEBU__crt_lc_time_data@@@Z 00000001800964f0 f i libucrtd:inittime.obj
 0001:000955e0       ??0?$__crt_unique_heap_ptr@U__crt_lc_time_data@@U__crt_internal_free_policy@@@@QEAA@QEAU__crt_lc_time_data@@@Z 00000001800965e0 f i libucrtd:inittime.obj
 0001:00095600       ??1?$__crt_unique_heap_ptr@U__crt_lc_time_data@@U__crt_internal_free_policy@@@@QEAA@XZ 0000000180096600 f i libucrtd:inittime.obj
 0001:00095620       ??B?$__crt_unique_heap_ptr@U__crt_lc_time_data@@U__crt_internal_free_policy@@@@QEBA_NXZ 0000000180096620 f i libucrtd:inittime.obj
 0001:00095640       ?detach@?$__crt_unique_heap_ptr@U__crt_lc_time_data@@U__crt_internal_free_policy@@@@QEAAPEAU__crt_lc_time_data@@XZ 0000000180096640 f i libucrtd:inittime.obj
 0001:000956d0       ?get@?$__crt_unique_heap_ptr@U__crt_lc_time_data@@U__crt_internal_free_policy@@@@QEBAPEAU__crt_lc_time_data@@XZ 00000001800966d0 f i libucrtd:inittime.obj
 0001:00095d40       ?is_valid@?$__crt_unique_heap_ptr@U__crt_lc_time_data@@U__crt_internal_free_policy@@@@QEBA_NXZ 0000000180096d40 f i libucrtd:inittime.obj
 0001:00095d70       ?release@?$__crt_unique_heap_ptr@U__crt_lc_time_data@@U__crt_internal_free_policy@@@@QEAAXXZ 0000000180096d70 f i libucrtd:inittime.obj
 0001:00095da0       __acrt_locale_free_time    0000000180096da0 f   libucrtd:inittime.obj
 0001:00095f10       __acrt_locale_initialize_time 0000000180096f10 f   libucrtd:inittime.obj
 0001:00095fb0       __pctype_func              0000000180096fb0 f   libucrtd:ctype.obj
 0001:00095ff0       __pwctype_func             0000000180096ff0 f   libucrtd:ctype.obj
 0001:00096690       wcscat_s                   0000000180097690 f   libucrtd:wcscat_s.obj
 0001:00096e60       wcsncat_s                  0000000180097e60 f   libucrtd:wcsncat_s.obj
 0001:00096ea0       wcscmp                     0000000180097ea0 f   libucrtd:wcscmpc.obj
 0001:00096f40       wcscspn                    0000000180097f40 f   libucrtd:wcscspn.obj
 0001:00096fd0       wcspbrk                    0000000180097fd0 f   libucrtd:wcspbrk.obj
 0001:00097d30       __acrt_get_qualified_locale 0000000180098d30 f   libucrtd:get_qualified_locale.obj
 0001:00098eb0       __acrt_get_qualified_locale_downlevel 0000000180099eb0 f   libucrtd:getqloc_downlevel.obj
 0001:00099250       localeconv                 000000018009a250 f   libucrtd:localeconv.obj
 0001:0009aad0       _i64toa                    000000018009bad0 f   libucrtd:xtoa.obj
 0001:0009ab40       _i64toa_s                  000000018009bb40 f   libucrtd:xtoa.obj
 0001:0009abb0       _i64tow                    000000018009bbb0 f   libucrtd:xtoa.obj
 0001:0009ac20       _i64tow_s                  000000018009bc20 f   libucrtd:xtoa.obj
 0001:0009ac90       _itoa                      000000018009bc90 f   libucrtd:xtoa.obj
 0001:0009ad00       _itoa_s                    000000018009bd00 f   libucrtd:xtoa.obj
 0001:0009ad60       _itow                      000000018009bd60 f   libucrtd:xtoa.obj
 0001:0009add0       _itow_s                    000000018009bdd0 f   libucrtd:xtoa.obj
 0001:0009ae30       _ltoa                      000000018009be30 f   libucrtd:xtoa.obj
 0001:0009aea0       _ltoa_s                    000000018009bea0 f   libucrtd:xtoa.obj
 0001:0009af00       _ltow                      000000018009bf00 f   libucrtd:xtoa.obj
 0001:0009af70       _ltow_s                    000000018009bf70 f   libucrtd:xtoa.obj
 0001:0009afd0       _ui64toa                   000000018009bfd0 f   libucrtd:xtoa.obj
 0001:0009b010       _ui64toa_s                 000000018009c010 f   libucrtd:xtoa.obj
 0001:0009b050       _ui64tow                   000000018009c050 f   libucrtd:xtoa.obj
 0001:0009b090       _ui64tow_s                 000000018009c090 f   libucrtd:xtoa.obj
 0001:0009b0d0       _ultoa                     000000018009c0d0 f   libucrtd:xtoa.obj
 0001:0009b110       _ultoa_s                   000000018009c110 f   libucrtd:xtoa.obj
 0001:0009b150       _ultow                     000000018009c150 f   libucrtd:xtoa.obj
 0001:0009b190       _ultow_s                   000000018009c190 f   libucrtd:xtoa.obj
 0001:0009bd10       _mbstowcs_l                000000018009cd10 f   libucrtd:mbstowcs.obj
 0001:0009bd80       _mbstowcs_s_l              000000018009cd80 f   libucrtd:mbstowcs.obj
 0001:0009be10       mbstowcs                   000000018009ce10 f   libucrtd:mbstowcs.obj
 0001:0009be70       mbstowcs_s                 000000018009ce70 f   libucrtd:mbstowcs.obj
 0001:0009cd00       _wcstombs_l                000000018009dd00 f   libucrtd:wcstombs.obj
 0001:0009cd70       _wcstombs_s_l              000000018009dd70 f   libucrtd:wcstombs.obj
 0001:0009ce00       wcstombs                   000000018009de00 f   libucrtd:wcstombs.obj
 0001:0009ce60       wcstombs_s                 000000018009de60 f   libucrtd:wcstombs.obj
 0001:0009cee0       __acrt_OutputDebugStringA  000000018009dee0 f   libucrtd:outputdebugstringa.obj
 0001:0009d110       qsort                      000000018009e110 f   libucrtd:qsort.obj
 0001:0009d930       strpbrk                    000000018009e930 f   libucrtd:strpbrk.obj
 0001:0009e260       ??B?$__crt_scoped_stack_ptr@_W@@QEBA_NXZ 000000018009f260 f i libucrtd:lcmapstringa.obj
 0001:0009e8a0       __acrt_LCMapStringA        000000018009f8a0 f   libucrtd:lcmapstringa.obj
 0001:0009e980       _wcsnicoll                 000000018009f980 f   libucrtd:wcsnicol.obj
 0001:0009ebd0       _wcsnicoll_l               000000018009fbd0 f   libucrtd:wcsnicol.obj
 0001:0009ef10       _strnicoll                 000000018009ff10 f   libucrtd:strnicol.obj
 0001:0009ef70       _strnicoll_l               000000018009ff70 f   libucrtd:strnicol.obj
 0001:0009f380       __acrt_SetEnvironmentVariableA 00000001800a0380 f   libucrtd:setenvironmentvariablea.obj
 0001:0009f5d0       __acrt_DownlevelLCIDToLocaleName 00000001800a05d0 f   libucrtd:lcidtoname_downlevel.obj
 0001:0009f6f0       __acrt_DownlevelLocaleNameToLCID 00000001800a06f0 f   libucrtd:lcidtoname_downlevel.obj
 0001:0009f750       ??$?RU__crt_lowio_handle_data@@@__crt_internal_free_policy@@QEBAXQEBU__crt_lowio_handle_data@@@Z 00000001800a0750 f i libucrtd:osfinfo.obj
 0001:0009f780       ??0?$__crt_unique_heap_ptr@U__crt_lowio_handle_data@@U__crt_internal_free_policy@@@@QEAA@QEAU__crt_lowio_handle_data@@@Z 00000001800a0780 f i libucrtd:osfinfo.obj
 0001:0009f7a0       ??1?$__crt_unique_heap_ptr@U__crt_lowio_handle_data@@U__crt_internal_free_policy@@@@QEAA@XZ 00000001800a07a0 f i libucrtd:osfinfo.obj
 0001:0009f7c0       ??B?$__crt_unique_heap_ptr@U__crt_lowio_handle_data@@U__crt_internal_free_policy@@@@QEBA_NXZ 00000001800a07c0 f i libucrtd:osfinfo.obj
 0001:0009f7e0       ?detach@?$__crt_unique_heap_ptr@U__crt_lowio_handle_data@@U__crt_internal_free_policy@@@@QEAAPEAU__crt_lowio_handle_data@@XZ 00000001800a07e0 f i libucrtd:osfinfo.obj
 0001:0009f810       ?get@?$__crt_unique_heap_ptr@U__crt_lowio_handle_data@@U__crt_internal_free_policy@@@@QEBAPEAU__crt_lowio_handle_data@@XZ 00000001800a0810 f i libucrtd:osfinfo.obj
 0001:0009f820       ?is_valid@?$__crt_unique_heap_ptr@U__crt_lowio_handle_data@@U__crt_internal_free_policy@@@@QEBA_NXZ 00000001800a0820 f i libucrtd:osfinfo.obj
 0001:0009f850       ?release@?$__crt_unique_heap_ptr@U__crt_lowio_handle_data@@U__crt_internal_free_policy@@@@QEAAXXZ 00000001800a0850 f i libucrtd:osfinfo.obj
 0001:0009f880       __acrt_lowio_create_handle_array 00000001800a0880 f   libucrtd:osfinfo.obj
 0001:0009fa40       __acrt_lowio_destroy_handle_array 00000001800a0a40 f   libucrtd:osfinfo.obj
 0001:0009fac0       __acrt_lowio_ensure_fh_exists 00000001800a0ac0 f   libucrtd:osfinfo.obj
 0001:0009fc20       __acrt_lowio_lock_fh       00000001800a0c20 f   libucrtd:osfinfo.obj
 0001:0009fc60       __acrt_lowio_set_os_handle 00000001800a0c60 f   libucrtd:osfinfo.obj
 0001:0009fd70       __acrt_lowio_unlock_fh     00000001800a0d70 f   libucrtd:osfinfo.obj
 0001:0009fdb0       _alloc_osfhnd              00000001800a0db0 f   libucrtd:osfinfo.obj
 0001:0009ffc0       _free_osfhnd               00000001800a0fc0 f   libucrtd:osfinfo.obj
 0001:000a00f0       _get_osfhandle             00000001800a10f0 f   libucrtd:osfinfo.obj
 0001:000a02f0       _open_osfhandle            00000001800a12f0 f   libucrtd:osfinfo.obj
 0001:000a0510       _isatty                    00000001800a1510 f   libucrtd:isatty.obj
 0001:000a09a0       ??0__crt_stdio_stream@@QEAA@QEAU__crt_stdio_stream_data@@@Z 00000001800a19a0 f i libucrtd:fflush.obj
 0001:000a0c50       ?__acrt_stdio_reset_buffer@@YAXV__crt_stdio_stream@@@Z 00000001800a1c50 f i libucrtd:fflush.obj
 0001:000a0e20       ?has_all_of@__crt_stdio_stream@@QEBA_NJ@Z 00000001800a1e20 f i libucrtd:fflush.obj
 0001:000a0f00       __acrt_stdio_flush_nolock  00000001800a1f00 f   libucrtd:fflush.obj
 0001:000a1020       _fflush_nolock             00000001800a2020 f   libucrtd:fflush.obj
 0001:000a1060       _flushall                  00000001800a2060 f   libucrtd:fflush.obj
 0001:000a1070       fflush                     00000001800a2070 f   libucrtd:fflush.obj
 0001:000a12c0       __acrt_fp_strflt_to_string 00000001800a22c0 f   libucrtd:_fptostr.obj
 0001:000a1e80       ??0big_integer@__crt_strtox@@QEAA@AEBU01@@Z 00000001800a2e80 f i libucrtd:cfout.obj
 0001:000a1ee0       ??0big_integer@__crt_strtox@@QEAA@XZ 00000001800a2ee0 f i libucrtd:cfout.obj
 0001:000a2030       ??4big_integer@__crt_strtox@@QEAAAEAU01@AEBU01@@Z 00000001800a3030 f i libucrtd:cfout.obj
 0001:000a2090       ??8__crt_strtox@@YA_NAEBUbig_integer@0@0@Z 00000001800a3090 f i libucrtd:cfout.obj
 0001:000a2100       ??9__crt_strtox@@YA_NAEBUbig_integer@0@0@Z 00000001800a3100 f i libucrtd:cfout.obj
 0001:000a2140       ?add_carry@__crt_strtox@@YAIAEAIII@Z 00000001800a3140 f i libucrtd:cfout.obj
 0001:000a2190       ?add_multiply_carry@__crt_strtox@@YAIAEAIIII@Z 00000001800a3190 f i libucrtd:cfout.obj
 0001:000a21f0       ?bit_scan_reverse@__crt_strtox@@YAII@Z 00000001800a31f0 f i libucrtd:cfout.obj
 0001:000a2230       ?count_sequential_high_zeroes@__crt_strtox@@YAII@Z 00000001800a3230 f i libucrtd:cfout.obj
 0001:000a2280       ?divide@__crt_strtox@@YA_KAEAUbig_integer@1@AEBU21@@Z 00000001800a3280 f i libucrtd:cfout.obj
 0001:000a2c50       ?is_zero@__crt_strtox@@YA_NAEBUbig_integer@1@@Z 00000001800a3c50 f i libucrtd:cfout.obj
 0001:000a2c80       ?make_big_integer@__crt_strtox@@YA?AUbig_integer@1@_K@Z 00000001800a3c80 f i libucrtd:cfout.obj
 0001:000a2d50       ?make_big_integer_power_of_two@__crt_strtox@@YA?AUbig_integer@1@I@Z 00000001800a3d50 f i libucrtd:cfout.obj
 0001:000a2e20       ?multiply@__crt_strtox@@YA_NAEAUbig_integer@1@AEBU21@@Z 00000001800a3e20 f i libucrtd:cfout.obj
 0001:000a31a0       ?multiply@__crt_strtox@@YA_NAEAUbig_integer@1@I@Z 00000001800a41a0 f i libucrtd:cfout.obj
 0001:000a32c0       ?multiply_64_32@__crt_strtox@@YA_K_KI@Z 00000001800a42c0 f i libucrtd:cfout.obj
 0001:000a32e0       ?multiply_by_power_of_ten@__crt_strtox@@YA_NAEAUbig_integer@1@I@Z 00000001800a42e0 f i libucrtd:cfout.obj
 0001:000a3490       ?multiply_core@__crt_strtox@@YAIQEAIII@Z 00000001800a4490 f i libucrtd:cfout.obj
 0001:000a3510       ?shift_left@__crt_strtox@@YA_NAEAUbig_integer@1@I@Z 00000001800a4510 f i libucrtd:cfout.obj
 0001:000a37f0       __acrt_fltout              00000001800a47f0 f   libucrtd:cfout.obj
 0001:000a3d20       __fpe_flt_rounds           00000001800a4d20 f   libucrtd:fegetround.obj
 0001:000a3d70       fegetround                 00000001800a4d70 f   libucrtd:fegetround.obj
 0001:000a3d90       ?__c32rtomb_utf8@__crt_mbstring@@YA_KPEAD_UPEAU_Mbstatet@@AEAV__crt_cached_ptd_host@@@Z 00000001800a4d90 f   libucrtd:c32rtomb.obj
 0001:000a4040       c32rtomb                   00000001800a5040 f   libucrtd:c32rtomb.obj
 0001:000a40a0       ?reset_and_return@__crt_mbstring@@YA_K_KPEAU_Mbstatet@@@Z 00000001800a50a0 f   libucrtd:common_utf8.obj
 0001:000a40e0       ?return_illegal_sequence@__crt_mbstring@@YA_KPEAU_Mbstatet@@AEAV__crt_cached_ptd_host@@@Z 00000001800a50e0 f   libucrtd:common_utf8.obj
 0001:000a4140       ?is_in_use@__crt_stdio_stream@@QEBA_NXZ 00000001800a5140 f i libucrtd:closeall.obj
 0001:000a4180       _fcloseall                 00000001800a5180 f   libucrtd:closeall.obj
 0001:000a4290       ?has_crt_buffer@__crt_stdio_stream@@QEBA_NXZ 00000001800a5290 f i libucrtd:_freebuf.obj
 0001:000a42b0       __acrt_stdio_free_buffer_nolock 00000001800a52b0 f   libucrtd:_freebuf.obj
 0001:000a4db0       ?has_big_buffer@__crt_stdio_stream@@QEBA_NXZ 00000001800a5db0 f i libucrtd:_flsbuf.obj
 0001:000a4f00       __acrt_stdio_flush_and_write_narrow_nolock 00000001800a5f00 f   libucrtd:_flsbuf.obj
 0001:000a4f40       __acrt_stdio_flush_and_write_wide_nolock 00000001800a5f40 f   libucrtd:_flsbuf.obj
 0001:000a4f80       _set_error_mode            00000001800a5f80 f   libucrtd:set_error_mode.obj
 0001:000a5080       __acrt_GetStringTypeW      00000001800a6080 f   libucrtd:getstringtypew.obj
 0001:000a52e0       __acrt_GetLocaleInfoA      00000001800a62e0 f   libucrtd:getlocaleinfoa.obj
 0001:000a58b0       __ascii_wcsicmp            00000001800a68b0 f   libucrtd:wcsicmp.obj
 0001:000a5980       _towlower_fast_internal    00000001800a6980 f i libucrtd:wcsicmp.obj
 0001:000a59d0       _towlower_internal         00000001800a69d0 f i libucrtd:wcsicmp.obj
 0001:000a5a10       _wcsicmp                   00000001800a6a10 f   libucrtd:wcsicmp.obj
 0001:000a5a80       _wcsicmp_l                 00000001800a6a80 f   libucrtd:wcsicmp.obj
 0001:000a5ed0       __ascii_wcsnicmp           00000001800a6ed0 f   libucrtd:wcsnicmp.obj
 0001:000a5fd0       _wcsnicmp                  00000001800a6fd0 f   libucrtd:wcsnicmp.obj
 0001:000a6050       _wcsnicmp_l                00000001800a7050 f   libucrtd:wcsnicmp.obj
 0001:000a6380       ?__wcsrtombs_utf8@__crt_mbstring@@YA_KPEADPEAPEB_W_KPEAU_Mbstatet@@AEAV__crt_cached_ptd_host@@@Z 00000001800a7380 f   libucrtd:wcrtomb.obj
 0001:000a7000       wcrtomb                    00000001800a8000 f   libucrtd:wcrtomb.obj
 0001:000a7080       wcrtomb_s                  00000001800a8080 f   libucrtd:wcrtomb.obj
 0001:000a7100       wcsrtombs                  00000001800a8100 f   libucrtd:wcrtomb.obj
 0001:000a7180       wcsrtombs_s                00000001800a8180 f   libucrtd:wcrtomb.obj
 0001:000a77c0       wctob                      00000001800a87c0 f   libucrtd:wcrtomb.obj
 0001:000a78cc       _guard_check_icall         00000001800a88cc f i libucrtd:checkcfg.obj
 0001:000a78f0       __strncnt                  00000001800a88f0 f   libucrtd:strncnt.obj
 0001:000a7950       __acrt_CompareStringW      00000001800a8950 f   libucrtd:comparestringw.obj
 0001:000a7ca0       __ascii_strnicmp           00000001800a8ca0 f   libucrtd:strnicmp.obj
 0001:000a7da0       _strnicmp                  00000001800a8da0 f   libucrtd:strnicmp.obj
 0001:000a7e30       _strnicmp_l                00000001800a8e30 f   libucrtd:strnicmp.obj
 0001:000a8890       __acrt_CompareStringA      00000001800a9890 f   libucrtd:comparestringa.obj
 0001:000a8b50       _commit                    00000001800a9b50 f   libucrtd:commit.obj
 0001:000aa580       _utf8_no_of_trailbytes     00000001800ab580 f i libucrtd:write.obj
 0001:000aa5a0       _write                     00000001800ab5a0 f   libucrtd:write.obj
 0001:000aa600       _write_internal            00000001800ab600 f   libucrtd:write.obj
 0001:000aa9a0       _write_nolock              00000001800ab9a0 f   libucrtd:write.obj
 0001:000ab070       log10                      00000001800ac070 f   libucrtd:log10.obj
 0001:000ab620       ceil                       00000001800ac620 f   libucrtd:ceil.obj
 0001:000ab6f0       _controlfp_s               00000001800ac6f0 f   libucrtd:contrlfp.obj
 0001:000ab7c0       fegetenv                   00000001800ac7c0 f   libucrtd:fegetenv.obj
 0001:000ab7e0       fesetenv                   00000001800ac7e0 f   libucrtd:fesetenv.obj
 0001:000ab850       feholdexcept               00000001800ac850 f   libucrtd:feholdexcept.obj
 0001:000ab8b0       ??$__acrt_fenv_shift_bits@W4__acrt_fenv_abstract_control@@@@YA?AW4__acrt_fenv_abstract_control@@W40@0I@Z 00000001800ac8b0 f i libucrtd:_fenvutils.obj
 0001:000ab8c0       ??$__acrt_fenv_shift_bits@W4__acrt_fenv_abstract_status@@@@YA?AW4__acrt_fenv_abstract_status@@W40@0I@Z 00000001800ac8c0 f i libucrtd:_fenvutils.obj
 0001:000ab8d0       ??$__acrt_fenv_translate_bit@W4__acrt_fenv_abstract_control@@W4__acrt_fenv_machine_sse_control@@@@YA?AW4__acrt_fenv_abstract_control@@W4__acrt_fenv_machine_sse_control@@0W40@1@Z 00000001800ac8d0 f i libucrtd:_fenvutils.obj
 0001:000ab8e0       ??$__acrt_fenv_translate_bit@W4__acrt_fenv_abstract_status@@W4__acrt_fenv_machine_sse_status@@@@YA?AW4__acrt_fenv_abstract_status@@W4__acrt_fenv_machine_sse_status@@0W40@1@Z 00000001800ac8e0 f i libucrtd:_fenvutils.obj
 0001:000ab8f0       ??$__acrt_fenv_translate_bit@W4__acrt_fenv_machine_sse_control@@W4__acrt_fenv_abstract_control@@@@YA?AW4__acrt_fenv_machine_sse_control@@W4__acrt_fenv_abstract_control@@0W40@1@Z 00000001800ac8f0 f i libucrtd:_fenvutils.obj
 0001:000ab900       ??$__acrt_fenv_translate_bit@W4__acrt_fenv_machine_sse_status@@W4__acrt_fenv_abstract_status@@@@YA?AW4__acrt_fenv_machine_sse_status@@W4__acrt_fenv_abstract_status@@0W40@1@Z 00000001800ac900 f i libucrtd:_fenvutils.obj
 0001:000ab910       ??$__acrt_fenv_unshift_bits@W4__acrt_fenv_abstract_control@@@@YA?AW4__acrt_fenv_abstract_control@@W40@0I@Z 00000001800ac910 f i libucrtd:_fenvutils.obj
 0001:000ab920       ??$__acrt_fenv_unshift_bits@W4__acrt_fenv_abstract_status@@@@YA?AW4__acrt_fenv_abstract_status@@W40@0I@Z 00000001800ac920 f i libucrtd:_fenvutils.obj
 0001:000abb30       ??I@YA?AW4__acrt_fenv_abstract_control@@W40@0@Z 00000001800acb30 f i libucrtd:_fenvutils.obj
 0001:000abb40       ??I@YA?AW4__acrt_fenv_abstract_status@@W40@0@Z 00000001800acb40 f i libucrtd:_fenvutils.obj
 0001:000abb50       ??I@YA?AW4__acrt_fenv_machine_sse_control@@W40@0@Z 00000001800acb50 f i libucrtd:_fenvutils.obj
 0001:000abb60       ??I@YA?AW4__acrt_fenv_machine_sse_status@@W40@0@Z 00000001800acb60 f i libucrtd:_fenvutils.obj
 0001:000abb70       ??U@YA?AW4__acrt_fenv_abstract_control@@W40@0@Z 00000001800acb70 f i libucrtd:_fenvutils.obj
 0001:000abb80       ??U@YA?AW4__acrt_fenv_abstract_status@@W40@0@Z 00000001800acb80 f i libucrtd:_fenvutils.obj
 0001:000abb90       ??U@YA?AW4__acrt_fenv_machine_sse_control@@W40@0@Z 00000001800acb90 f i libucrtd:_fenvutils.obj
 0001:000abba0       ??_5@YAAEAW4__acrt_fenv_abstract_control@@AEAW40@W40@@Z 00000001800acba0 f i libucrtd:_fenvutils.obj
 0001:000abbb0       ??_5@YAAEAW4__acrt_fenv_abstract_status@@AEAW40@W40@@Z 00000001800acbb0 f i libucrtd:_fenvutils.obj
 0001:000abbc0       ??_5@YAAEAW4__acrt_fenv_machine_sse_control@@AEAW40@W40@@Z 00000001800acbc0 f i libucrtd:_fenvutils.obj
 0001:000abbd0       ??_5@YAAEAW4__acrt_fenv_machine_sse_status@@AEAW40@W40@@Z 00000001800acbd0 f i libucrtd:_fenvutils.obj
 0001:000abbe0       ?__acrt_fenv_shift_abstract_sse_control@@YA?AW4__acrt_fenv_abstract_control@@W41@@Z 00000001800acbe0 f i libucrtd:_fenvutils.obj
 0001:000abc00       ?__acrt_fenv_shift_abstract_sse_status@@YA?AW4__acrt_fenv_abstract_status@@W41@@Z 00000001800acc00 f i libucrtd:_fenvutils.obj
 0001:000abc10       ?__acrt_fenv_unshift_abstract_sse_control@@YA?AW4__acrt_fenv_abstract_control@@W41@@Z 00000001800acc10 f i libucrtd:_fenvutils.obj
 0001:000abc30       ?__acrt_fenv_unshift_abstract_sse_status@@YA?AW4__acrt_fenv_abstract_status@@W41@@Z 00000001800acc30 f i libucrtd:_fenvutils.obj
 0001:000abf40       __acrt_fenv_expand_round_control 00000001800acf40 f   libucrtd:_fenvutils.obj
 0001:000abf60       __acrt_fenv_get_common_round_control 00000001800acf60 f   libucrtd:_fenvutils.obj
 0001:000abf70       __acrt_fenv_get_control    00000001800acf70 f   libucrtd:_fenvutils.obj
 0001:000ac050       __acrt_fenv_get_fp_status_word_from_exception_mask 00000001800ad050 f   libucrtd:_fenvutils.obj
 0001:000ac060       __acrt_fenv_get_status     00000001800ad060 f   libucrtd:_fenvutils.obj
 0001:000ac0c0       __acrt_fenv_set_control    00000001800ad0c0 f   libucrtd:_fenvutils.obj
 0001:000ac1f0       __acrt_fenv_set_status     00000001800ad1f0 f   libucrtd:_fenvutils.obj
 0001:000ac580       _fclose_nolock             00000001800ad580 f   libucrtd:fclose.obj
 0001:000ac5c0       fclose                     00000001800ad5c0 f   libucrtd:fclose.obj
 0001:000ad150       _lseek                     00000001800ae150 f   libucrtd:lseek.obj
 0001:000ad1b0       _lseek_internal            00000001800ae1b0 f   libucrtd:lseek.obj
 0001:000ad1f0       _lseek_nolock              00000001800ae1f0 f   libucrtd:lseek.obj
 0001:000ad250       _lseek_nolock_internal     00000001800ae250 f   libucrtd:lseek.obj
 0001:000ad290       _lseeki64                  00000001800ae290 f   libucrtd:lseek.obj
 0001:000ad2f0       _lseeki64_internal         00000001800ae2f0 f   libucrtd:lseek.obj
 0001:000ad330       _lseeki64_nolock           00000001800ae330 f   libucrtd:lseek.obj
 0001:000ad390       _lseeki64_nolock_internal  00000001800ae390 f   libucrtd:lseek.obj
 0001:000ad3d0       __acrt_stdio_allocate_buffer_nolock 00000001800ae3d0 f   libucrtd:_getbuf.obj
 0001:000ad550       _towlower_l                00000001800ae550 f   libucrtd:towlower.obj
 0001:000ad700       towlower                   00000001800ae700 f   libucrtd:towlower.obj
 0001:000ad890       _putwch                    00000001800ae890 f   libucrtd:putwch.obj
 0001:000ad8c0       _putwch_nolock             00000001800ae8c0 f   libucrtd:putwch.obj
 0001:000ad910       _putwch_nolock_internal    00000001800ae910 f   libucrtd:putwch.obj
 0001:000ae810       _read                      00000001800af810 f   libucrtd:read.obj
 0001:000aeb60       _read_nolock               00000001800afb60 f   libucrtd:read.obj
 0001:000af950       __acrt_initialize_fma3     00000001800b0950 f   libucrtd:fma3_available.obj
 0001:000afa10       _get_FMA3_enable           00000001800b0a10 f   libucrtd:fma3_available.obj
 0001:000afa20       _set_FMA3_enable           00000001800b0a20 f   libucrtd:fma3_available.obj
 0001:000afa60       _log10_special             00000001800b0a60 f   libucrtd:log_special.obj
 0001:000afa80       _log10f_special            00000001800b0a80 f   libucrtd:log_special.obj
 0001:000afaa0       _log_special               00000001800b0aa0 f   libucrtd:log_special.obj
 0001:000afb60       _logf_special              00000001800b0b60 f   libucrtd:log_special.obj
 0001:000afda0       _handle_error              00000001800b0da0 f   libucrtd:libm_error.obj
 0001:000afee0       _handle_errorf             00000001800b0ee0 f   libucrtd:libm_error.obj
 0001:000b0020       _handle_nan                00000001800b1020 f   libucrtd:libm_error.obj
 0001:000b0040       _handle_nanf               00000001800b1040 f   libucrtd:libm_error.obj
 0001:000b0050       round_sse41                00000001800b1050 f   libucrtd:floorceil_sse41.obj
 0001:000b0080       roundf_sse41               00000001800b1080 f   libucrtd:floorceil_sse41.obj
 0001:000b00a0       floor_sse41                00000001800b10a0 f   libucrtd:floorceil_sse41.obj
 0001:000b00b0       floorf_sse41               00000001800b10b0 f   libucrtd:floorceil_sse41.obj
 0001:000b00c0       ceil_sse41                 00000001800b10c0 f   libucrtd:floorceil_sse41.obj
 0001:000b00d0       ceilf_sse41                00000001800b10d0 f   libucrtd:floorceil_sse41.obj
 0001:000b00e0       trunc_sse41                00000001800b10e0 f   libucrtd:floorceil_sse41.obj
 0001:000b00f0       truncl_sse41               00000001800b10f0 f   libucrtd:floorceil_sse41.obj
 0001:000b0100       truncf_sse41               00000001800b1100 f   libucrtd:floorceil_sse41.obj
 0001:000b0110       nearbyint_sse41            00000001800b1110 f   libucrtd:floorceil_sse41.obj
 0001:000b0120       nearbyintl_sse41           00000001800b1120 f   libucrtd:floorceil_sse41.obj
 0001:000b0130       nearbyintf_sse41           00000001800b1130 f   libucrtd:floorceil_sse41.obj
 0001:000b0140       rint_sse41                 00000001800b1140 f   libucrtd:floorceil_sse41.obj
 0001:000b0150       rintl_sse41                00000001800b1150 f   libucrtd:floorceil_sse41.obj
 0001:000b0160       rintf_sse41                00000001800b1160 f   libucrtd:floorceil_sse41.obj
 0001:000b0290       _clearfp                   00000001800b1290 f   libucrtd:ieee.obj
 0001:000b0300       _control87                 00000001800b1300 f   libucrtd:ieee.obj
 0001:000b0310       _controlfp                 00000001800b1310 f   libucrtd:ieee.obj
 0001:000b0320       _fpreset                   00000001800b1320 f   libucrtd:ieee.obj
 0001:000b03f0       _set_controlfp             00000001800b13f0 f   libucrtd:ieee.obj
 0001:000b0420       _statusfp                  00000001800b1420 f   libucrtd:ieee.obj
 0001:000b0a60       _close                     00000001800b1a60 f   libucrtd:close.obj
 0001:000b0aa0       _close_internal            00000001800b1aa0 f   libucrtd:close.obj
 0001:000b0d60       _close_nolock              00000001800b1d60 f   libucrtd:close.obj
 0001:000b0da0       _close_nolock_internal     00000001800b1da0 f   libucrtd:close.obj
 0001:000b0e10       ??$?RU__crt_stdio_stream_data@@@__crt_internal_free_policy@@QEBAXQEBU__crt_stdio_stream_data@@@Z 00000001800b1e10 f i libucrtd:stream.obj
 0001:000b0e40       ??0?$__crt_unique_heap_ptr@U__crt_stdio_stream_data@@U__crt_internal_free_policy@@@@QEAA@QEAU__crt_stdio_stream_data@@@Z 00000001800b1e40 f i libucrtd:stream.obj
 0001:000b0e60       ??0__crt_stdio_stream@@QEAA@XZ 00000001800b1e60 f i libucrtd:stream.obj
 0001:000b0e80       ??1?$__crt_unique_heap_ptr@U__crt_stdio_stream_data@@U__crt_internal_free_policy@@@@QEAA@XZ 00000001800b1e80 f i libucrtd:stream.obj
 0001:000b0ea0       ?__acrt_stdio_allocate_stream@@YA?AV__crt_stdio_stream@@XZ 00000001800b1ea0 f   libucrtd:stream.obj
 0001:000b0f60       ?__acrt_stdio_free_stream@@YAXV__crt_stdio_stream@@@Z 00000001800b1f60 f   libucrtd:stream.obj
 0001:000b1000       ?deallocate@__crt_stdio_stream@@QEAAXXZ 00000001800b2000 f i libucrtd:stream.obj
 0001:000b1020       ?detach@?$__crt_unique_heap_ptr@U__crt_stdio_stream_data@@U__crt_internal_free_policy@@@@QEAAPEAU__crt_stdio_stream_data@@XZ 00000001800b2020 f i libucrtd:stream.obj
 0001:000b1200       ?lock@__crt_stdio_stream@@QEBAXXZ 00000001800b2200 f i libucrtd:stream.obj
 0001:000b1220       ?release@?$__crt_unique_heap_ptr@U__crt_stdio_stream_data@@U__crt_internal_free_policy@@@@QEAAXXZ 00000001800b2220 f i libucrtd:stream.obj
 0001:000b1250       ?try_allocate@__crt_stdio_stream@@QEAA_NXZ 00000001800b2250 f i libucrtd:stream.obj
 0001:000b12c0       ?unlock@__crt_stdio_stream@@QEBAXXZ 00000001800b22c0 f i libucrtd:stream.obj
 0001:000b12e0       __acrt_LCMapStringW        00000001800b22e0 f   libucrtd:lcmapstringw.obj
 0001:000b14e0       __dcrt_lowio_ensure_console_output_initialized 00000001800b24e0 f   libucrtd:initcon.obj
 0001:000b1510       __dcrt_terminate_console_output 00000001800b2510 f   libucrtd:initcon.obj
 0001:000b1540       __dcrt_write_console       00000001800b2540 f   libucrtd:initcon.obj
 0001:000b1580       _clrfp                     00000001800b2580 f   libucrtd:fpctrl.obj
 0001:000b15a0       _ctrlfp                    00000001800b25a0 f   libucrtd:fpctrl.obj
 0001:000b1620       _get_fpcsr                 00000001800b2620 f   libucrtd:fpctrl.obj
 0001:000b1630       _get_fpsr                  00000001800b2630 f i libucrtd:fpctrl.obj
 0001:000b1640       _set_fpcsr                 00000001800b2640 f   libucrtd:fpctrl.obj
 0001:000b1650       _set_fpsr                  00000001800b2650 f i libucrtd:fpctrl.obj
 0001:000b1660       _set_statfp                00000001800b2660 f   libucrtd:fpctrl.obj
 0001:000b1680       _statfp                    00000001800b2680 f   libucrtd:fpctrl.obj
 0001:000b1740       ?should_round_up@__crt_strtox@@YA_N_N000@Z 00000001800b2740 f i libucrtd:fpexcept.obj
 0001:000b1800       _errcode                   00000001800b2800 f   libucrtd:fpexcept.obj
 0001:000b1840       _except1                   00000001800b2840 f   libucrtd:fpexcept.obj
 0001:000b19c0       _except2                   00000001800b29c0 f   libucrtd:fpexcept.obj
 0001:000b1b70       _fperrraise                00000001800b2b70 f   libucrtd:fpexcept.obj
 0001:000b1c80       _handle_exc                00000001800b2c80 f   libucrtd:fpexcept.obj
 0001:000b2040       _handle_qnan2              00000001800b3040 f   libucrtd:fpexcept.obj
 0001:000b2050       _raise_exc                 00000001800b3050 f   libucrtd:fpexcept.obj
 0001:000b2080       _raise_exc_ex              00000001800b3080 f   libucrtd:fpexcept.obj
 0001:000b2390       _raise_excf                00000001800b3390 f   libucrtd:fpexcept.obj
 0001:000b23c0       _set_errno_from_matherr    00000001800b33c0 f   libucrtd:fpexcept.obj
 0001:000b2400       _umatherr                  00000001800b3400 f   libucrtd:fpexcept.obj
 0001:000b2560       ??_4@YAAEAW4__acrt_fenv_abstract_status@@AEAW40@W40@@Z 00000001800b3560 f i libucrtd:fegetexceptflag.obj
 0001:000b2570       fegetexceptflag            00000001800b3570 f   libucrtd:fegetexceptflag.obj
 0001:000b25c0       ??S@YA?AW4__acrt_fenv_abstract_status@@W40@@Z 00000001800b35c0 f i libucrtd:fesetexceptflag.obj
 0001:000b25d0       fesetexceptflag            00000001800b35d0 f   libucrtd:fesetexceptflag.obj
 0001:000b2650       _decomp                    00000001800b3650 f i libucrtd:frexp.obj
 0001:000b2750       _set_exp                   00000001800b3750 f i libucrtd:frexp.obj
 0001:000b2780       _sptype                    00000001800b3780 f i libucrtd:frexp.obj
 0001:000b2810       frexp                      00000001800b3810 f   libucrtd:frexp.obj
 0001:000b2a50       fetestexcept               00000001800b3a50 f   libucrtd:fetestexcept.obj
 0001:000b2a74       RaiseException             00000001800b3a74 f   kernel32:KERNEL32.dll
 0001:000b2a7a       GetLastError               00000001800b3a7a f   kernel32:KERNEL32.dll
 0001:000b2a80       GetSystemInfo              00000001800b3a80 f   kernel32:KERNEL32.dll
 0001:000b2a86       VirtualProtect             00000001800b3a86 f   kernel32:KERNEL32.dll
 0001:000b2a8c       VirtualQuery               00000001800b3a8c f   kernel32:KERNEL32.dll
 0001:000b2a92       FreeLibrary                00000001800b3a92 f   kernel32:KERNEL32.dll
 0001:000b2a98       GetModuleHandleW           00000001800b3a98 f   kernel32:KERNEL32.dll
 0001:000b2a9e       GetProcAddress             00000001800b3a9e f   kernel32:KERNEL32.dll
 0001:000b2aa4       LoadLibraryExA             00000001800b3aa4 f   kernel32:KERNEL32.dll
 0001:000b2aaa       InitializeSListHead        00000001800b3aaa f   kernel32:KERNEL32.dll
 0001:000b2ab0       QueryPerformanceCounter    00000001800b3ab0 f   kernel32:KERNEL32.dll
 0001:000b2ab6       GetCurrentProcessId        00000001800b3ab6 f   kernel32:KERNEL32.dll
 0001:000b2abc       GetCurrentThreadId         00000001800b3abc f   kernel32:KERNEL32.dll
 0001:000b2ac2       GetSystemTimeAsFileTime    00000001800b3ac2 f   kernel32:KERNEL32.dll
 0001:000b2ac8       RtlCaptureContext          00000001800b3ac8 f   kernel32:KERNEL32.dll
 0001:000b2ace       RtlLookupFunctionEntry     00000001800b3ace f   kernel32:KERNEL32.dll
 0001:000b2ad4       RtlVirtualUnwind           00000001800b3ad4 f   kernel32:KERNEL32.dll
 0001:000b2ada       IsDebuggerPresent          00000001800b3ada f   kernel32:KERNEL32.dll
 0001:000b2ae0       UnhandledExceptionFilter   00000001800b3ae0 f   kernel32:KERNEL32.dll
 0001:000b2ae6       SetUnhandledExceptionFilter 00000001800b3ae6 f   kernel32:KERNEL32.dll
 0001:000b2aec       GetStartupInfoW            00000001800b3aec f   kernel32:KERNEL32.dll
 0001:000b2af2       IsProcessorFeaturePresent  00000001800b3af2 f   kernel32:KERNEL32.dll
 0001:000b2af8       MultiByteToWideChar        00000001800b3af8 f   kernel32:KERNEL32.dll
 0001:000b2afe       WideCharToMultiByte        00000001800b3afe f   kernel32:KERNEL32.dll
 0001:000b2b04       HeapAlloc                  00000001800b3b04 f   kernel32:KERNEL32.dll
 0001:000b2b0a       HeapFree                   00000001800b3b0a f   kernel32:KERNEL32.dll
 0001:000b2b10       GetProcessHeap             00000001800b3b10 f   kernel32:KERNEL32.dll
 0001:000b2b16       GetCurrentProcess          00000001800b3b16 f   kernel32:KERNEL32.dll
 0001:000b2b1c       TerminateProcess           00000001800b3b1c f   kernel32:KERNEL32.dll
 0001:000b2b22       InterlockedPushEntrySList  00000001800b3b22 f   kernel32:KERNEL32.dll
 0001:000b2b28       InterlockedFlushSList      00000001800b3b28 f   kernel32:KERNEL32.dll
 0001:000b2b2e       RtlUnwindEx                00000001800b3b2e f   kernel32:KERNEL32.dll
 0001:000b2b34       GetModuleFileNameW         00000001800b3b34 f   kernel32:KERNEL32.dll
 0001:000b2b3a       LoadLibraryExW             00000001800b3b3a f   kernel32:KERNEL32.dll
 0001:000b2b40       SetLastError               00000001800b3b40 f   kernel32:KERNEL32.dll
 0001:000b2b46       EnterCriticalSection       00000001800b3b46 f   kernel32:KERNEL32.dll
 0001:000b2b4c       LeaveCriticalSection       00000001800b3b4c f   kernel32:KERNEL32.dll
 0001:000b2b52       DeleteCriticalSection      00000001800b3b52 f   kernel32:KERNEL32.dll
 0001:000b2b58       InitializeCriticalSectionAndSpinCount 00000001800b3b58 f   kernel32:KERNEL32.dll
 0001:000b2b5e       TlsAlloc                   00000001800b3b5e f   kernel32:KERNEL32.dll
 0001:000b2b64       TlsGetValue                00000001800b3b64 f   kernel32:KERNEL32.dll
 0001:000b2b6a       TlsSetValue                00000001800b3b6a f   kernel32:KERNEL32.dll
 0001:000b2b70       TlsFree                    00000001800b3b70 f   kernel32:KERNEL32.dll
 0001:000b2b76       EncodePointer              00000001800b3b76 f   kernel32:KERNEL32.dll
 0001:000b2b7c       RtlPcToFileHeader          00000001800b3b7c f   kernel32:KERNEL32.dll
 0001:000b2b82       HeapSize                   00000001800b3b82 f   kernel32:KERNEL32.dll
 0001:000b2b88       HeapValidate               00000001800b3b88 f   kernel32:KERNEL32.dll
 0001:000b2b8e       GetModuleHandleExW         00000001800b3b8e f   kernel32:KERNEL32.dll
 0001:000b2b94       ExitProcess                00000001800b3b94 f   kernel32:KERNEL32.dll
 0001:000b2b9a       HeapReAlloc                00000001800b3b9a f   kernel32:KERNEL32.dll
 0001:000b2ba0       GetCurrentThread           00000001800b3ba0 f   kernel32:KERNEL32.dll
 0001:000b2ba6       HeapQueryInformation       00000001800b3ba6 f   kernel32:KERNEL32.dll
 0001:000b2bac       GetStdHandle               00000001800b3bac f   kernel32:KERNEL32.dll
 0001:000b2bb2       GetFileType                00000001800b3bb2 f   kernel32:KERNEL32.dll
 0001:000b2bb8       WriteFile                  00000001800b3bb8 f   kernel32:KERNEL32.dll
 0001:000b2bbe       OutputDebugStringW         00000001800b3bbe f   kernel32:KERNEL32.dll
 0001:000b2bc4       WriteConsoleW              00000001800b3bc4 f   kernel32:KERNEL32.dll
 0001:000b2bca       SetConsoleCtrlHandler      00000001800b3bca f   kernel32:KERNEL32.dll
 0001:000b2bd0       FindClose                  00000001800b3bd0 f   kernel32:KERNEL32.dll
 0001:000b2bd6       FindFirstFileExW           00000001800b3bd6 f   kernel32:KERNEL32.dll
 0001:000b2bdc       FindNextFileW              00000001800b3bdc f   kernel32:KERNEL32.dll
 0001:000b2be2       IsValidCodePage            00000001800b3be2 f   kernel32:KERNEL32.dll
 0001:000b2be8       GetACP                     00000001800b3be8 f   kernel32:KERNEL32.dll
 0001:000b2bee       GetOEMCP                   00000001800b3bee f   kernel32:KERNEL32.dll
 0001:000b2bf4       GetCPInfo                  00000001800b3bf4 f   kernel32:KERNEL32.dll
 0001:000b2bfa       GetCommandLineA            00000001800b3bfa f   kernel32:KERNEL32.dll
 0001:000b2c00       GetCommandLineW            00000001800b3c00 f   kernel32:KERNEL32.dll
 0001:000b2c06       GetEnvironmentStringsW     00000001800b3c06 f   kernel32:KERNEL32.dll
 0001:000b2c0c       FreeEnvironmentStringsW    00000001800b3c0c f   kernel32:KERNEL32.dll
 0001:000b2c12       SetEnvironmentVariableW    00000001800b3c12 f   kernel32:KERNEL32.dll
 0001:000b2c18       GetTempPathW               00000001800b3c18 f   kernel32:KERNEL32.dll
 0001:000b2c1e       FlsAlloc                   00000001800b3c1e f   kernel32:KERNEL32.dll
 0001:000b2c24       FlsGetValue                00000001800b3c24 f   kernel32:KERNEL32.dll
 0001:000b2c2a       FlsSetValue                00000001800b3c2a f   kernel32:KERNEL32.dll
 0001:000b2c30       FlsFree                    00000001800b3c30 f   kernel32:KERNEL32.dll
 0001:000b2c36       IsThreadAFiber             00000001800b3c36 f   kernel32:KERNEL32.dll
 0001:000b2c3c       InitializeCriticalSectionEx 00000001800b3c3c f   kernel32:KERNEL32.dll
 0001:000b2c42       GetDateFormatW             00000001800b3c42 f   kernel32:KERNEL32.dll
 0001:000b2c48       GetTimeFormatW             00000001800b3c48 f   kernel32:KERNEL32.dll
 0001:000b2c4e       CompareStringW             00000001800b3c4e f   kernel32:KERNEL32.dll
 0001:000b2c54       LCMapStringW               00000001800b3c54 f   kernel32:KERNEL32.dll
 0001:000b2c5a       GetLocaleInfoW             00000001800b3c5a f   kernel32:KERNEL32.dll
 0001:000b2c60       IsValidLocale              00000001800b3c60 f   kernel32:KERNEL32.dll
 0001:000b2c66       GetUserDefaultLCID         00000001800b3c66 f   kernel32:KERNEL32.dll
 0001:000b2c6c       EnumSystemLocalesW         00000001800b3c6c f   kernel32:KERNEL32.dll
 0001:000b2c72       GetStringTypeW             00000001800b3c72 f   kernel32:KERNEL32.dll
 0001:000b2c78       SetStdHandle               00000001800b3c78 f   kernel32:KERNEL32.dll
 0001:000b2c7e       GetFileSizeEx              00000001800b3c7e f   kernel32:KERNEL32.dll
 0001:000b2c84       SetFilePointerEx           00000001800b3c84 f   kernel32:KERNEL32.dll
 0001:000b2c8a       FlushFileBuffers           00000001800b3c8a f   kernel32:KERNEL32.dll
 0001:000b2c90       GetConsoleOutputCP         00000001800b3c90 f   kernel32:KERNEL32.dll
 0001:000b2c96       GetConsoleMode             00000001800b3c96 f   kernel32:KERNEL32.dll
 0001:000b2c9c       ReadFile                   00000001800b3c9c f   kernel32:KERNEL32.dll
 0001:000b2ca2       ReadConsoleW               00000001800b3ca2 f   kernel32:KERNEL32.dll
 0001:000b2ca8       CloseHandle                00000001800b3ca8 f   kernel32:KERNEL32.dll
 0001:000b2cae       CreateFileW                00000001800b3cae f   kernel32:KERNEL32.dll
 0001:000b2cc0       _FindPESection             00000001800b3cc0 f   LIBCMTD:pesect.obj
 0001:000b2d70       _IsNonwritableInCurrentImage 00000001800b3d70 f   LIBCMTD:pesect.obj
 0001:000b2e00       _ValidateImageBase         00000001800b3e00 f   LIBCMTD:pesect.obj
 0001:000b2e80       __GSHandlerCheck_SEH       00000001800b3e80 f   LIBCMTD:gshandlerseh.obj
 0001:000b2f50       __chkstk                   00000001800b3f50 f   LIBCMTD:chkstk.obj
 0001:000b2f50       _alloca_probe              00000001800b3f50 f   LIBCMTD:chkstk.obj
 0001:000b2fa0       __GSHandlerCheck_EH        00000001800b3fa0 f   LIBCMTD:gshandlereh.obj
 0001:000b3050       strchr                     00000001800b4050 f   libvcruntimed:strchr.obj
 0001:000b31e0       wcschr                     00000001800b41e0 f   libvcruntimed:wcschr.obj
 0001:000b3330       strrchr                    00000001800b4330 f   libvcruntimed:strrchr.obj
 0001:000b3760       _local_unwind              00000001800b4760 f   libvcruntimed:jmpuwind.obj
 0001:000b378a       RtlUnwind                  00000001800b478a f   kernel32:KERNEL32.dll
 0001:000b37a0       _guard_dispatch_icall_nop  00000001800b47a0 f   LIBCMTD:guard_dispatch.obj
 0001:000b37c0       _guard_xfg_dispatch_icall_nop 00000001800b47c0 f   LIBCMTD:guard_xfg_dispatch.obj
 0001:000b37e0       _guard_dispatch_icall      00000001800b47e0 f   libucrtd:dispatchcfg.obj
 0001:000b37e0       _guard_dispatch_icall_$fo_default$ 00000001800b47e0     libucrtd:dispatchcfg.obj
 0001:000b3810       memset_repstos             00000001800b4810 f   libvcruntimed:memset.obj
 0001:000b3820       memset                     00000001800b4820 f   libvcruntimed:memset.obj
 0001:000b3bd0       memcpy_repmovs             00000001800b4bd0 f   libvcruntimed:memcpy.obj
 0001:000b3be0       memcpy                     00000001800b4be0 f   libvcruntimed:memcpy.obj
 0001:000b3be0       memcpy_$fo_default$        00000001800b4be0     libvcruntimed:memcpy.obj
 0001:000b3be0       memmove                    00000001800b4be0 f   libvcruntimed:memcpy.obj
 0001:000b4260       strcmp                     00000001800b5260 f   libucrtd:strcmp.obj
 0001:000b42e0       strlen                     00000001800b52e0 f   libucrtd:strlen.obj
 0001:000b43a0       strncmp                    00000001800b53a0 f   libucrtd:strncmp.obj
 0001:000b4430       memcmp                     00000001800b5430 f   libvcruntimed:memcmp.obj
 0002:00000000       __imp_LoadLibraryA         00000001800b7000     kernel32:KERNEL32.dll
 0002:00000008       __imp_CreateFileW          00000001800b7008     kernel32:KERNEL32.dll
 0002:00000010       __imp_RaiseException       00000001800b7010     kernel32:KERNEL32.dll
 0002:00000018       __imp_GetLastError         00000001800b7018     kernel32:KERNEL32.dll
 0002:00000020       __imp_GetSystemInfo        00000001800b7020     kernel32:KERNEL32.dll
 0002:00000028       __imp_VirtualProtect       00000001800b7028     kernel32:KERNEL32.dll
 0002:00000030       __imp_VirtualQuery         00000001800b7030     kernel32:KERNEL32.dll
 0002:00000038       __imp_FreeLibrary          00000001800b7038     kernel32:KERNEL32.dll
 0002:00000040       __imp_GetModuleHandleW     00000001800b7040     kernel32:KERNEL32.dll
 0002:00000048       __imp_GetProcAddress       00000001800b7048     kernel32:KERNEL32.dll
 0002:00000050       __imp_LoadLibraryExA       00000001800b7050     kernel32:KERNEL32.dll
 0002:00000058       __imp_InitializeSListHead  00000001800b7058     kernel32:KERNEL32.dll
 0002:00000060       __imp_QueryPerformanceCounter 00000001800b7060     kernel32:KERNEL32.dll
 0002:00000068       __imp_GetCurrentProcessId  00000001800b7068     kernel32:KERNEL32.dll
 0002:00000070       __imp_GetCurrentThreadId   00000001800b7070     kernel32:KERNEL32.dll
 0002:00000078       __imp_GetSystemTimeAsFileTime 00000001800b7078     kernel32:KERNEL32.dll
 0002:00000080       __imp_RtlCaptureContext    00000001800b7080     kernel32:KERNEL32.dll
 0002:00000088       __imp_RtlLookupFunctionEntry 00000001800b7088     kernel32:KERNEL32.dll
 0002:00000090       __imp_RtlVirtualUnwind     00000001800b7090     kernel32:KERNEL32.dll
 0002:00000098       __imp_IsDebuggerPresent    00000001800b7098     kernel32:KERNEL32.dll
 0002:000000a0       __imp_UnhandledExceptionFilter 00000001800b70a0     kernel32:KERNEL32.dll
 0002:000000a8       __imp_SetUnhandledExceptionFilter 00000001800b70a8     kernel32:KERNEL32.dll
 0002:000000b0       __imp_GetStartupInfoW      00000001800b70b0     kernel32:KERNEL32.dll
 0002:000000b8       __imp_IsProcessorFeaturePresent 00000001800b70b8     kernel32:KERNEL32.dll
 0002:000000c0       __imp_MultiByteToWideChar  00000001800b70c0     kernel32:KERNEL32.dll
 0002:000000c8       __imp_WideCharToMultiByte  00000001800b70c8     kernel32:KERNEL32.dll
 0002:000000d0       __imp_HeapAlloc            00000001800b70d0     kernel32:KERNEL32.dll
 0002:000000d8       __imp_HeapFree             00000001800b70d8     kernel32:KERNEL32.dll
 0002:000000e0       __imp_GetProcessHeap       00000001800b70e0     kernel32:KERNEL32.dll
 0002:000000e8       __imp_GetCurrentProcess    00000001800b70e8     kernel32:KERNEL32.dll
 0002:000000f0       __imp_TerminateProcess     00000001800b70f0     kernel32:KERNEL32.dll
 0002:000000f8       __imp_InterlockedPushEntrySList 00000001800b70f8     kernel32:KERNEL32.dll
 0002:00000100       __imp_InterlockedFlushSList 00000001800b7100     kernel32:KERNEL32.dll
 0002:00000108       __imp_RtlUnwindEx          00000001800b7108     kernel32:KERNEL32.dll
 0002:00000110       __imp_GetModuleFileNameW   00000001800b7110     kernel32:KERNEL32.dll
 0002:00000118       __imp_LoadLibraryExW       00000001800b7118     kernel32:KERNEL32.dll
 0002:00000120       __imp_SetLastError         00000001800b7120     kernel32:KERNEL32.dll
 0002:00000128       __imp_EnterCriticalSection 00000001800b7128     kernel32:KERNEL32.dll
 0002:00000130       __imp_LeaveCriticalSection 00000001800b7130     kernel32:KERNEL32.dll
 0002:00000138       __imp_DeleteCriticalSection 00000001800b7138     kernel32:KERNEL32.dll
 0002:00000140       __imp_InitializeCriticalSectionAndSpinCount 00000001800b7140     kernel32:KERNEL32.dll
 0002:00000148       __imp_TlsAlloc             00000001800b7148     kernel32:KERNEL32.dll
 0002:00000150       __imp_TlsGetValue          00000001800b7150     kernel32:KERNEL32.dll
 0002:00000158       __imp_TlsSetValue          00000001800b7158     kernel32:KERNEL32.dll
 0002:00000160       __imp_TlsFree              00000001800b7160     kernel32:KERNEL32.dll
 0002:00000168       __imp_EncodePointer        00000001800b7168     kernel32:KERNEL32.dll
 0002:00000170       __imp_RtlPcToFileHeader    00000001800b7170     kernel32:KERNEL32.dll
 0002:00000178       __imp_HeapSize             00000001800b7178     kernel32:KERNEL32.dll
 0002:00000180       __imp_HeapValidate         00000001800b7180     kernel32:KERNEL32.dll
 0002:00000188       __imp_GetModuleHandleExW   00000001800b7188     kernel32:KERNEL32.dll
 0002:00000190       __imp_ExitProcess          00000001800b7190     kernel32:KERNEL32.dll
 0002:00000198       __imp_HeapReAlloc          00000001800b7198     kernel32:KERNEL32.dll
 0002:000001a0       __imp_GetCurrentThread     00000001800b71a0     kernel32:KERNEL32.dll
 0002:000001a8       __imp_HeapQueryInformation 00000001800b71a8     kernel32:KERNEL32.dll
 0002:000001b0       __imp_GetStdHandle         00000001800b71b0     kernel32:KERNEL32.dll
 0002:000001b8       __imp_GetFileType          00000001800b71b8     kernel32:KERNEL32.dll
 0002:000001c0       __imp_WriteFile            00000001800b71c0     kernel32:KERNEL32.dll
 0002:000001c8       __imp_OutputDebugStringW   00000001800b71c8     kernel32:KERNEL32.dll
 0002:000001d0       __imp_WriteConsoleW        00000001800b71d0     kernel32:KERNEL32.dll
 0002:000001d8       __imp_SetConsoleCtrlHandler 00000001800b71d8     kernel32:KERNEL32.dll
 0002:000001e0       __imp_FindClose            00000001800b71e0     kernel32:KERNEL32.dll
 0002:000001e8       __imp_FindFirstFileExW     00000001800b71e8     kernel32:KERNEL32.dll
 0002:000001f0       __imp_FindNextFileW        00000001800b71f0     kernel32:KERNEL32.dll
 0002:000001f8       __imp_IsValidCodePage      00000001800b71f8     kernel32:KERNEL32.dll
 0002:00000200       __imp_GetACP               00000001800b7200     kernel32:KERNEL32.dll
 0002:00000208       __imp_GetOEMCP             00000001800b7208     kernel32:KERNEL32.dll
 0002:00000210       __imp_GetCPInfo            00000001800b7210     kernel32:KERNEL32.dll
 0002:00000218       __imp_GetCommandLineA      00000001800b7218     kernel32:KERNEL32.dll
 0002:00000220       __imp_GetCommandLineW      00000001800b7220     kernel32:KERNEL32.dll
 0002:00000228       __imp_GetEnvironmentStringsW 00000001800b7228     kernel32:KERNEL32.dll
 0002:00000230       __imp_FreeEnvironmentStringsW 00000001800b7230     kernel32:KERNEL32.dll
 0002:00000238       __imp_SetEnvironmentVariableW 00000001800b7238     kernel32:KERNEL32.dll
 0002:00000240       __imp_GetTempPathW         00000001800b7240     kernel32:KERNEL32.dll
 0002:00000248       __imp_FlsAlloc             00000001800b7248     kernel32:KERNEL32.dll
 0002:00000250       __imp_FlsGetValue          00000001800b7250     kernel32:KERNEL32.dll
 0002:00000258       __imp_FlsSetValue          00000001800b7258     kernel32:KERNEL32.dll
 0002:00000260       __imp_FlsFree              00000001800b7260     kernel32:KERNEL32.dll
 0002:00000268       __imp_IsThreadAFiber       00000001800b7268     kernel32:KERNEL32.dll
 0002:00000270       __imp_InitializeCriticalSectionEx 00000001800b7270     kernel32:KERNEL32.dll
 0002:00000278       __imp_GetDateFormatW       00000001800b7278     kernel32:KERNEL32.dll
 0002:00000280       __imp_GetTimeFormatW       00000001800b7280     kernel32:KERNEL32.dll
 0002:00000288       __imp_CompareStringW       00000001800b7288     kernel32:KERNEL32.dll
 0002:00000290       __imp_LCMapStringW         00000001800b7290     kernel32:KERNEL32.dll
 0002:00000298       __imp_GetLocaleInfoW       00000001800b7298     kernel32:KERNEL32.dll
 0002:000002a0       __imp_IsValidLocale        00000001800b72a0     kernel32:KERNEL32.dll
 0002:000002a8       __imp_GetUserDefaultLCID   00000001800b72a8     kernel32:KERNEL32.dll
 0002:000002b0       __imp_EnumSystemLocalesW   00000001800b72b0     kernel32:KERNEL32.dll
 0002:000002b8       __imp_GetStringTypeW       00000001800b72b8     kernel32:KERNEL32.dll
 0002:000002c0       __imp_SetStdHandle         00000001800b72c0     kernel32:KERNEL32.dll
 0002:000002c8       __imp_GetFileSizeEx        00000001800b72c8     kernel32:KERNEL32.dll
 0002:000002d0       __imp_SetFilePointerEx     00000001800b72d0     kernel32:KERNEL32.dll
 0002:000002d8       __imp_FlushFileBuffers     00000001800b72d8     kernel32:KERNEL32.dll
 0002:000002e0       __imp_GetConsoleOutputCP   00000001800b72e0     kernel32:KERNEL32.dll
 0002:000002e8       __imp_GetConsoleMode       00000001800b72e8     kernel32:KERNEL32.dll
 0002:000002f0       __imp_ReadFile             00000001800b72f0     kernel32:KERNEL32.dll
 0002:000002f8       __imp_ReadConsoleW         00000001800b72f8     kernel32:KERNEL32.dll
 0002:00000300       __imp_CloseHandle          00000001800b7300     kernel32:KERNEL32.dll
 0002:00000308       __imp_RtlUnwind            00000001800b7308     kernel32:KERNEL32.dll
 0002:00000310       \177KERNEL32_NULL_THUNK_DATA 00000001800b7310     kernel32:KERNEL32.dll
 0002:00000318       __guard_check_icall_fptr   00000001800b7318     LIBCMTD:guard_support.obj
 0002:00000320       __guard_xfg_check_icall_fptr 00000001800b7320     LIBCMTD:guard_support.obj
 0002:00000328       __guard_dispatch_icall_fptr 00000001800b7328     LIBCMTD:guard_support.obj
 0002:00000330       __guard_xfg_dispatch_icall_fptr 00000001800b7330     LIBCMTD:guard_support.obj
 0002:00000338       __guard_xfg_table_dispatch_icall_fptr 00000001800b7338     LIBCMTD:guard_support.obj
 0002:00000340       __castguard_check_failure_os_handled_fptr 00000001800b7340     LIBCMTD:guard_support.obj
 0002:00000348       __guard_memcpy_fptr        00000001800b7348     libvcruntimed:softmemtag.obj
 0002:00000350       __xc_a                     00000001800b7350     LIBCMTD:initializers.obj
 0002:00000388       __xc_z                     00000001800b7388     LIBCMTD:initializers.obj
 0002:00000390       __xi_a                     00000001800b7390     LIBCMTD:initializers.obj
 0002:00000398       __acrt_multibyte_initializer 00000001800b7398     libucrtd:multibyte_initializer.obj
 0002:000003a0       __acrt_stdio_initializer   00000001800b73a0     libucrtd:stdio_initializer.obj
 0002:000003a8       __acrt_tran_fma3_initializer 00000001800b73a8     libucrtd:fma3_initializer.obj
 0002:000003b0       __xi_z                     00000001800b73b0     LIBCMTD:initializers.obj
 0002:000003b8       __xp_a                     00000001800b73b8     LIBCMTD:initializers.obj
 0002:000003c0       __acrt_locale_terminator   00000001800b73c0     libucrtd:locale_initializer.obj
 0002:000003c8       __dcrt_console_output_terminator 00000001800b73c8     libucrtd:console_output_initializer.obj
 0002:000003d0       __acrt_stdio_terminator    00000001800b73d0     libucrtd:stdio_initializer.obj
 0002:000003d8       __xp_z                     00000001800b73d8     LIBCMTD:initializers.obj
 0002:000003e0       __xt_a                     00000001800b73e0     LIBCMTD:initializers.obj
 0002:000003e8       __xt_z                     00000001800b73e8     LIBCMTD:initializers.obj
 0002:00000410       ?g_PXSinCoefficients0@aos@physx@@3UPX_VECTORF32@12@B 00000001800b7410     Cooking.obj
 0002:00000420       ?g_PXSinCoefficients1@aos@physx@@3UPX_VECTORF32@12@B 00000001800b7420     Cooking.obj
 0002:00000430       ?g_PXSinCoefficients2@aos@physx@@3UPX_VECTORF32@12@B 00000001800b7430     Cooking.obj
 0002:00000440       ?g_PXCosCoefficients0@aos@physx@@3UPX_VECTORF32@12@B 00000001800b7440     Cooking.obj
 0002:00000450       ?g_PXCosCoefficients1@aos@physx@@3UPX_VECTORF32@12@B 00000001800b7450     Cooking.obj
 0002:00000460       ?g_PXCosCoefficients2@aos@physx@@3UPX_VECTORF32@12@B 00000001800b7460     Cooking.obj
 0002:00000470       ?g_PXReciprocalTwoPi@aos@physx@@3UPX_VECTORF32@12@B 00000001800b7470     Cooking.obj
 0002:00000480       ?g_PXTwoPi@aos@physx@@3UPX_VECTORF32@12@B 00000001800b7480     Cooking.obj
 0002:00000490       ??_7PxFoundation@physx@@6B@ 00000001800b7490     Cooking.obj
 0002:00000500       ??_C@_0DN@CFJKBDEM@D?3?2GithubYas?2PhysX?2physx?2source@ 00000001800b7500     Cooking.obj
 0002:00000540       ??_C@_0BM@OIFKLHDN@?$DMallocation?5names?5disabled?$DO@ 00000001800b7540     Cooking.obj
 0002:00000560       ??_C@_0DG@EHAFIFHF@D?3?2GithubYas?2PhysX?2physx?2includ@ 00000001800b7560     Cooking.obj
 0002:00000598       ??_C@_0BM@BMFMDKFG@this?9?$DOcapacity?$CI?$CJ?5?$DM?5capacity@ 00000001800b7598     Cooking.obj
 0002:000005b8       ??_C@_0CP@CPGGIPKL@?$CI?$CBcapacity?$CJ?5?$HM?$HM?5?$CInewData?5?$CG?$CG?5?$CInew@ 00000001800b75b8     Cooking.obj
 0002:000005e8       __real@3a83126f            00000001800b75e8     Cooking.obj
 0002:000005ec       __real@ba83126f            00000001800b75ec     Cooking.obj
 0002:000005f0       ??_C@_0BA@EGLNOO@PhysXFoundation@ 00000001800b75f0     WindowsCookingDelayLoadHook.obj
 0002:00000600       ??_C@_0M@ILKNCJKN@PhysXCommon@ 00000001800b7600     WindowsCookingDelayLoadHook.obj
 0002:00000610       __sz_PhysXCommon_64_dll    00000001800b7610     PhysXCommon_64:PhysXCommon_64.dll
 0002:00000630       __sz_PhysXFoundation_64_dll 00000001800b7630     PhysXFoundation_64:PhysXFoundation_64.dll
 0002:00000648       ??_C@_1BK@DBDEIDLH@?$AAK?$AAE?$AAR?$AAN?$AAE?$AAL?$AA3?$AA2?$AA?4?$AAD?$AAL?$AAL@ 00000001800b7648     Delayimp:delayhlp.obj
 0002:00000668       ??_C@_0BI@OMNLIJDB@AcquireSRWLockExclusive@ 00000001800b7668     Delayimp:delayhlp.obj
 0002:00000680       ??_C@_0BI@HMIEPCNJ@ReleaseSRWLockExclusive@ 00000001800b7680     Delayimp:delayhlp.obj
 0002:00000698       __pfnDliFailureHook2       00000001800b7698     Delayimp:delayhk1.obj
 0002:000006a0       __bChangeProtectionOfWholeDloadSection 00000001800b76a0     Delayimp:delaygv1.obj
 0002:000006b0       ??_7type_info@@6B@         00000001800b76b0     LIBCMTD:std_type_info_static.obj
 0002:000006b8       _pDefaultRawDllMain        00000001800b76b8     LIBCMTD:dll_dllmain.obj
 0002:000006b8       _pRawDllMain               00000001800b76b8     LIBCMTD:dll_dllmain.obj
 0002:000006c0       _load_config_used          00000001800b76c0     LIBCMTD:loadcfg.obj
 0002:00000828       ??_C@_0BJ@HEGAHDFO@Stack?5pointer?5corruption@ 00000001800b7828     LIBCMTD:userapi.obj
 0002:00000848       ??_C@_0CK@FEGOIOPB@Cast?5to?5smaller?5type?5causing?5lo@ 00000001800b7848     LIBCMTD:userapi.obj
 0002:00000878       ??_C@_0BI@CIGMDCBH@Stack?5memory?5corruption@ 00000001800b7878     LIBCMTD:userapi.obj
 0002:00000890       ??_C@_0CK@CNLNOEPB@Local?5variable?5used?5before?5init@ 00000001800b7890     LIBCMTD:userapi.obj
 0002:000008c0       ??_C@_0BP@OGBCLIBO@Stack?5around?5_alloca?5corrupted@ 00000001800b78c0     LIBCMTD:userapi.obj
 0002:000009a0       ??_C@_0NN@JMPELKLB@The?5value?5of?5ESP?5was?5not?5proper@ 00000001800b79a0     LIBCMTD:error.obj
 0002:00000a80       ??_C@_0BBN@ELNNILBE@A?5cast?5to?5a?5smaller?5data?5type?5h@ 00000001800b7a80     LIBCMTD:error.obj
 0002:00000ba0       ??_C@_0BN@BPOGFMJL@Stack?5memory?5was?5corrupted?$AN?6@ 00000001800b7ba0     LIBCMTD:error.obj
 0002:00000bc0       ??_C@_0DG@DAJCDLPN@A?5local?5variable?5was?5used?5befor@ 00000001800b7bc0     LIBCMTD:error.obj
 0002:00000bf8       ??_C@_0CM@JMIDGKLA@Stack?5memory?5around?5_alloca?5was@ 00000001800b7bf8     LIBCMTD:error.obj
 0002:00000c28       ??_C@_0BO@CHIONIOI@Unknown?5Runtime?5Check?5Error?$AN?6@ 00000001800b7c28     LIBCMTD:error.obj
 0002:00000c50       ??_C@_1GM@CNOOJIHC@?$AAR?$AAu?$AAn?$AAt?$AAi?$AAm?$AAe?$AA?5?$AAC?$AAh?$AAe?$AAc?$AAk?$AA?5?$AAE@ 00000001800b7c50     LIBCMTD:error.obj
 0002:00000cc0       ??_C@_1EA@NFKNIFJP@?$AAR?$AAu?$AAn?$AA?9?$AAT?$AAi?$AAm?$AAe?$AA?5?$AAC?$AAh?$AAe?$AAc?$AAk?$AA?5@ 00000001800b7cc0     LIBCMTD:error.obj
 0002:00000d00       ??_C@_0BB@PFFGGCJP@Unknown?5Filename@ 00000001800b7d00     LIBCMTD:error.obj
 0002:00000d18       ??_C@_0BE@GNBOBNCK@Unknown?5Module?5Name@ 00000001800b7d18     LIBCMTD:error.obj
 0002:00000d30       ??_C@_0CA@IODNCDPG@Run?9Time?5Check?5Failure?5?$CD?$CFd?5?9?5?$CFs@ 00000001800b7d30     LIBCMTD:error.obj
 0002:00000d50       ??_C@_0CG@IAFNJNEE@Stack?5corrupted?5near?5unknown?5va@ 00000001800b7d50     LIBCMTD:error.obj
 0002:00000d78       ??_C@_05MKKEDADM@?$CF?42X?5@ 00000001800b7d78     LIBCMTD:error.obj
 0002:00000d80       ??_C@_0EJ@LJKNEOLN@Stack?5area?5around?5_alloca?5memor@ 00000001800b7d80     LIBCMTD:error.obj
 0002:00000dcc       ??_C@_01EEMJAFIK@?6@       00000001800b7dcc     LIBCMTD:error.obj
 0002:00000dd0       ??_C@_02LLMPMKNF@?$DO?5@   00000001800b7dd0     LIBCMTD:error.obj
 0002:00000dd8       ??_C@_08OMAHNMHJ@?6Data?3?5?$DM@ 00000001800b7dd8     LIBCMTD:error.obj
 0002:00000de8       ??_C@_0CK@DKGBICFE@?6Allocation?5number?5within?5this?5@ 00000001800b7de8     LIBCMTD:error.obj
 0002:00000e18       ??_C@_07DFDJCKFN@?6Size?3?5@ 00000001800b7e18     LIBCMTD:error.obj
 0002:00000e20       ??_C@_0N@MHFFIMFG@?6Address?3?50x@ 00000001800b7e20     LIBCMTD:error.obj
 0002:00000e30       ??_C@_0EI@CLEPFNGI@Stack?5area?5around?5_alloca?5memor@ 00000001800b7e30     LIBCMTD:error.obj
 0002:00000e78       ??_C@_0BK@ODNDAGKB@?$CFs?$CFs?$CFp?$CFs?$CFzd?$CFs?$CFd?$CFs?$CFs?$CFs?$CFs?$CFs@ 00000001800b7e78     LIBCMTD:error.obj
 0002:00000e98       ??_C@_0DE@OHJBPMBP@A?5variable?5is?5being?5used?5withou@ 00000001800b7e98     LIBCMTD:error.obj
 0002:00000f30       ??_C@_1EI@MLPKHBGE@?$AAa?$AAp?$AAi?$AA?9?$AAm?$AAs?$AA?9?$AAw?$AAi?$AAn?$AA?9?$AAc?$AAo?$AAr?$AAe@ 00000001800b7f30     LIBCMTD:pdblkup.obj
 0002:00000f78       ??_C@_1BK@JHLNAEJL@?$AAa?$AAd?$AAv?$AAa?$AAp?$AAi?$AA3?$AA2?$AA?4?$AAd?$AAl?$AAl@ 00000001800b7f78     LIBCMTD:pdblkup.obj
 0002:00000f98       ??_C@_0O@COHOBMLB@RegOpenKeyExW@ 00000001800b7f98     LIBCMTD:pdblkup.obj
 0002:00000fa8       ??_C@_0BB@GLNAEDBD@RegQueryValueExW@ 00000001800b7fa8     LIBCMTD:pdblkup.obj
 0002:00000fc0       ??_C@_0M@HLOHPNFA@RegCloseKey@ 00000001800b7fc0     LIBCMTD:pdblkup.obj
 0002:00000fd0       ??_C@_1HE@EBEAGLFB@?$AAS?$AAO?$AAF?$AAT?$AAW?$AAA?$AAR?$AAE?$AA?2?$AAW?$AAo?$AAw?$AA6?$AA4?$AA3@ 00000001800b7fd0     LIBCMTD:pdblkup.obj
 0002:00001048       ??_C@_1BG@EABPBLLF@?$AAP?$AAr?$AAo?$AAd?$AAu?$AAc?$AAt?$AAD?$AAi?$AAr@ 00000001800b8048     LIBCMTD:pdblkup.obj
 0002:00001080       ??_C@_1BC@JINFINNJ@?$AAM?$AAS?$AAP?$AAD?$AAB?$AA1?$AA4?$AA0@ 00000001800b8080     LIBCMTD:pdblkup.obj
 0002:00001098       ??_C@_0BB@KCIACLNC@PDBOpenValidate5@ 00000001800b8098     LIBCMTD:pdblkup.obj
 0002:000010ac       ??_C@_01KDCPPGHE@r@        00000001800b80ac     LIBCMTD:pdblkup.obj
 0002:000010c0       ??_C@_0EC@CDJPIOJK@D?3?2a?2_work?21?2s?2src?2vctools?2crt?2@ 00000001800b80c0     libvcruntimed:std_type_info.obj
 0002:00001110       __xmm@00000000000000000000000000000000 00000001800b8110     libvcruntimed:strstr.obj
 0002:00001120       _pDestructExceptionObject  00000001800b8120     libvcruntimed:ehhelpers.obj
 0002:00001840       ??_C@_08EHJDFFNH@__based?$CI@ 00000001800b8840     libvcruntimed:undname.obj
 0002:00001850       ??_C@_07KOLFKCDI@__cdecl@  00000001800b8850     libvcruntimed:undname.obj
 0002:00001858       ??_C@_09IFJBGAPI@__stdcall@ 00000001800b8858     libvcruntimed:undname.obj
 0002:00001868       ??_C@_0L@NPHFGOKO@__thiscall@ 00000001800b8868     libvcruntimed:undname.obj
 0002:00001878       ??_C@_0L@JMKHOMEK@__fastcall@ 00000001800b8878     libvcruntimed:undname.obj
 0002:00001888       ??_C@_0N@BCKKPABJ@__vectorcall@ 00000001800b8888     libvcruntimed:undname.obj
 0002:00001898       ??_C@_0BA@NAGGFLJK@__preserve_none@ 00000001800b8898     libvcruntimed:undname.obj
 0002:000018a8       ??_C@_09HIJEGCPM@__clrcall@ 00000001800b88a8     libvcruntimed:undname.obj
 0002:000018b4       ??_C@_06GHPCKEAG@__eabi@   00000001800b88b4     libvcruntimed:undname.obj
 0002:000018c0       ??_C@_09IOPIDJLG@__swift_1@ 00000001800b88c0     libvcruntimed:undname.obj
 0002:000018d0       ??_C@_09KFNFGKHF@__swift_2@ 00000001800b88d0     libvcruntimed:undname.obj
 0002:000018e0       ??_C@_09LMMOFLDE@__swift_3@ 00000001800b88e0     libvcruntimed:undname.obj
 0002:000018f0       ??_C@_07JOMMBBKO@__ptr64@  00000001800b88f0     libvcruntimed:undname.obj
 0002:000018f8       ??_C@_0L@PILCLIHE@__restrict@ 00000001800b88f8     libvcruntimed:undname.obj
 0002:00001908       ??_C@_0M@GFIIJFMG@__unaligned@ 00000001800b8908     libvcruntimed:undname.obj
 0002:00001918       ??_C@_09DHDLOLLB@restrict?$CI@ 00000001800b8918     libvcruntimed:undname.obj
 0002:00001922       ??_C@_00CNPNBAHC@@         00000001800b8922     libvcruntimed:undname.obj
 0002:00001924       ??_C@_04NIHEBCM@?5new@     00000001800b8924     libvcruntimed:undname.obj
 0002:00001930       ??_C@_07FPCDHGMM@?5delete@ 00000001800b8930     libvcruntimed:undname.obj
 0002:00001938       ??_C@_01NEMOKFLO@?$DN@     00000001800b8938     libvcruntimed:undname.obj
 0002:0000193c       ??_C@_02GPIOPFAK@?$DO?$DO@ 00000001800b893c     libvcruntimed:undname.obj
 0002:00001940       ??_C@_02FODMEDOG@?$DM?$DM@ 00000001800b8940     libvcruntimed:undname.obj
 0002:00001944       ??_C@_01DCLJPIOD@?$CB@     00000001800b8944     libvcruntimed:undname.obj
 0002:00001948       ??_C@_02EGOFBIJA@?$DN?$DN@ 00000001800b8948     libvcruntimed:undname.obj
 0002:0000194c       ??_C@_02FDNJECIE@?$CB?$DN@ 00000001800b894c     libvcruntimed:undname.obj
 0002:00001950       ??_C@_02GPECMEKF@?$FL?$FN@ 00000001800b8950     libvcruntimed:undname.obj
 0002:00001958       ??_C@_08LHJFAFGD@operator@ 00000001800b8958     libvcruntimed:undname.obj
 0002:00001964       ??_C@_02HBOOOICD@?9?$DO@   00000001800b8964     libvcruntimed:undname.obj
 0002:00001968       ??_C@_01NBENCBCI@?$CK@     00000001800b8968     libvcruntimed:undname.obj
 0002:0000196c       ??_C@_02ECNGHCIF@?$CL?$CL@ 00000001800b896c     libvcruntimed:undname.obj
 0002:00001970       ??_C@_02BAABKJLB@?9?9@     00000001800b8970     libvcruntimed:undname.obj
 0002:00001974       ??_C@_01JOAMLHOP@?9@       00000001800b8974     libvcruntimed:undname.obj
 0002:00001978       ??_C@_01MIFGBAGJ@?$CL@     00000001800b8978     libvcruntimed:undname.obj
 0002:0000197c       ??_C@_01HNPIGOCE@?$CG@     00000001800b897c     libvcruntimed:undname.obj
 0002:00001980       ??_C@_03MNHNFDLC@?9?$DO?$CK@ 00000001800b8980     libvcruntimed:undname.obj
 0002:00001984       ??_C@_01KMDKNFGN@?1@       00000001800b8984     libvcruntimed:undname.obj
 0002:00001988       ??_C@_01FGNFDNOH@?$CF@     00000001800b8988     libvcruntimed:undname.obj
 0002:0000198c       ??_C@_01MNNFJEPP@?$DM@     00000001800b898c     libvcruntimed:undname.obj
 0002:00001990       ??_C@_02EHCHHCKH@?$DM?$DN@ 00000001800b8990     libvcruntimed:undname.obj
 0002:00001994       ??_C@_01PPODPGHN@?$DO@     00000001800b8994     libvcruntimed:undname.obj
 0002:00001998       ??_C@_02EEKDKGMJ@?$DO?$DN@ 00000001800b8998     libvcruntimed:undname.obj
 0002:0000199c       ??_C@_01IHBHIGKO@?0@       00000001800b899c     libvcruntimed:undname.obj
 0002:000019a0       ??_C@_02HCKGKOFO@?$CI?$CJ@ 00000001800b89a0     libvcruntimed:undname.obj
 0002:000019a4       ??_C@_01PJKLJHI@?$HO@      00000001800b89a4     libvcruntimed:undname.obj
 0002:000019a8       ??_C@_01JKBOJNNK@?$FO@     00000001800b89a8     libvcruntimed:undname.obj
 0002:000019ac       ??_C@_01DNKMNLPK@?$HM@     00000001800b89ac     libvcruntimed:undname.obj
 0002:000019b0       ??_C@_02PPKAJPJL@?$CG?$CG@ 00000001800b89b0     libvcruntimed:undname.obj
 0002:000019b4       ??_C@_02NONPIBCD@?$HM?$HM@ 00000001800b89b4     libvcruntimed:undname.obj
 0002:000019b8       ??_C@_02FPIMKNGF@?$CK?$DN@ 00000001800b89b8     libvcruntimed:undname.obj
 0002:000019bc       ??_C@_02FOEOMHFC@?$CL?$DN@ 00000001800b89bc     libvcruntimed:undname.obj
 0002:000019c0       ??_C@_02FKMDLLOA@?9?$DN@   00000001800b89c0     libvcruntimed:undname.obj
 0002:000019c4       ??_C@_02FJEHGPIO@?1?$DN@   00000001800b89c4     libvcruntimed:undname.obj
 0002:000019c8       ??_C@_02FENAOKFI@?$CF?$DN@ 00000001800b89c8     libvcruntimed:undname.obj
 0002:000019cc       ??_C@_03IKFCCPFF@?$DO?$DO?$DN@ 00000001800b89cc     libvcruntimed:undname.obj
 0002:000019d0       ??_C@_03CDNPDDLA@?$DM?$DM?$DN@ 00000001800b89d0     libvcruntimed:undname.obj
 0002:000019d4       ??_C@_02FGJGFEAB@?$CG?$DN@ 00000001800b89d4     libvcruntimed:undname.obj
 0002:000019d8       ??_C@_02DHLNPPGH@?$HM?$DN@ 00000001800b89d8     libvcruntimed:undname.obj
 0002:000019dc       ??_C@_02MHEGNOJ@?$FO?$DN@  00000001800b89dc     libvcruntimed:undname.obj
 0002:000019e0       ??_C@_09IFPLHPGF@?$GAvftable?8@ 00000001800b89e0     libvcruntimed:undname.obj
 0002:000019f0       ??_C@_09BLBHBJP@?$GAvbtable?8@ 00000001800b89f0     libvcruntimed:undname.obj
 0002:00001a00       ??_C@_07FEEIOKP@?$GAvcall?8@ 00000001800b8a00     libvcruntimed:undname.obj
 0002:00001a08       ??_C@_08LLFFHHDJ@?$GAtypeof?8@ 00000001800b8a08     libvcruntimed:undname.obj
 0002:00001a18       ??_C@_0BF@KDPPACIK@?$GAlocal?5static?5guard?8@ 00000001800b8a18     libvcruntimed:undname.obj
 0002:00001a30       ??_C@_08OBABFOLI@?$GAstring?8@ 00000001800b8a30     libvcruntimed:undname.obj
 0002:00001a40       ??_C@_0BD@JDLKDPAB@?$GAvbase?5destructor?8@ 00000001800b8a40     libvcruntimed:undname.obj
 0002:00001a58       ??_C@_0BN@DEGPLNFK@?$GAvector?5deleting?5destructor?8@ 00000001800b8a58     libvcruntimed:undname.obj
 0002:00001a78       ??_C@_0BO@OBMKPJIG@?$GAdefault?5constructor?5closure?8@ 00000001800b8a78     libvcruntimed:undname.obj
 0002:00001a98       ??_C@_0BN@IMDCHIKM@?$GAscalar?5deleting?5destructor?8@ 00000001800b8a98     libvcruntimed:undname.obj
 0002:00001ab8       ??_C@_0BO@PFGOCPJJ@?$GAvector?5constructor?5iterator?8@ 00000001800b8ab8     libvcruntimed:undname.obj
 0002:00001ad8       ??_C@_0BN@LFPFMEDL@?$GAvector?5destructor?5iterator?8@ 00000001800b8ad8     libvcruntimed:undname.obj
 0002:00001af8       ??_C@_0CE@IKBNEHA@?$GAvector?5vbase?5constructor?5itera@ 00000001800b8af8     libvcruntimed:undname.obj
 0002:00001b20       ??_C@_0BL@NILFHHPC@?$GAvirtual?5displacement?5map?8@ 00000001800b8b20     libvcruntimed:undname.obj
 0002:00001b40       ??_C@_0CB@JONCMFFK@?$GAeh?5vector?5constructor?5iterator@ 00000001800b8b40     libvcruntimed:undname.obj
 0002:00001b68       ??_C@_0CA@GCEOPDGL@?$GAeh?5vector?5destructor?5iterator?8@ 00000001800b8b68     libvcruntimed:undname.obj
 0002:00001b88       ??_C@_0CH@OOJPLCPH@?$GAeh?5vector?5vbase?5constructor?5it@ 00000001800b8b88     libvcruntimed:undname.obj
 0002:00001bb0       ??_C@_0BL@LLKPOHJI@?$GAcopy?5constructor?5closure?8@ 00000001800b8bb0     libvcruntimed:undname.obj
 0002:00001bd0       ??_C@_0BA@KBCDOMBN@?$GAudt?5returning?8@ 00000001800b8bd0     libvcruntimed:undname.obj
 0002:00001be0       ??_C@_03KLGMFNMG@?$GAEH@   00000001800b8be0     libvcruntimed:undname.obj
 0002:00001be4       ??_C@_05KHLCHHI@?$GARTTI@  00000001800b8be4     libvcruntimed:undname.obj
 0002:00001bf0       ??_C@_0BA@KKLDJDLB@?$GAlocal?5vftable?8@ 00000001800b8bf0     libvcruntimed:undname.obj
 0002:00001c00       ??_C@_0CE@IIHCMGGL@?$GAlocal?5vftable?5constructor?5clos@ 00000001800b8c00     libvcruntimed:undname.obj
 0002:00001c24       ??_C@_06FHBGPFGH@?5new?$FL?$FN@ 00000001800b8c24     libvcruntimed:undname.obj
 0002:00001c30       ??_C@_09LBNFPBCA@?5delete?$FL?$FN@ 00000001800b8c30     libvcruntimed:undname.obj
 0002:00001c40       ??_C@_0P@HJKNJFNN@?$GAomni?5callsig?8@ 00000001800b8c40     libvcruntimed:undname.obj
 0002:00001c50       ??_C@_0BL@CNOONJFP@?$GAplacement?5delete?5closure?8@ 00000001800b8c50     libvcruntimed:undname.obj
 0002:00001c70       ??_C@_0BN@CKNJLHMB@?$GAplacement?5delete?$FL?$FN?5closure?8@ 00000001800b8c70     libvcruntimed:undname.obj
 0002:00001c90       ??_C@_0CG@CFDHKGGD@?$GAmanaged?5vector?5constructor?5ite@ 00000001800b8c90     libvcruntimed:undname.obj
 0002:00001cb8       ??_C@_0CF@IMGKMJNO@?$GAmanaged?5vector?5destructor?5iter@ 00000001800b8cb8     libvcruntimed:undname.obj
 0002:00001ce0       ??_C@_0CG@HLDDJMAG@?$GAeh?5vector?5copy?5constructor?5ite@ 00000001800b8ce0     libvcruntimed:undname.obj
 0002:00001d08       ??_C@_0CM@FCBBDIGB@?$GAeh?5vector?5vbase?5copy?5construct@ 00000001800b8d08     libvcruntimed:undname.obj
 0002:00001d38       ??_C@_0BL@CLIPGLGB@?$GAdynamic?5initializer?5for?5?8@ 00000001800b8d38     libvcruntimed:undname.obj
 0002:00001d58       ??_C@_0CB@PDBIFEP@?$GAdynamic?5atexit?5destructor?5for?5@ 00000001800b8d58     libvcruntimed:undname.obj
 0002:00001d80       ??_C@_0CD@CGAJBKEJ@?$GAvector?5copy?5constructor?5iterat@ 00000001800b8d80     libvcruntimed:undname.obj
 0002:00001da8       ??_C@_0CJ@GJELGAMM@?$GAvector?5vbase?5copy?5constructor?5@ 00000001800b8da8     libvcruntimed:undname.obj
 0002:00001dd8       ??_C@_0CL@FGIJHLCE@?$GAmanaged?5vector?5copy?5constructo@ 00000001800b8dd8     libvcruntimed:undname.obj
 0002:00001e08       ??_C@_0BM@PMGGMLDN@?$GAlocal?5static?5thread?5guard?8@ 00000001800b8e08     libvcruntimed:undname.obj
 0002:00001e28       ??_C@_0N@BDNMDMOL@operator?5?$CC?$CC?5@ 00000001800b8e28     libvcruntimed:undname.obj
 0002:00001e38       ??_C@_0BC@GGEBGALA@operator?5co_await@ 00000001800b8e38     libvcruntimed:undname.obj
 0002:00001e50       ??_C@_0M@GAAIMMOH@operator?$DM?$DN?$DO@ 00000001800b8e50     libvcruntimed:undname.obj
 0002:00001e60       ??_C@_0BC@DAFEJGAK@?5Type?5Descriptor?8@ 00000001800b8e60     libvcruntimed:undname.obj
 0002:00001e78       ??_C@_0BM@LDKODKLH@?5Base?5Class?5Descriptor?5at?5?$CI@ 00000001800b8e78     libvcruntimed:undname.obj
 0002:00001e98       ??_C@_0BD@LGICGFMM@?5Base?5Class?5Array?8@ 00000001800b8e98     libvcruntimed:undname.obj
 0002:00001eb0       ??_C@_0BN@MECKDCOJ@?5Class?5Hierarchy?5Descriptor?8@ 00000001800b8eb0     libvcruntimed:undname.obj
 0002:00001ed0       ??_C@_0BK@CFCOFLF@?5Complete?5Object?5Locator?8@ 00000001800b8ed0     libvcruntimed:undname.obj
 0002:00001ef0       ??_C@_0BG@JNJLAMPM@?$GAanonymous?5namespace?8@ 00000001800b8ef0     libvcruntimed:undname.obj
 0002:00001f06       ?in_place@std@@3Uin_place_t@1@B 00000001800b8f06     libvcruntimed:undname.obj
 0002:00001f08       ??_C@_04HEJADOOB@CV?3?5@   00000001800b8f08     libvcruntimed:undname.obj
 0002:00001f10       ??_C@_03GDILBHBJ@$$h@      00000001800b8f10     libvcruntimed:undname.obj
 0002:00001f14       ??_C@_02MOLJINC@?3?3@      00000001800b8f14     libvcruntimed:undname.obj
 0002:00001f18       ??_C@_0BE@JAEOCHPE@template?9parameter?9@ 00000001800b8f18     libvcruntimed:undname.obj
 0002:00001f30       ??_C@_0BF@LNLGBBNL@?$GAtemplate?9parameter?9@ 00000001800b8f30     libvcruntimed:undname.obj
 0002:00001f48       ??_C@_0O@KHGCOMHP@generic?9type?9@ 00000001800b8f48     libvcruntimed:undname.obj
 0002:00001f58       ??_C@_0P@ODDENDLM@?$GAgeneric?9type?9@ 00000001800b8f58     libvcruntimed:undname.obj
 0002:00001f68       ??_C@_02OHHJMEON@?8?8@     00000001800b8f68     libvcruntimed:undname.obj
 0002:00001f70       ??_C@_0BN@IBLMMFAP@?$GAnon?9type?9template?9parameter@ 00000001800b8f70     libvcruntimed:undname.obj
 0002:00001f90       ??_C@_03DLDNIBIK@?$CFlf@   00000001800b8f90     libvcruntimed:undname.obj
 0002:00001f94       ??_C@_04OFALKAJ@?$DP?$DP_C@ 00000001800b8f94     libvcruntimed:undname.obj
 0002:00001f9c       ??_C@_03KHICJKCI@?4?4?4@   00000001800b8f9c     libvcruntimed:undname.obj
 0002:00001fa0       ??_C@_04HIBGFPH@NULL@      00000001800b8fa0     libvcruntimed:undname.obj
 0002:00001fa8       ??_C@_02DPKJAMEF@?$CFd@    00000001800b8fa8     libvcruntimed:undname.obj
 0002:00001fb0       ??_C@_0BK@IHCCFNEL@?$GAtemplate?9type?9parameter?9@ 00000001800b8fb0     libvcruntimed:undname.obj
 0002:00001fd0       ??_C@_0BK@OFCNNNKO@?$GAgeneric?9class?9parameter?9@ 00000001800b8fd0     libvcruntimed:undname.obj
 0002:00001ff0       ??_C@_0BL@NGJBLFIL@?$GAgeneric?9method?9parameter?9@ 00000001800b8ff0     libvcruntimed:undname.obj
 0002:00002010       ??_C@_07OHNGEDJK@nullptr@  00000001800b9010     libvcruntimed:undname.obj
 0002:00002018       ??_C@_06COJIGPIB@lambda@   00000001800b9018     libvcruntimed:undname.obj
 0002:00002020       ??_C@_04GKJNKENE@void@     00000001800b9020     libvcruntimed:undname.obj
 0002:00002028       ??_C@_0BE@EODMJLIF@?$GAtemplate?9parameter@ 00000001800b9028     libvcruntimed:undname.obj
 0002:0000203c       ??_C@_03OPGICMGF@?$HN?8?5@ 00000001800b903c     libvcruntimed:undname.obj
 0002:00002040       ??_C@_02IGFCGPIL@?$HN?8@   00000001800b9040     libvcruntimed:undname.obj
 0002:00002048       ??_C@_0N@CBHHHENL@?$GAvtordispex?$HL@ 00000001800b9048     libvcruntimed:undname.obj
 0002:00002058       ??_C@_0L@GHPFDFH@?$GAvtordisp?$HL@ 00000001800b9058     libvcruntimed:undname.obj
 0002:00002068       ??_C@_0L@HNGCOGAE@?$GAadjustor?$HL@ 00000001800b9068     libvcruntimed:undname.obj
 0002:00002078       ??_C@_0CB@KJDOOODE@?$GAlocal?5static?5destructor?5helper@ 00000001800b9078     libvcruntimed:undname.obj
 0002:000020a0       ??_C@_0DB@ILEFOCIJ@?$GAtemplate?5static?5data?5member?5co@ 00000001800b90a0     libvcruntimed:undname.obj
 0002:000020d8       ??_C@_0DA@HGFJFBBE@?$GAtemplate?5static?5data?5member?5de@ 00000001800b90d8     libvcruntimed:undname.obj
 0002:00002108       ??_C@_07PGOEDBHP@static?5@ 00000001800b9108     libvcruntimed:undname.obj
 0002:00002110       ??_C@_08NIEOINHE@virtual?5@ 00000001800b9110     libvcruntimed:undname.obj
 0002:00002120       ??_C@_09LAPHOOG@private?3?5@ 00000001800b9120     libvcruntimed:undname.obj
 0002:00002130       ??_C@_0M@GAIFPFIP@protected?3?5@ 00000001800b9130     libvcruntimed:undname.obj
 0002:00002140       ??_C@_08GPDDCMKI@public?3?5@ 00000001800b9140     libvcruntimed:undname.obj
 0002:00002150       ??_C@_08KJLFOPNE@?$FLthunk?$FN?3@ 00000001800b9150     libvcruntimed:undname.obj
 0002:00002160       ??_C@_0M@DHNBOJMP@extern?5?$CCC?$CC?5@ 00000001800b9160     libvcruntimed:undname.obj
 0002:0000216c       ??_C@_02KCKGHPCA@?$CJ?5@   00000001800b916c     libvcruntimed:undname.obj
 0002:00002170       ??_C@_05CIHEBHNO@char?5@   00000001800b9170     libvcruntimed:undname.obj
 0002:00002178       ??_C@_06EHJMALKF@short?5@  00000001800b9178     libvcruntimed:undname.obj
 0002:00002180       ??_C@_04LAHKHJMA@int?5@    00000001800b9180     libvcruntimed:undname.obj
 0002:00002188       ??_C@_05CJIMAING@long?5@   00000001800b9188     libvcruntimed:undname.obj
 0002:00002190       ??_C@_09EBBEKKIH@unsigned?5@ 00000001800b9190     libvcruntimed:undname.obj
 0002:0000219c       ??_C@_05BEFAKPML@void?5@   00000001800b919c     libvcruntimed:undname.obj
 0002:000021a8       ??_C@_09GAIEOBLP@volatile?5@ 00000001800b91a8     libvcruntimed:undname.obj
 0002:000021b8       ??_C@_08PABEKFH@volatile@  00000001800b91b8     libvcruntimed:undname.obj
 0002:000021c8       ??_C@_0BA@LKIJLKPP@std?3?3nullptr_t?5@ 00000001800b91c8     libvcruntimed:undname.obj
 0002:000021d8       ??_C@_0P@GCOCNKDM@std?3?3nullptr_t@ 00000001800b91d8     libvcruntimed:undname.obj
 0002:000021e8       ??_C@_0L@EGPHHEKN@?$DMellipsis?$DO@ 00000001800b91e8     libvcruntimed:undname.obj
 0002:000021f4       ??_C@_04EENFHACM@?0?4?4?4@ 00000001800b91f4     libvcruntimed:undname.obj
 0002:00002200       ??_C@_0M@ELJOJFFH@?0?$DMellipsis?$DO@ 00000001800b9200     libvcruntimed:undname.obj
 0002:00002210       ??_C@_09DNHFEOJI@?5noexcept@ 00000001800b9210     libvcruntimed:undname.obj
 0002:0000221c       ??_C@_03PBJBJNON@cpu@      00000001800b921c     libvcruntimed:undname.obj
 0002:00002220       ??_C@_03DCBBJBAA@amp@      00000001800b9220     libvcruntimed:undname.obj
 0002:00002224       ??_C@_02KEGNLNML@?0?5@     00000001800b9224     libvcruntimed:undname.obj
 0002:00002228       ??_C@_04ENMBGAPA@char@     00000001800b9228     libvcruntimed:undname.obj
 0002:00002230       ??_C@_05BFKKPKCG@short@    00000001800b9230     libvcruntimed:undname.obj
 0002:00002238       ??_C@_03JBIPMCLC@int@      00000001800b9238     libvcruntimed:undname.obj
 0002:0000223c       ??_C@_04GOKPGOLB@long@     00000001800b923c     libvcruntimed:undname.obj
 0002:00002244       ??_C@_05KNFBNCOH@float@    00000001800b9244     libvcruntimed:undname.obj
 0002:0000224c       ??_C@_06BNJCAIGJ@double@   00000001800b924c     libvcruntimed:undname.obj
 0002:00002254       ??_C@_04DDKJGDCM@bool@     00000001800b9254     libvcruntimed:undname.obj
 0002:0000225c       ??_C@_06EBGKOKIG@__int8@   00000001800b925c     libvcruntimed:undname.obj
 0002:00002268       ??_C@_07ICFHOGAF@__int16@  00000001800b9268     libvcruntimed:undname.obj
 0002:00002270       ??_C@_07OFLPPHGP@__int32@  00000001800b9270     libvcruntimed:undname.obj
 0002:00002278       ??_C@_07LFCOJCAC@__int64@  00000001800b9278     libvcruntimed:undname.obj
 0002:00002280       ??_C@_08GAHOLHEO@__int128@ 00000001800b9280     libvcruntimed:undname.obj
 0002:00002290       ??_C@_09EEKGDCPH@?$DMunknown?$DO@ 00000001800b9290     libvcruntimed:undname.obj
 0002:000022a0       ??_C@_07CFHGOPCN@char8_t@  00000001800b92a0     libvcruntimed:undname.obj
 0002:000022a8       ??_C@_08HBIPOFJB@char16_t@ 00000001800b92a8     libvcruntimed:undname.obj
 0002:000022b8       ??_C@_08IECNCBKG@char32_t@ 00000001800b92b8     libvcruntimed:undname.obj
 0002:000022c8       ??_C@_07CLGGIAMF@wchar_t@  00000001800b92c8     libvcruntimed:undname.obj
 0002:000022d0       ??_C@_04HAPDLBFF@auto@     00000001800b92d0     libvcruntimed:undname.obj
 0002:000022d8       ??_C@_0P@LHCGKIGK@decltype?$CIauto?$CJ@ 00000001800b92d8     libvcruntimed:undname.obj
 0002:000022e8       ??_C@_05PCNBGHCF@this?5@   00000001800b92e8     libvcruntimed:undname.obj
 0002:000022f0       ??_C@_06GCICPBLB@__w64?5@  00000001800b92f0     libvcruntimed:undname.obj
 0002:000022f8       ??_C@_07NFANNNEC@UNKNOWN@  00000001800b92f8     libvcruntimed:undname.obj
 0002:00002300       ??_C@_07EDHNAJHC@signed?5@ 00000001800b9300     libvcruntimed:undname.obj
 0002:00002308       ??_C@_05BNCCCJPP@const@    00000001800b9308     libvcruntimed:undname.obj
 0002:00002310       ??_C@_09EFNPDFFP@?5volatile@ 00000001800b9310     libvcruntimed:undname.obj
 0002:00002320       ??_C@_0P@GCIFDJCJ@?$GAunknown?5ecsu?8@ 00000001800b9320     libvcruntimed:undname.obj
 0002:00002330       ??_C@_06MOJHIBMG@union?5@  00000001800b9330     libvcruntimed:undname.obj
 0002:00002338       ??_C@_07DIBCDNGL@struct?5@ 00000001800b9338     libvcruntimed:undname.obj
 0002:00002340       ??_C@_06LJBABKPM@class?5@  00000001800b9340     libvcruntimed:undname.obj
 0002:00002348       ??_C@_08KOFANOFK@coclass?5@ 00000001800b9348     libvcruntimed:undname.obj
 0002:00002358       ??_C@_0N@DLIEFKNA@cointerface?5@ 00000001800b9358     libvcruntimed:undname.obj
 0002:00002368       ??_C@_05LJGMCFOG@enum?5@   00000001800b9368     libvcruntimed:undname.obj
 0002:00002370       ??_C@_06LIJLOJAG@const?5@  00000001800b9370     libvcruntimed:undname.obj
 0002:00002378       ??_C@_02KJPKDIBN@?$CG?5@   00000001800b9378     libvcruntimed:undname.obj
 0002:0000237c       ??_C@_03PCKGMOPB@?$CG?$CG?5@ 00000001800b937c     libvcruntimed:undname.obj
 0002:00002380       ??_C@_0M@EALIELKG@cli?3?3array?$DM@ 00000001800b9380     libvcruntimed:undname.obj
 0002:00002390       ??_C@_0O@GKABPPIF@cli?3?3pin_ptr?$DM@ 00000001800b9390     libvcruntimed:undname.obj
 0002:000023a0       ??_C@_02GOGNNPBN@?$CJ?$FL@ 00000001800b93a0     libvcruntimed:undname.obj
 0002:000023a4       ??_C@_06EEGAIFAK@?$HLflat?$HN@ 00000001800b93a4     libvcruntimed:undname.obj
 0002:000023ac       ??_C@_05JIBOFOHK@?$HLfor?5@ 00000001800b93ac     libvcruntimed:undname.obj
 0002:000023b4       ??_C@_02MDINNEEG@s?5@      00000001800b93b4     libvcruntimed:undname.obj
 0002:000023c0       ??_7DNameNode@@6B@         00000001800b93c0     libvcruntimed:undname.obj
 0002:000023e8       ??_7charNode@@6B@          00000001800b93e8     libvcruntimed:undname.obj
 0002:00002410       ??_7pcharNode@@6B@         00000001800b9410     libvcruntimed:undname.obj
 0002:00002438       ??_7pDNameNode@@6B@        00000001800b9438     libvcruntimed:undname.obj
 0002:00002460       ??_7DNameStatusNode@@6B@   00000001800b9460     libvcruntimed:undname.obj
 0002:00002488       ??_7pairNode@@6B@          00000001800b9488     libvcruntimed:undname.obj
 0002:000025b0       ??_C@_04OKOHEJBO@?5?$DP?$DP?5@ 00000001800b95b0     libvcruntimed:undname.obj
